
Symbol table '.dynsym' contains 15204 entries:
   Num:    Value          Size Type    Bind   Vis      Ndx Name
     0: 0000000000000000     0 NOTYPE  LOCAL  DEFAULT  UND 
     1: 0000000000000000     0 NOTYPE  WEAK   DEFAULT  UND _ITM_addUserCommitAction
     2: 0000000000000000     0 NOTYPE  WEAK   DEFAULT  UND _ITM_memcpyRtWn
     3: 0000000000000000     0 NOTYPE  WEAK   DEFAULT  UND _ITM_RU1
     4: 0000000000000000     0 NOTYPE  WEAK   DEFAULT  UND _ZGTtdlPv
     5: 0000000000000000     0 NOTYPE  WEAK   DEFAULT  UND _ITM_RU8
     6: 0000000000000000     0 NOTYPE  WEAK   DEFAULT  UND _ITM_memcpyRnWt
     7: 0000000000000000     0 NOTYPE  WEAK   DEFAULT  UND _ZGTtnam
     8: 00000000407fe3e8    56 OBJECT  WEAK   DEFAULT   21 _ZTVNSt7__cxx1115messages_bynameIcEE
     9: 00000000404aacb0   137 FUNC    WEAK   DEFAULT    4 _ZNKSt7__cxx1110moneypunctIwLb0EE13negative_signEv
    10: 00000000402d9be0   409 FUNC    GLOBAL DEFAULT    4 _ZN3elf4file12load_segmentERKNS_10Elf64_PhdrE
    11: 00000000402ae4d0     5 FUNC    GLOBAL DEFAULT    4 _Z11xs_identifyP7_driverP6device
    12: 00000000402cb900    48 FUNC    WEAK   DEFAULT    4 _ZN3mmu8anon_vmaD1Ev
    13: 00000000404e2b30   441 FUNC    GLOBAL DEFAULT    4 _ZNSt13random_device7_M_initERKNSt7__cxx1112basic_stringIcSt11char_traitsIcESaIcEEE
    14: 0000000040314d70    54 FUNC    GLOBAL DEFAULT    4 _ZN8xenclockC1Ev
    15: 00000000403445c0   329 FUNC    GLOBAL DEFAULT    4 AcpiGetVendorResource
    16: 000000004025f6d0    31 FUNC    GLOBAL DEFAULT    4 sys_accept
    17: 00000000403236d0    25 FUNC    GLOBAL DEFAULT    4 _ZN17interrupt_managerD1Ev
    18: 00000000403c5240    23 FUNC    GLOBAL DEFAULT    4 io_cancel
    19: 00000000404f2c80    41 FUNC    WEAK   DEFAULT    4 _ZNSt7collateIwED2Ev
    20: 00000000404f214d   202 FUNC    GLOBAL DEFAULT    4 _ZSt20__throw_system_errori
    21: 00000000402c55c0     9 FUNC    GLOBAL DEFAULT    4 _ZNK3mmu3vma4addrEv
    22: 00000000403b1090    63 FUNC    GLOBAL DEFAULT    4 _ZN19callstack_collector6attachER15tracepoint_base
    23: 00000000407fa960    40 OBJECT  WEAK   DEFAULT   21 _ZTVSt10bad_typeid
    24: 0000000040668ddc     4 OBJECT  GLOBAL DEFAULT    9 _ZNSt14numeric_limitsIeE11round_styleE
    25: 000000004047c1c0   372 FUNC    WEAK   DEFAULT    4 _ZNSt18basic_stringstreamIcSt11char_traitsIcESaIcEEC2ESt13_Ios_Openmode
    26: 0000000040378990    39 FUNC    GLOBAL DEFAULT    4 reallocarray
    27: 00000000403977c0   417 FUNC    GLOBAL DEFAULT    4 _ZN15tracepoint_base9add_probeEPNS_5probeE
    28: 000000004023cb60    13 FUNC    WEAK   DEFAULT    4 _ZNK5boost6system6detail12std_category4nameEv
    29: 0000000040370d40   560 FUNC    WEAK   DEFAULT    4 _ZN9pagecache14access_scannerC2Ev
    30: 00000000404c8190    21 FUNC    WEAK   DEFAULT    4 _ZStrsIwSt11char_traitsIwEERSt13basic_istreamIT_T0_ES6_St12_Setiosflags
    31: 00000000403045c0  1382 FUNC    GLOBAL DEFAULT    4 _ZN6virtio3rng6refillEv
    32: 0000000040989820    40 OBJECT  UNIQUE DEFAULT   52 _ZN9__gnu_cxx16bitmap_allocatorIwE6_S_mutE
    33: 00000000404cb790    85 FUNC    WEAK   DEFAULT    4 _ZNSt8numpunctIcEC1Em
    34: 00000000404aada0    34 FUNC    WEAK   DEFAULT    4 _ZNKSt7__cxx1110moneypunctIwLb0EE10neg_formatEv
    35: 00000000403cd330   382 FUNC    GLOBAL DEFAULT    4 mkdir
    36: 00000000404c0a80   332 FUNC    GLOBAL DEFAULT    4 _ZNSt8ios_base13_M_grow_wordsEib
    37: 00000000403fe100    30 FUNC    GLOBAL DEFAULT    4 _ZN6itimer12set_intervalEPK7timeval
    38: 00000000402ca130   270 FUNC    GLOBAL DEFAULT    4 _ZN3mmu8map_anonEPKvmjj
    39: 0000000040507aa0    97 FUNC    WEAK   DEFAULT    4 _ZNSt7__cxx1112basic_stringIwSt11char_traitsIwESaIwEE5eraseEN9__gnu_cxx17__normal_iteratorIPKwS4_EES9_
    40: 000000004030bf30    16 FUNC    WEAK   DEFAULT    4 _ZN11hypervclockD1Ev
    41: 000000004066a0d0    29 OBJECT  WEAK   DEFAULT    9 _ZTSSt17moneypunct_bynameIwLb0EE
    42: 00000000405073a0     8 FUNC    WEAK   DEFAULT    4 _ZNSt7__cxx1112basic_stringIwSt11char_traitsIwESaIwEE5beginEv
    43: 00000000404518a0     8 FUNC    WEAK   DEFAULT    4 _ZNK9__gnu_cxx16bitmap_allocatorIcE7addressERc
    44: 00000000404674e0   484 FUNC    WEAK   DEFAULT    4 _ZN9__gnu_cxx12__pool_allocIwE8allocateEmPKv
    45: 0000000040506a40    15 FUNC    WEAK   DEFAULT    4 _ZNKSt7__cxx1112basic_stringIwSt11char_traitsIwESaIwEE11_M_is_localEv
    46: 00000000402f1890    27 FUNC    GLOBAL DEFAULT    4 _ZN6virtio13virtio_driver14get_virt_queueEj
    47: 0000000040668dac     4 OBJECT  GLOBAL DEFAULT    9 _ZNSt14numeric_limitsIDuE10has_denormE
    48: 0000000040540910    78 FUNC    WEAK   DEFAULT    4 _ZNSt12__shared_ptrIKNSt10filesystem7__cxx1116filesystem_error5_ImplELN9__gnu_cxx12_Lock_policyE2EEC1ERKSt10__weak_ptrIS4_LS6_2EESt9nothrow_t
    49: 0000000040334cd0    16 FUNC    WEAK   DEFAULT    4 _Z13do_short_copyILj5EEvPvPKv
    50: 00000000403e57c0    10 FUNC    WEAK   DEFAULT    4 _ZNK8pseudofs19pseudo_symlink_node4modeEv
    51: 000000004025e340    18 FUNC    GLOBAL DEFAULT    4 sopoll
    52: 00000000404bc4a0   421 FUNC    WEAK   DEFAULT    4 _ZNSt13basic_fstreamIwSt11char_traitsIwEEC1EPKcSt13_Ios_Openmode
    53: 000000004039d630    54 FUNC    WEAK   DEFAULT    4 _ZNSt8__detail9_ExecutorIN9__gnu_cxx17__normal_iteratorIPKcNSt7__cxx1112basic_stringIcSt11char_traitsIcESaIcEEEEESaINS5_9sub_matchISB_EEENS5_12regex_traitsIcEELb1EED2Ev
    54: 00000000403b08d0    80 FUNC    GLOBAL DEFAULT    4 _ZN19callstack_collector11alloc_traceEPPvj
    55: 00000000409387e0    40 OBJECT  GLOBAL DEFAULT   52 random_reseed_mtx
    56: 00000000404f10a0    13 FUNC    WEAK   DEFAULT    4 _ZNKSt7__cxx1112basic_stringIcSt11char_traitsIcESaIcEE12find_last_ofEcm
    57: 0000000040333940   928 FUNC    WEAK   DEFAULT    4 _Z13do_sse_memcpyILj61E14load_unaligned15store_unalignedEvPvPKv
    58: 00000000404ee060    12 FUNC    WEAK   DEFAULT    4 _ZNSt15basic_streambufIcSt11char_traitsIcEE5pbumpEi
    59: 0000000040397590   134 FUNC    GLOBAL DEFAULT    4 _ZN5trace15set_event_stateERKNSt7__cxx1112basic_stringIcSt11char_traitsIcESaIcEEEbb
    60: 0000000040441780     9 FUNC    GLOBAL DEFAULT    4 _ZNSt22condition_variable_anyD2Ev
    61: 00000000403340a0   689 FUNC    WEAK   DEFAULT    4 _Z13do_sse_memcpyILj46E12load_aligned13store_alignedEvPvPKv
    62: 000000004026c5c0    98 FUNC    GLOBAL DEFAULT    4 _Z11arp_ifscrubP5ifnetj
    63: 000000004052ebd0    20 FUNC    WEAK   DEFAULT    4 _ZNSt12__shared_ptrINSt10filesystem7__cxx1128recursive_directory_iterator10_Dir_stackELN9__gnu_cxx12_Lock_policyE2EEC2Ev
    64: 00000000402c9c60   140 FUNC    GLOBAL DEFAULT    4 _ZN3mmu6adviseEPvmi
    65: 0000000040403db0    15 FUNC    WEAK   DEFAULT    4 endgrent
    66: 0000000040542f10    44 FUNC    GLOBAL DEFAULT    4 _ZNSt10filesystem7__cxx114path16replace_filenameERKS1_
    67: 00000000404e43e0   139 FUNC    WEAK   DEFAULT    4 _ZNSt7__cxx1119basic_istringstreamIcSt11char_traitsIcESaIcEED0Ev
    68: 0000000040664ef0    29 OBJECT  WEAK   DEFAULT    9 _ZTSSt7codecvtIDic11__mbstate_tE
    69: 00000000402638d0   114 FUNC    GLOBAL DEFAULT    4 sbuf_len
    70: 00000000402811c0   153 FUNC    GLOBAL DEFAULT    4 _Z20pfil_head_unregisterP9pfil_head
    71: 0000000040486fb0    26 FUNC    WEAK   DEFAULT    4 _ZNSbIwSt11char_traitsIwESaIwEEC1EmwRKS1_
    72: 00000000404ba660   159 FUNC    WEAK   DEFAULT    4 _ZNSt14basic_ofstreamIcSt11char_traitsIcEED0Ev
    73: 0000000040335690    80 FUNC    WEAK   DEFAULT    4 _Z14unaligned_copyILj2ELj5EEvPvPKvm
    74: 00000000403a29b0  1396 FUNC    WEAK   DEFAULT    4 _ZNSt8__detail9_ExecutorIN9__gnu_cxx17__normal_iteratorIPKcNSt7__cxx1112basic_stringIcSt11char_traitsIcESaIcEEEEESaINS5_9sub_matchISB_EEENS5_12regex_traitsIcEELb0EE6_M_dfsENSH_11_Match_modeEl
    75: 0000000040355720    32 FUNC    GLOBAL DEFAULT    4 AcpiPsHasCompletedScope
    76: 0000000040608f20    20 OBJECT  GLOBAL DEFAULT    9 AcpiRsConvertIo
    77: 00000000402f1ba0    10 FUNC    WEAK   DEFAULT    4 _ZN6virtio13virtio_driver19get_driver_featuresEv
    78: 0000000040914c50     8 OBJECT  GLOBAL DEFAULT   52 zone_mbuf
    79: 0000000040509db0    20 FUNC    WEAK   DEFAULT    4 _ZNSt7__cxx1112basic_stringIwSt11char_traitsIwESaIwEEC2EPKwmRKS3_
    80: 000000004034ba90   145 FUNC    GLOBAL DEFAULT    4 AcpiHwExtendedSleep
    81: 00000000404de6b0    21 FUNC    WEAK   DEFAULT    4 _ZStlsIcSt11char_traitsIcEERSt13basic_ostreamIT_T0_ES6_St12_Setiosflags
    82: 00000000404a6b50    17 FUNC    WEAK   DEFAULT    4 _ZNKSt7__cxx119money_getIwSt19istreambuf_iteratorIwSt11char_traitsIwEEE3getES4_S4_bRSt8ios_baseRSt12_Ios_IostateRe
    83: 0000000040403d20    21 FUNC    GLOBAL DEFAULT    4 getgrgid
    84: 00000000404c8f70   318 FUNC    WEAK   DEFAULT    4 _ZNSt13basic_istreamIwSt11char_traitsIwEE10_M_extractIPvEERS2_RT_
    85: 00000000404b4a90    69 FUNC    WEAK   DEFAULT    4 _ZNSt13basic_filebufIcSt11char_traitsIcEE15_M_create_pbackEv
    86: 00000000402da4d0   521 FUNC    GLOBAL DEFAULT    4 _ZN3elf12memory_imageC2ERNS_7programEPv
    87: 000000004037c520   121 FUNC    WEAK   DEFAULT    4 _ZN14dynamic_percpuIN4prof11cpu_samplerELm8EE9constructEv
    88: 00000000404e92a0   215 FUNC    WEAK   DEFAULT    4 _ZNSt7__cxx1118basic_stringstreamIcSt11char_traitsIcESaIcEEaSEOS4_
    89: 00000000402c5490    89 FUNC    GLOBAL DEFAULT    4 _ZN3mmu3vmaC2E10addr_rangejjbPNS_14page_allocatorE
    90: 00000000407fbf58    24 OBJECT  WEAK   DEFAULT   21 _ZTISt12strstreambuf
    91: 0000000040362400    58 FUNC    GLOBAL DEFAULT    4 AcpiDsGetBufferFieldArguments
    92: 000000004061ceb8    40 OBJECT  WEAK   DEFAULT    9 _ZTVN5sched6threadE
    93: 00000000403f6db0    16 FUNC    GLOBAL DEFAULT    4 wcstoull
    94: 00000000404f1e80    43 FUNC    GLOBAL DEFAULT    4 _ZNKSt3_V214error_category10equivalentEiRKSt15error_condition
    95: 0000000040668f6d     1 OBJECT  GLOBAL DEFAULT    9 _ZNSt14numeric_limitsIxE10is_integerE
    96: 00000000403c07d0    77 FUNC    GLOBAL DEFAULT    4 _ZN3osv11application5startEv
    97: 000000004030d410    13 FUNC    WEAK   DEFAULT    4 _ZNSt3mapIjSt10unique_ptrIN3osv14acpi_interruptESt14default_deleteIS2_EESt4lessIjESaISt4pairIKjS5_EEED2Ev
    98: 000000004026a6b0    69 FUNC    WEAK   DEFAULT    4 _ZN5sched14preempt_enableEv
    99: 00000000403f8df0   113 FUNC    GLOBAL DEFAULT    4 ttyname_r
   100: 00000000402ba360   470 FUNC    GLOBAL DEFAULT    4 ena_com_rx_pkt
   101: 0000000040325970    23 FUNC    WEAK   DEFAULT    4 _Z15do_small_memcpyILm18EEPvS0_PKv
   102: 000000004080730c     4 OBJECT  GLOBAL DEFAULT   22 ipport_reservedhigh
   103: 00000000402d33e0    16 FUNC    WEAK   DEFAULT    4 _ZN7console12console_fileD2Ev
   104: 000000004047f7f0   209 FUNC    WEAK   DEFAULT    4 _ZNSt19basic_ostringstreamIwSt11char_traitsIwESaIwEED2Ev
   105: 00000000404f2360     5 FUNC    GLOBAL DEFAULT    4 _ZNSt6thread6_StateD1Ev
   106: 00000000403c3e00   190 FUNC    WEAK   DEFAULT    4 _ZN3osv12app_registryD2Ev
   107: 000000004046b470    96 FUNC    GLOBAL DEFAULT    4 _ZSt18_Rb_tree_decrementPKSt18_Rb_tree_node_base
   108: 000000004062cf20    24 OBJECT  WEAK   DEFAULT    9 _ZTI8event_fd
   109: 0000000040668c64     4 OBJECT  GLOBAL DEFAULT    9 _ZNSt8ios_base9basefieldE
   110: 0000000040467c10    29 FUNC    GLOBAL DEFAULT    4 _ZNSt12length_errorC1ERKSs
   111: 00000000403f9ee0     7 FUNC    GLOBAL DEFAULT    4 pthread_spin_destroy
   112: 00000000404ed5d0    10 FUNC    WEAK   DEFAULT    4 _ZNSt15basic_streambufIcSt11char_traitsIcEE8overflowEi
   113: 0000000040266ee0    16 FUNC    GLOBAL DEFAULT    4 get_physmem
   114: 00000000404ed450     9 FUNC    WEAK   DEFAULT    4 _ZNKSt7__cxx1118basic_stringstreamIwSt11char_traitsIwESaIwEE5rdbufEv
   115: 00000000403ddab0     7 FUNC    GLOBAL DEFAULT    4 _Z9rofs_initv
   116: 0000000040916280   184 OBJECT  GLOBAL DEFAULT   52 raw_usrreqs
   117: 000000004044d9c0    23 FUNC    GLOBAL DEFAULT    4 _ZN10__cxxabiv116__enum_type_infoD2Ev
   118: 00000000407fb668    24 OBJECT  WEAK   DEFAULT   21 _ZTIN10__cxxabiv120__si_class_type_infoE
   119: 00000000407fd758    80 OBJECT  WEAK   DEFAULT   21 _ZTVSt19basic_istringstreamIwSt11char_traitsIwESaIwEE
   120: 0000000040368ce0   225 FUNC    GLOBAL DEFAULT    4 _ZN8lockfree5mutex8try_lockEv
   121: 0000000040669000     1 OBJECT  GLOBAL DEFAULT    9 _ZNSt14numeric_limitsIjE9is_iec559E
   122: 00000000404cec00    80 FUNC    WEAK   DEFAULT    4 _ZSt9use_facetISt8messagesIcEERKT_RKSt6locale
   123: 00000000403b3140   108 FUNC    GLOBAL DEFAULT    4 epoll_pwait
   124: 00000000407fb548    24 OBJECT  WEAK   DEFAULT   21 _ZTIN10__cxxabiv117__pbase_type_infoE
   125: 000000004046c1d0     7 FUNC    GLOBAL DEFAULT    4 _ZNKSt20__codecvt_utf16_baseIwE11do_encodingEv
   126: 0000000040424ae0   282 FUNC    WEAK   DEFAULT    4 fputwc_unlocked
   127: 00000000404e4820   149 FUNC    WEAK   DEFAULT    4 _ZThn16_NSt7__cxx1118basic_stringstreamIcSt11char_traitsIcESaIcEED1Ev
   128: 0000000040629c78    16 OBJECT  WEAK   DEFAULT    9 _ZTIFNSt7__cxx1112basic_stringIcSt11char_traitsIcESaIcEEEvE
   129: 00000000404ca830    30 FUNC    WEAK   DEFAULT    4 _ZNSt9money_putIcSt19ostreambuf_iteratorIcSt11char_traitsIcEEEC1Em
   130: 00000000403ffd80    80 FUNC    GLOBAL DEFAULT    4 mincore
   131: 00000000403f9320    13 FUNC    GLOBAL DEFAULT    4 _ZN15pthread_private7pthread5startEv
   132: 0000000040345fc0   249 FUNC    GLOBAL DEFAULT    4 AcpiUtInitializeBuffer
   133: 00000000402e72f0   736 FUNC    GLOBAL DEFAULT    4 _ZN3pci9check_busEt
   134: 00000000403315b0   621 FUNC    WEAK   DEFAULT    4 _Z13do_sse_memcpyILj42E12load_aligned13store_alignedEvPvPKv
   135: 00000000402ea0a0    41 FUNC    GLOBAL DEFAULT    4 _ZN3pci8function14msix_get_tableEv
   136: 00000000408018a0    24 OBJECT  WEAK   DEFAULT   21 _ZTISt7num_getIwSt19istreambuf_iteratorIwSt11char_traitsIwEEE
   137: 00000000404cc040   140 FUNC    WEAK   DEFAULT    4 _ZNKSt11__timepunctIcE9_M_monthsEPPKc
   138: 0000000040299200    17 FUNC    GLOBAL DEFAULT    4 kmod_tcpstat_inc
   139: 0000000040312560   200 FUNC    GLOBAL DEFAULT    4 _ZN11scsi_common18exec_read_capacityEttRm
   140: 000000004052ea50    14 FUNC    WEAK   DEFAULT    4 _ZNSt23_Sp_counted_ptr_inplaceINSt10filesystem7__cxx1128recursive_directory_iterator10_Dir_stackESaIS3_ELN9__gnu_cxx12_Lock_policyE2EED0Ev
   141: 000000004044dbd0    73 FUNC    GLOBAL DEFAULT    4 __cxa_guard_release
   142: 00000000404681d0    26 FUNC    GLOBAL DEFAULT    4 _ZNSt12strstreambuf6freezeEb
   143: 00000000404f0c70     8 FUNC    WEAK   DEFAULT    4 _ZNKSt7__cxx1112basic_stringIcSt11char_traitsIcESaIcEE5c_strEv
   144: 00000000404af730    30 FUNC    WEAK   DEFAULT    4 _ZNSt7__cxx1115time_get_bynameIwSt19istreambuf_iteratorIwSt11char_traitsIwEEEC2ERKNS_12basic_stringIcS2_IcESaIcEEEm
   145: 000000004061ab00     6 OBJECT  UNIQUE DEFAULT    9 _ZN16signature_helperIJiPK8sigset_tP9siginfo_tPK8timespecmEE3sigE
   146: 000000004046c1e0     7 FUNC    GLOBAL DEFAULT    4 _ZNKSt20__codecvt_utf16_baseIDsE16do_always_noconvEv
   147: 00000000402e9710    65 FUNC    GLOBAL DEFAULT    4 _ZN3pci8function12msi_mask_allEv
   148: 0000000040668d5c     4 OBJECT  GLOBAL DEFAULT    9 _ZNSt14numeric_limitsIDiE6digitsE
   149: 000000004061abfc     4 OBJECT  UNIQUE DEFAULT    9 _ZN16signature_helperIJiilEE3sigE
   150: 0000000040370ab0    76 FUNC    WEAK   DEFAULT    4 _ZThn16_N5boost10wrapexceptINS_7bad_getEED1Ev
   151: 00000000402f5350   138 FUNC    GLOBAL DEFAULT    4 _ZN4nvme6driver25enable_disable_controllerEb
   152: 00000000402714a0   212 FUNC    GLOBAL DEFAULT    4 ether_ioctl
   153: 000000004031a3b0     5 FUNC    GLOBAL DEFAULT    4 fpu_state_init_fxsave
   154: 00000000404f0e90    16 FUNC    WEAK   DEFAULT    4 _ZNKSt7__cxx1112basic_stringIcSt11char_traitsIcESaIcEE5rfindERKS4_m
   155: 00000000403c6920   318 FUNC    WEAK   DEFAULT    4 _ZNSt10_HashtableIlSt4pairIKl18application_statusESaIS3_ENSt8__detail10_Select1stESt8equal_toIlESt4hashIlENS5_18_Mod_range_hashingENS5_20_Default_ranged_hashENS5_20_Prime_rehash_policyENS5_17_Hashtable_traitsILb0ELb0ELb1EEEE9_M_rehashEmRKm
   156: 000000004039df10   398 FUNC    WEAK   DEFAULT    4 _ZNSt8__detail8_ScannerIcE19_M_eat_escape_posixEv
   157: 000000004026a700   424 FUNC    WEAK   DEFAULT    4 _ZNSt8_Rb_treeIPvSt4pairIKS0_P12synch_threadESt10_Select1stIS5_ESt4lessIS0_ESaIS5_EE8_M_eraseEPSt13_Rb_tree_nodeIS5_E
   158: 0000000040323af0  1971 FUNC    GLOBAL DEFAULT    4 _ZN17interrupt_manager13easy_registerESt16initializer_listI12msix_bindingE
   159: 00000000402c5d10   191 FUNC    GLOBAL DEFAULT    4 _ZN3mmu7mincoreEPKvmPh
   160: 00000000404ab6e0    83 FUNC    WEAK   DEFAULT    4 _ZNSt7__cxx118numpunctIwEC1EP15__locale_structm
   161: 00000000402642d0   262 FUNC    GLOBAL DEFAULT    4 taskqueue_free
   162: 00000000403cd940   566 FUNC    GLOBAL DEFAULT    4 renameat
   163: 0000000040452280   101 FUNC    GLOBAL DEFAULT    4 _ZNSt8CatalogsD2Ev
   164: 00000000404c0370   645 FUNC    WEAK   DEFAULT    4 _ZNSt9basic_iosIwSt11char_traitsIwEE7copyfmtERKS2_
   165: 00000000403f6e30    16 FUNC    GLOBAL DEFAULT    4 wcstoumax
   166: 00000000403bb0e0    41 FUNC    GLOBAL DEFAULT    4 _ZN15boot_time_chart5eventEPKc
   167: 00000000402cb4c0   125 FUNC    WEAK   DEFAULT    4 _ZN3mmu37uninitialized_anonymous_page_provider5unmapEPvmNS_7hw_ptepILi0EEE
   168: 0000000040668f14     4 OBJECT  GLOBAL DEFAULT    9 _ZNSt14numeric_limitsIyE10has_denormE
   169: 00000000402ad620   462 FUNC    GLOBAL DEFAULT    4 _Z11gnttab_initv
   170: 0000000040452e10    80 FUNC    GLOBAL DEFAULT    4 _ZNSt7codecvtIwc11__mbstate_tED2Ev
   171: 000000004047d5f0   194 FUNC    WEAK   DEFAULT    4 _ZNKSt15basic_stringbufIwSt11char_traitsIwESaIwEE3strEv
   172: 00000000404eaaa0   650 FUNC    WEAK   DEFAULT    4 _ZNSt7__cxx1115basic_stringbufIwSt11char_traitsIwESaIwEEC2EOS4_
   173: 000000004039b640     5 FUNC    WEAK   DEFAULT    4 _ZNSt23_Sp_counted_ptr_inplaceINSt8__detail4_NFAINSt7__cxx1112regex_traitsIcEEEESaIS5_ELN9__gnu_cxx12_Lock_policyE2EED1Ev
   174: 0000000040404c10    91 FUNC    GLOBAL DEFAULT    4 _ZNK7timerfd8time_nowEv
   175: 00000000402bcdc0   137 FUNC    GLOBAL DEFAULT    4 ena_com_indirect_table_get
   176: 0000000040807544     4 OBJECT  GLOBAL DEFAULT   22 tcp_do_autorcvbuf
   177: 000000004045d260    25 FUNC    GLOBAL DEFAULT    4 _ZNSt6locale7classicEv
   178: 00000000404ba360   225 FUNC    WEAK   DEFAULT    4 _ZNSt14basic_ofstreamIcSt11char_traitsIcEEC2ERKNSt7__cxx1112basic_stringIcS1_SaIcEEESt13_Ios_Openmode
   179: 00000000407ff7e0   128 OBJECT  WEAK   DEFAULT   21 _ZTVSt13basic_filebufIwSt11char_traitsIwEE
   180: 0000000040668f10     1 OBJECT  GLOBAL DEFAULT    9 _ZNSt14numeric_limitsIyE9is_iec559E
   181: 00000000403cc6c0    16 FUNC    GLOBAL DEFAULT    4 write
   182: 00000000405f9950    10 OBJECT  WEAK   DEFAULT    9 _ZTS8tty_file
   183: 00000000402e8860    15 FUNC    GLOBAL DEFAULT    4 _ZN3pci8function7set_bdfEhhh
   184: 000000004046c790    23 FUNC    GLOBAL DEFAULT    4 _ZNSt7codecvtIDiDu11__mbstate_tED2Ev
   185: 00000000406117e0    24 OBJECT  WEAK   DEFAULT    9 _ZTIN9pagecache17cached_page_writeE
   186: 000000004038f4d0   186 FUNC    GLOBAL DEFAULT    4 _ZN5sched3cpu7do_idleEv
   187: 000000004061b760    16 OBJECT  UNIQUE DEFAULT    9 _ZZN5boost9function4IbRN9__gnu_cxx17__normal_iteratorIPKcNSt7__cxx1112basic_stringIcSt11char_traitsIcESaIcEEEEERKSB_RNS_6spirit7contextINS_6fusion4consIRSt6vectorISA_SaISA_EENSH_4nil_EEENSH_6vectorIJEEEEERKNSF_2qi10char_classINSF_3tag9char_codeINSV_5spaceENSF_13char_encoding5asciiEEEEEE9assign_toINST_6detail13parser_binderINST_8sequenceINSI_INST_4listINST_11alternativeINSI_INST_9referenceIKNST_4ruleISB_FSA_vENS_5proto7exprns_4exprINS1E_6tagns_3tag8terminalENS1E_7argsns_4termIS10_EELl0EEENSF_11unused_typeES1O_EEEENSI_IS1R_SN_EEEEEENST_6kleeneIS11_EEEENSI_INS1A_INSI_INST_12literal_charISZ_Lb0ELb0EEENSI_INST_14literal_stringIRA3_S3_Lb0EEENSI_IS1Z_NSI_IS1Z_NSI_INST_10eoi_parserESN_EEEEEEEEEEEESN_EEEEEEN4mpl_5bool_ILb1EEEEEEEvT_E13stored_vtable
   188: 0000000040283140    74 FUNC    GLOBAL DEFAULT    4 in_canforward
   189: 00000000403f0740    76 FUNC    WEAK   DEFAULT    4 _ZThn16_N5boost10wrapexceptINS_4asio2ip16bad_address_castEED1Ev
   190: 00000000402532a0   725 FUNC    GLOBAL DEFAULT    4 m_collapse
   191: 00000000402710b0    39 FUNC    GLOBAL DEFAULT    4 ether_init
   192: 000000004045b2c0   457 FUNC    GLOBAL DEFAULT    4 _ZNSt6locale5_ImplC1ERKS0_m
   193: 00000000403d88a0    75 FUNC    GLOBAL DEFAULT    4 sys_access
   194: 0000000040408a80     9 FUNC    GLOBAL DEFAULT    4 strcoll
   195: 00000000402471f0    95 FUNC    WEAK   DEFAULT    4 _Z5debugIJPKcEEvS1_DpT_
   196: 0000000040485250   135 FUNC    WEAK   DEFAULT    4 _ZNSsC2ERKSs
   197: 00000000404e3230   227 FUNC    GLOBAL DEFAULT    4 _ZNSt10_Sp_lockerC2EPKvS1_
   198: 0000000040668e3c     4 OBJECT  GLOBAL DEFAULT    9 _ZNSt14numeric_limitsIdE5radixE
   199: 000000004038b090   251 FUNC    WEAK   DEFAULT    4 _Z5debugIJNSt7__cxx1112basic_stringIcSt11char_traitsIcESaIcEEES5_EEvPKcDpT_
   200: 00000000406632b4     4 OBJECT  WEAK   DEFAULT    9 _ZTSPDd
   201: 00000000404b9f90   354 FUNC    WEAK   DEFAULT    4 _ZNSt14basic_ifstreamIcSt11char_traitsIcEEC1EPKcSt13_Ios_Openmode
   202: 0000000040621000    74 OBJECT  WEAK   DEFAULT    9 _ZTSSt22_Maybe_get_result_typeISt8functionIFvRN5async17serial_timer_taskEEEvE
   203: 00000000406632c0     4 OBJECT  WEAK   DEFAULT    9 _ZTSPDe
   204: 00000000406694e0    22 OBJECT  WEAK   DEFAULT    9 _ZTSSt10moneypunctIcLb0EE
   205: 00000000403678c0     7 FUNC    GLOBAL DEFAULT    4 intr_register_source
   206: 00000000406632a8     4 OBJECT  WEAK   DEFAULT    9 _ZTSPDf
   207: 0000000040406b60    68 FUNC    GLOBAL DEFAULT    4 gnu_dev_makedev
   208: 0000000040374a60    27 FUNC    GLOBAL DEFAULT    4 _ZN6memory8shrinker19deactivate_shrinkerEv
   209: 000000004066321e     4 OBJECT  WEAK   DEFAULT    9 _ZTSPDi
   210: 0000000040478110   257 FUNC    WEAK   DEFAULT    4 _ZNSt18basic_stringstreamIcSt11char_traitsIcESaIcEED1Ev
   211: 000000004046c770    23 FUNC    GLOBAL DEFAULT    4 _ZNSt7codecvtIDsDu11__mbstate_tED2Ev
   212: 00000000402f2ad0   233 FUNC    GLOBAL DEFAULT    4 _ZN6virtio24virtio_modern_pci_device24find_vendor_capabilitiesERSt6vectorISt4pairIhhESaIS3_EE
   213: 0000000040334d90    17 FUNC    WEAK   DEFAULT    4 _Z13do_short_copyILj12EEvPvPKv
   214: 000000004030f520   185 FUNC    GLOBAL DEFAULT    4 _ZN4ahci4port5resetEv
   215: 000000004098a460   272 OBJECT  GLOBAL DEFAULT   52 _ZSt5wcout
   216: 00000000404f2220     5 FUNC    GLOBAL DEFAULT    4 _ZNSt3_V214error_categoryD1Ev
   217: 000000004030d6e0    42 FUNC    WEAK   DEFAULT    4 _ZN16hpet_32bit_clockD0Ev
   218: 0000000040452d60    80 FUNC    GLOBAL DEFAULT    4 _ZNSt7codecvtIcc11__mbstate_tED1Ev
   219: 0000000040424a90    72 FUNC    WEAK   DEFAULT    4 fputs_unlocked
   220: 00000000403d3170   117 FUNC    GLOBAL DEFAULT    4 _ZN4fileD1Ev
   221: 00000000402bc8f0   400 FUNC    GLOBAL DEFAULT    4 ena_com_fill_hash_function
   222: 00000000406632cc     4 OBJECT  WEAK   DEFAULT    9 _ZTSPDn
   223: 0000000040507b30   294 FUNC    WEAK   DEFAULT    4 _ZNSt7__cxx1112basic_stringIwSt11char_traitsIwESaIwEE14_M_replace_auxEmmmw
   224: 00000000402ae4e0    15 FUNC    GLOBAL DEFAULT    4 _Z8xs_probeP6device
   225: 00000000403b5dd0   107 FUNC    GLOBAL DEFAULT    4 _ZN11worker_item6signalEPN5sched3cpuE
   226: 0000000040349140    20 FUNC    GLOBAL DEFAULT    4 AcpiUtHexToAsciiChar
   227: 00000000402ae4f0   770 FUNC    GLOBAL DEFAULT    4 _Z9xs_attachP6device
   228: 000000004023cc10     5 FUNC    WEAK   DEFAULT    4 _ZN5boost2io6detail13call_put_headIcSt11char_traitsIcEKPKcEEvRSt13basic_ostreamIT_T0_EPKv
   229: 0000000040309d90   439 FUNC    WEAK   DEFAULT    4 _ZN3osv7xmitterIN3vmw15vmxnet3_txqueueELj4096ESt8functionIFbvEEN5boost9iterators24function_output_iteratorINS_15xmitter_functorIS2_EEEEE4xmitEP4mbuf
   230: 0000000040663212     4 OBJECT  WEAK   DEFAULT    9 _ZTSPDs
   231: 0000000040621293     2 OBJECT  UNIQUE DEFAULT    9 _ZN16signature_helperIJPN5async10timer_taskEEE3sigE
   232: 0000000040549480   131 FUNC    WEAK   DEFAULT    4 _ZNSt7__cxx1115basic_stringbufIcSt11char_traitsIcESaIcEEC2ESt13_Ios_OpenmodeRKS3_
   233: 00000000402ab650   410 FUNC    GLOBAL DEFAULT    4 _Z30bind_caller_port_to_irqhandlerjPKcPFvPvES1_mPj
   234: 0000000040663206     4 OBJECT  WEAK   DEFAULT    9 _ZTSPDu
   235: 000000004025e540    10 FUNC    GLOBAL DEFAULT    4 pru_control_notsupp
   236: 00000000403577f0   636 FUNC    GLOBAL DEFAULT    4 AcpiPsCompleteOp
   237: 0000000040320270    37 FUNC    WEAK   DEFAULT    4 _ZN26interrupt_descriptor_tableD1Ev
   238: 00000000404d0230   784 FUNC    WEAK   DEFAULT    4 _ZNSt5__padIcSt11char_traitsIcEE6_S_padERSt8ios_basecPcPKcll
   239: 00000000402a6c80   123 FUNC    WEAK   DEFAULT    4 _ZNSt17_Function_handlerIFvRN5async17serial_timer_taskEESt5_BindIFPFvS2_P5tcpcbESt12_PlaceholderILi1EES6_EEE10_M_managerERSt9_Any_dataRKSE_St18_Manager_operation
   240: 00000000407fc880    88 OBJECT  WEAK   DEFAULT   21 _ZTVSt19__codecvt_utf8_baseIDsE
   241: 00000000402e88c0     9 FUNC    GLOBAL DEFAULT    4 _ZN3pci8function25get_programming_interfaceEv
   242: 000000004041d060    32 FUNC    GLOBAL DEFAULT    4 mbrlen
   243: 0000000040377e00   230 FUNC    GLOBAL DEFAULT    4 _ZN6memory10alloc_pageEv
   244: 0000000040459490   802 FUNC    GLOBAL DEFAULT    4 _ZNSi6ignoreEli
   245: 00000000405f1ec0    72 OBJECT  WEAK   DEFAULT    9 _ZTSSt17_Weak_result_typeIPFvP13syncache_headRN5async17serial_timer_taskEEE
   246: 00000000402f0890   680 FUNC    GLOBAL DEFAULT    4 _ZN7console10VGAConsole10push_queueEPKcm
   247: 00000000404d0b90   750 FUNC    WEAK   DEFAULT    4 _ZNKSt7num_putIcSt19ostreambuf_iteratorIcSt11char_traitsIcEEE13_M_insert_intImEES3_S3_RSt8ios_basecT_
   248: 0000000040467890    23 FUNC    GLOBAL DEFAULT    4 _ZNSt12domain_errorD2Ev
   249: 0000000040318cc0    93 FUNC    WEAK   DEFAULT    4 _ZNK8xenfront15xenplatform_pci8get_nameB5cxx11Ev
   250: 00000000404572e0     9 FUNC    GLOBAL DEFAULT    4 _ZNKSt8ios_base7failure4whatEv
   251: 0000000040336550   112 FUNC    WEAK   DEFAULT    4 _Z14unaligned_copyILj4ELj14EEvPvPKvm
   252: 00000000403131f0   300 FUNC    GLOBAL DEFAULT    4 _ZN3ide9ide_drive5probeEPN2hw9hw_deviceE
   253: 0000000040669158     4 OBJECT  GLOBAL DEFAULT    9 _ZNSt14numeric_limitsIhE6digitsE
   254: 0000000040336160   112 FUNC    WEAK   DEFAULT    4 _Z14unaligned_copyILj4ELj5EEvPvPKvm
   255: 000000004045a590    39 FUNC    GLOBAL DEFAULT    4 _ZNSt15_List_node_base7reverseEv
   256: 000000004035a480   168 FUNC    GLOBAL DEFAULT    4 AcpiRemoveGpeBlock
   257: 0000000040343ff0   375 FUNC    GLOBAL DEFAULT    4 AcpiRsConvertResourcesToAml
   258: 00000000403683e0    65 FUNC    GLOBAL DEFAULT    4 irq_spin_lock
   259: 000000004045a480    27 FUNC    GLOBAL DEFAULT    4 _ZNSt15_List_node_base7_M_hookEPS_
   260: 0000000040668c84     4 OBJECT  GLOBAL DEFAULT    9 _ZNSt8ios_base10scientificE
   261: 000000004035af60    53 FUNC    GLOBAL DEFAULT    4 AcpiEvFinishGpe
   262: 00000000402a5bb0     9 FUNC    GLOBAL DEFAULT    4 syncache_add
   263: 000000004023cbb0    10 FUNC    WEAK   DEFAULT    4 _ZNK5boost4asio5error6detail17addrinfo_category4nameEv
   264: 00000000406666e0    39 OBJECT  WEAK   DEFAULT    9 _ZTSNSt7__cxx1117moneypunct_bynameIwLb1EEE
   265: 00000000409516e0   336 OBJECT  GLOBAL DEFAULT   52 _ZN6memory16free_page_rangesE
   266: 00000000402e7e20     5 FUNC    GLOBAL DEFAULT    4 _ZN3pci8function5resetEv
   267: 0000000040483710   135 FUNC    WEAK   DEFAULT    4 _ZNKSs7compareEmmRKSs
   268: 00000000405327a0    78 FUNC    GLOBAL DEFAULT    4 _ZNSt10filesystem16create_hard_linkERKNS_7__cxx114pathES3_RSt10error_code
   269: 0000000040534ae0   109 FUNC    GLOBAL DEFAULT    4 _ZNSt10filesystem19temp_directory_pathB5cxx11Ev
   270: 000000004048a960    41 FUNC    WEAK   DEFAULT    4 _ZNSt13__ios_failureD2Ev
   271: 00000000403551a0   396 FUNC    GLOBAL DEFAULT    4 AcpiLoadTables
   272: 000000004027c8a0    51 FUNC    GLOBAL DEFAULT    4 ifnet_byindex_locked
   273: 00000000402570b0    51 FUNC    GLOBAL DEFAULT    4 sbdrop_locked
   274: 0000000040313930   132 FUNC    GLOBAL DEFAULT    4 _ZN3vmw6pvscsi12make_requestEP3bio
   275: 00000000404bf610    13 FUNC    WEAK   DEFAULT    4 _ZNKSt9basic_iosIcSt11char_traitsIcEE3eofEv
   276: 0000000040613660    28 OBJECT  WEAK   DEFAULT    9 _ZTSN5sched10timer_base6clientE
   277: 000000004039e870   342 FUNC    WEAK   DEFAULT    4 _ZNSt8__detail8_ScannerIcE12_M_eat_classEc
   278: 00000000404c96e0    23 FUNC    WEAK   DEFAULT    4 _ZNSt14codecvt_bynameIcc11__mbstate_tED2Ev
   279: 0000000040260200   193 FUNC    GLOBAL DEFAULT    4 sys_setsockopt
   280: 00000000403b57a0    10 FUNC    GLOBAL DEFAULT    4 _Z19dynamic_percpu_basev
   281: 00000000405361e0   118 FUNC    GLOBAL DEFAULT    4 _ZNSt10filesystem9copy_fileERKNS_7__cxx114pathES3_NS_12copy_optionsE
   282: 0000000040387370     7 FUNC    WEAK   DEFAULT    4 _ZN5boost6detail17sp_counted_impl_pINS_6spirit2qi3tstIKcS5_EEE17get_local_deleterERKSt9type_info
   283: 00000000402c4ae0    19 FUNC    GLOBAL DEFAULT    4 _ZN3mmu14pte_level_maskEj
   284: 000000004044fbd0     5 FUNC    WEAK   DEFAULT    4 _ZNSaIwED1Ev
   285: 00000000402ca860   398 FUNC    GLOBAL DEFAULT    4 _ZN3mmu15jvm_balloon_vma5faultEmP15exception_frame
   286: 0000000040352c80    63 FUNC    GLOBAL DEFAULT    4 AcpiExReacquireInterpreter
   287: 00000000405fd700    31 OBJECT  WEAK   DEFAULT    9 _ZTSN7console18isa_serial_consoleE
   288: 000000004034cde0   790 FUNC    GLOBAL DEFAULT    4 AcpiExLoadOp
   289: 000000004024a1c0    33 FUNC    GLOBAL DEFAULT    4 in_addword
   290: 00000000402c5dd0    12 FUNC    GLOBAL DEFAULT    4 is_linear_mapped
   291: 00000000403bd460   188 FUNC    GLOBAL DEFAULT    4 _ZN5async10timer_taskC2ERN8lockfree5mutexEOSt8functionIFvvEE
   292: 00000000404f2850    12 FUNC    WEAK   DEFAULT    4 _ZNKSt10moneypunctIwLb1EE13do_pos_formatEv
   293: 00000000404a6b90    30 FUNC    WEAK   DEFAULT    4 _ZNSt7__cxx119money_putIwSt19ostreambuf_iteratorIwSt11char_traitsIwEEEC1Em
   294: 000000004038f1a0    39 FUNC    GLOBAL DEFAULT    4 _ZN5schedltERKNS_10timer_baseES2_
   295: 0000000040665d20    32 OBJECT  WEAK   DEFAULT    9 _ZTSNSt7__cxx1110moneypunctIcLb1EEE
   296: 0000000040915328     8 OBJECT  GLOBAL DEFAULT   52 arc_lowmem_fun
   297: 00000000403dd020     7 FUNC    GLOBAL DEFAULT    4 nullop
   298: 0000000040481d20     9 FUNC    GLOBAL DEFAULT    4 _Z28_txnal_runtime_error_get_msgPv
   299: 00000000404949c0  2200 FUNC    WEAK   DEFAULT    4 _ZNKSt7__cxx119money_putIcSt19ostreambuf_iteratorIcSt11char_traitsIcEEE9_M_insertILb1EEES4_S4_RSt8ios_basecRKNS_12basic_stringIcS3_SaIcEEE
   300: 00000000404c5160     9 FUNC    WEAK   DEFAULT    4 _ZNSirsERb
   301: 00000000403488f0   203 FUNC    GLOBAL DEFAULT    4 AcpiBiosWarning
   302: 00000000405078d0    20 FUNC    WEAK   DEFAULT    4 _ZNSt7__cxx1112basic_stringIwSt11char_traitsIwESaIwEE6assignERKS4_
   303: 0000000040254fc0   174 FUNC    GLOBAL DEFAULT    4 domaininit
   304: 000000004036df30    25 FUNC    WEAK   DEFAULT    4 _ZNSt10unique_ptrIN5sched6threadESt14default_deleteIS1_EED1Ev
   305: 000000004066900a     1 OBJECT  GLOBAL DEFAULT    9 _ZNSt14numeric_limitsIjE12has_infinityE
   306: 00000000404abb90    10 FUNC    WEAK   DEFAULT    4 _ZNKSt7__cxx118time_getIwSt19istreambuf_iteratorIwSt11char_traitsIwEEE10date_orderEv
   307: 00000000404c56a0     9 FUNC    WEAK   DEFAULT    4 _ZNSirsERd
   308: 00000000406690fc     4 OBJECT  GLOBAL DEFAULT    9 _ZNSt14numeric_limitsIwE14max_exponent10E
   309: 000000004050bd00    12 FUNC    GLOBAL DEFAULT    4 _ZNSt10filesystem28recursive_directory_iterator25disable_recursion_pendingEv
   310: 00000000404c57f0     9 FUNC    WEAK   DEFAULT    4 _ZNSirsERe
   311: 00000000404c5550     9 FUNC    WEAK   DEFAULT    4 _ZNSirsERf
   312: 000000004030e3b0    76 FUNC    WEAK   DEFAULT    4 _ZN5boost10wrapexceptINS_9gregorian16bad_day_of_monthEED2Ev
   313: 00000000405329c0   112 FUNC    GLOBAL DEFAULT    4 _ZNSt10filesystem24create_directory_symlinkERKNS_7__cxx114pathES3_
   314: 000000004051c6b0    20 FUNC    WEAK   DEFAULT    4 _ZNSt12__shared_ptrIKNSt10filesystem16filesystem_error5_ImplELN9__gnu_cxx12_Lock_policyE2EEC2EDn
   315: 0000000040331240   877 FUNC    WEAK   DEFAULT    4 _Z13do_sse_memcpyILj58E14load_unaligned15store_unalignedEvPvPKv
   316: 0000000040508fc0   129 FUNC    WEAK   DEFAULT    4 _ZNKSt7__cxx1112basic_stringIwSt11char_traitsIwESaIwEE5rfindEPKwmm
   317: 00000000408024f0    16 OBJECT  WEAK   DEFAULT   21 _ZTINSt3pmr15memory_resourceE
   318: 0000000040255d00    17 FUNC    GLOBAL DEFAULT    4 _ZN14sockbuf_iolock6unlockERN8lockfree5mutexE
   319: 00000000404c2e40   385 FUNC    WEAK   DEFAULT    4 _ZNSirsERi
   320: 00000000404ef3a0    18 FUNC    WEAK   DEFAULT    4 _ZNSt7__cxx1112basic_stringIcSt11char_traitsIcESaIcEE6rbeginEv
   321: 00000000404c4d70     9 FUNC    WEAK   DEFAULT    4 _ZNSirsERj
   322: 000000004048b5a0    41 FUNC    WEAK   DEFAULT    4 _ZNSt7__cxx1114collate_bynameIcED2Ev
   323: 00000000404b2bb0   190 FUNC    WEAK   DEFAULT    4 _ZN9__gnu_cxx13stdio_filebufIcSt11char_traitsIcEEC1EP8_IO_FILESt13_Ios_Openmodem
   324: 00000000404c4ec0     9 FUNC    WEAK   DEFAULT    4 _ZNSirsERl
   325: 00000000403eb6c0    20 FUNC    GLOBAL DEFAULT    4 __nl_langinfo
   326: 000000004033a9b0   144 FUNC    WEAK   DEFAULT    4 _Z14unaligned_copyILj6ELj15EEvPvPKvm
   327: 00000000405fdcb0    25 OBJECT  WEAK   DEFAULT    9 _ZTSN6virtio13virtio_deviceE
   328: 00000000402c8130   445 FUNC    GLOBAL DEFAULT    4 _ZN3mmu10linear_mapEPvmmPKcmNS_5mattrE
   329: 0000000040451800     5 FUNC    WEAK   DEFAULT    4 _ZN9__gnu_cxx16bitmap_allocatorIcEC1Ev
   330: 000000004037c7f0   124 FUNC    WEAK   DEFAULT    4 _ZN4prof11cpu_sampler11timer_firedEv
   331: 00000000404c5010     9 FUNC    WEAK   DEFAULT    4 _ZNSirsERm
   332: 0000000040627ffb     3 OBJECT  UNIQUE DEFAULT    9 _ZN16signature_helperIJPKcP6statfsEE3sigE
   333: 0000000040469560     9 FUNC    GLOBAL DEFAULT    4 _ZNKSt10istrstream5rdbufEv
   334: 0000000040989418     8 OBJECT  GLOBAL DEFAULT   52 __free_hook
   335: 00000000402d8860   322 FUNC    GLOBAL DEFAULT    4 _ZN3elf7program6lookupEPKcPNS_6objectE
   336: 0000000040802500    24 OBJECT  WEAK   DEFAULT   21 _ZTINSt3pmr26synchronized_pool_resourceE
   337: 00000000406690c0     4 OBJECT  GLOBAL DEFAULT    9 _ZNSt14numeric_limitsIsE14max_exponent10E
   338: 0000000040461fa0    93 FUNC    WEAK   DEFAULT    4 _ZNSt18__moneypunct_cacheIcLb0EED2Ev
   339: 000000004061ab22     4 OBJECT  UNIQUE DEFAULT    9 _ZN16signature_helperIJiP10clone_argsmEE3sigE
   340: 00000000405470c0   169 FUNC    GLOBAL DEFAULT    4 _ZNSt3pmr15__pool_resource7releaseEv
   341: 00000000405f9b3d     7 OBJECT  WEAK   DEFAULT    9 _ZTS5clock
   342: 00000000403b6a80   113 FUNC    GLOBAL DEFAULT    4 _ZN4dhcp9dhcp_mbuf10add_optionEPhhhh
   343: 00000000403ab620  1349 FUNC    WEAK   DEFAULT    4 _ZNSt8__detail9_CompilerINSt7__cxx1112regex_traitsIcEEE25_M_insert_bracket_matcherILb0ELb1EEEvb
   344: 00000000405fe078   232 OBJECT  WEAK   DEFAULT    9 _ZTVN6virtio24virtio_legacy_pci_deviceE
   345: 00000000404c2cb0   385 FUNC    WEAK   DEFAULT    4 _ZNSirsERs
   346: 000000004052ef10   180 FUNC    WEAK   DEFAULT    4 _ZNSt12__shared_ptrINSt10filesystem7__cxx1128recursive_directory_iterator10_Dir_stackELN9__gnu_cxx12_Lock_policyE2EEaSEOS6_
   347: 00000000404c4c20     9 FUNC    WEAK   DEFAULT    4 _ZNSirsERt
   348: 00000000404e8c50   737 FUNC    WEAK   DEFAULT    4 _ZNSt7__cxx1118basic_stringstreamIcSt11char_traitsIcESaIcEEC1ERKNS_12basic_stringIcS2_S3_EESt13_Ios_Openmode
   349: 00000000402fc460   318 FUNC    GLOBAL DEFAULT    4 _ZN6virtio3net3txq15xmit_one_lockedEPv
   350: 0000000040665a50    29 OBJECT  WEAK   DEFAULT    9 _ZTSNSt8ios_base7failureB5cxx11E
   351: 00000000408071b8     4 OBJECT  GLOBAL DEFAULT   22 rt_add_addr_allfibs
   352: 0000000040327ca0   160 FUNC    WEAK   DEFAULT    4 _Z13do_sse_memcpyILj13E14load_unaligned15store_unalignedEvPvPKv
   353: 00000000404c52b0     9 FUNC    WEAK   DEFAULT    4 _ZNSirsERx
   354: 0000000040337770   368 FUNC    WEAK   DEFAULT    4 _Z14unaligned_copyILj14ELj3EEvPvPKvm
   355: 00000000403079e0  1204 FUNC    GLOBAL DEFAULT    4 _ZN3vmw15vmxnet3_rxqueue7receiveEv
   356: 000000004030c120   102 FUNC    GLOBAL DEFAULT    4 AcpiOsDeleteSemaphore
   357: 00000000404c5400     9 FUNC    WEAK   DEFAULT    4 _ZNSirsERy
   358: 00000000407fab60    24 OBJECT  WEAK   DEFAULT   21 _ZTIN10__cxxabiv116__enum_type_infoE
   359: 000000004030bac0    87 FUNC    GLOBAL DEFAULT    4 _ZN8kvmclock11system_timeEv
   360: 0000000040278320   368 FUNC    GLOBAL DEFAULT    4 _Z16sysctl_dumpentryP10radix_nodePv
   361: 000000004023d740    64 FUNC    WEAK   DEFAULT    4 _ZN5boost6system12system_errorD0Ev
   362: 000000004035b3a0   660 FUNC    GLOBAL DEFAULT    4 AcpiEvInstallSpaceHandler
   363: 00000000403f0600    42 FUNC    WEAK   DEFAULT    4 _ZN5boost4asio2ip16bad_address_castD0Ev
   364: 00000000404678d0    23 FUNC    GLOBAL DEFAULT    4 _ZNSt16invalid_argumentD1Ev
   365: 000000004054b630   657 FUNC    WEAK   DEFAULT    4 _ZNSt7__cxx1115basic_stringbufIwSt11char_traitsIwESaIwEEC1EOS4_RKS3_
   366: 000000004028eb90    83 FUNC    GLOBAL DEFAULT    4 _Z12ip_rsvp_initP6socket
   367: 0000000040941108     8 OBJECT  GLOBAL DEFAULT   52 AcpiGbl_BreakpointWalk
   368: 00000000403e58c0     9 FUNC    WEAK   DEFAULT    4 _ZNSt23_Sp_counted_ptr_inplaceIN8pseudofs19pseudo_symlink_nodeESaIS1_ELN9__gnu_cxx12_Lock_policyE2EED0Ev
   369: 00000000402f4650    77 FUNC    GLOBAL DEFAULT    4 _ZN6virtio11mmio_device12select_queueEi
   370: 0000000040359bd0   143 FUNC    GLOBAL DEFAULT    4 AcpiEvInitGlobalLockHandler
   371: 00000000404417f0    11 FUNC    GLOBAL DEFAULT    4 _ZN9__gnu_cxx18__exchange_and_addEPVii
   372: 00000000404bf7f0   101 FUNC    WEAK   DEFAULT    4 _ZNKSt9basic_iosIcSt11char_traitsIcEE6narrowEcc
   373: 0000000040418220  1723 FUNC    GLOBAL DEFAULT    4 pow
   374: 0000000040486f00   137 FUNC    WEAK   DEFAULT    4 _ZNSbIwSt11char_traitsIwESaIwEE12_S_constructEmwRKS1_
   375: 0000000040423eb0    37 FUNC    GLOBAL DEFAULT    4 __freadptr
   376: 00000000402ca7b0   162 FUNC    GLOBAL DEFAULT    4 _ZN3mmu3vma5faultEmP15exception_frame
   377: 00000000402721e0   147 FUNC    GLOBAL DEFAULT    4 lltable_foreach_lle
   378: 000000004040b470   229 FUNC    GLOBAL DEFAULT    4 acoshf
   379: 00000000407fefc8    48 OBJECT  WEAK   DEFAULT   21 _ZTVNSt7__cxx119money_putIwSt19ostreambuf_iteratorIwSt11char_traitsIwEEEE
   380: 0000000040521bf0   834 FUNC    GLOBAL DEFAULT    4 _ZNSt10filesystem4path14_S_convert_locEPKcS2_RKSt6locale
   381: 0000000040394750   479 FUNC    GLOBAL DEFAULT    4 _ZN5sched3cpu16init_idle_threadEv
   382: 0000000040222032    13 FUNC    GLOBAL DEFAULT    4 _ZN8vfs_file8truncateEl
   383: 000000004047d300    65 FUNC    WEAK   DEFAULT    4 _ZNSt18basic_stringstreamIcSt11char_traitsIcESaIcEE3strERKSs
   384: 0000000040407260   127 FUNC    GLOBAL DEFAULT    4 iswprint
   385: 0000000040364910   111 FUNC    GLOBAL DEFAULT    4 AcpiDsMethodDataInit
   386: 00000000402e8840    23 FUNC    GLOBAL DEFAULT    4 _ZN3pci8function7get_bdfERhS1_S1_
   387: 00000000404c9930   142 FUNC    WEAK   DEFAULT    4 _ZNKSt10moneypunctIcLb0EE16do_negative_signEv
   388: 00000000404c84f0   318 FUNC    WEAK   DEFAULT    4 _ZNSt13basic_istreamIwSt11char_traitsIwEE10_M_extractIlEERS2_RT_
   389: 00000000403486a0   203 FUNC    GLOBAL DEFAULT    4 AcpiWarning
   390: 000000004038dfe0    28 FUNC    GLOBAL DEFAULT    4 _ZN5sched6thread10stack_infoC2Ev
   391: 00000000404f5af0    30 FUNC    WEAK   DEFAULT    4 _ZNSt15time_put_bynameIwSt19ostreambuf_iteratorIwSt11char_traitsIwEEEC1EPKcm
   392: 000000004040b560   203 FUNC    GLOBAL DEFAULT    4 acoshl
   393: 00000000404f44a0   165 FUNC    WEAK   DEFAULT    4 _ZNKSt10moneypunctIwLb0EE13negative_signEv
   394: 00000000404f5d60    64 FUNC    WEAK   DEFAULT    4 _ZNKSt8messagesIwE3getEiiiRKSbIwSt11char_traitsIwESaIwEE
   395: 0000000040407470    34 FUNC    WEAK   DEFAULT    4 iswupper_l
   396: 00000000406047e8    64 OBJECT  WEAK   DEFAULT    9 _ZTV11hypervclock
   397: 000000004046c670    23 FUNC    GLOBAL DEFAULT    4 _ZNSt7codecvtIDsc11__mbstate_tED1Ev
   398: 00000000404862d0    16 FUNC    WEAK   DEFAULT    4 _ZNKSbIwSt11char_traitsIwESaIwEE5emptyEv
   399: 0000000040345170    46 FUNC    GLOBAL DEFAULT    4 AcpiInstallInitializationHandler
   400: 00000000405fd490    16 OBJECT  WEAK   DEFAULT    9 _ZTSN2hw9hw_driverE
   401: 00000000403b5cf0    17 FUNC    GLOBAL DEFAULT    4 _ZN11worker_item9have_workEPN5sched3cpuE
   402: 00000000404b5ef0   343 FUNC    WEAK   DEFAULT    4 _ZNSt14basic_ifstreamIcSt11char_traitsIcEEC1EOS2_
   403: 0000000040669b80    60 OBJECT  WEAK   DEFAULT    9 _ZTSNSt7__cxx1119basic_ostringstreamIwSt11char_traitsIwESaIwEEE
   404: 00000000406043c8    40 OBJECT  WEAK   DEFAULT    9 _ZTVN5boost2io12too_few_argsE
   405: 00000000404bec90    20 FUNC    GLOBAL DEFAULT    4 _ZNSt13__future_base13_State_baseV211_Make_ready6_M_setEv
   406: 00000000402867e0   189 FUNC    GLOBAL DEFAULT    4 in_pcbbind
   407: 000000004035e1d0   601 FUNC    GLOBAL DEFAULT    4 AcpiNsWalkNamespace
   408: 00000000402d6130   232 FUNC    GLOBAL DEFAULT    4 _ZN3elf10Elf64_NoteC1EPvPc
   409: 00000000409410b8     4 OBJECT  GLOBAL DEFAULT   52 AcpiGbl_RsdpOriginalLocation
   410: 00000000408003d0    24 OBJECT  WEAK   DEFAULT   21 _ZTISt15time_put_bynameIcSt19ostreambuf_iteratorIcSt11char_traitsIcEEE
   411: 0000000040345280   111 FUNC    GLOBAL DEFAULT    4 AcpiRemoveInterface
   412: 00000000404edbf0    34 FUNC    WEAK   DEFAULT    4 _ZNSt15basic_streambufIcSt11char_traitsIcEE10pubseekoffElSt12_Ios_SeekdirSt13_Ios_Openmode
   413: 00000000403b6ba0   261 FUNC    GLOBAL DEFAULT    4 _ZN4dhcp9dhcp_mbuf15compose_releaseEP5ifnetN5boost4asio2ip10address_v4ES6_
   414: 000000004044f030   245 FUNC    GLOBAL DEFAULT    4 _ZNK10__cxxabiv121__vmi_class_type_info20__do_find_public_srcElPKvPKNS_17__class_type_infoES2_
   415: 00000000404bd040   225 FUNC    WEAK   DEFAULT    4 _ZNSt14basic_ofstreamIwSt11char_traitsIwEEC2EPKcSt13_Ios_Openmode
   416: 0000000040487e90    60 FUNC    WEAK   DEFAULT    4 _ZNSbIwSt11char_traitsIwESaIwEE8pop_backEv
   417: 0000000040467870    22 FUNC    GLOBAL DEFAULT    4 _ZNSt11logic_errorD0Ev
   418: 00000000405fed70   208 OBJECT  WEAK   DEFAULT    9 _ZTVN6virtio11mmio_deviceE
   419: 0000000040334c40    51 FUNC    WEAK   DEFAULT    4 _Z14unaligned_copyILj2ELj0EEvPvPKvm
   420: 0000000040668ee8     4 OBJECT  GLOBAL DEFAULT    9 _ZNSt14numeric_limitsInE14min_exponent10E
   421: 000000004036daa0   535 FUNC    GLOBAL DEFAULT    4 _ZN3osv9rcu_flushEv
   422: 00000000405f99b8   184 OBJECT  WEAK   DEFAULT    9 _ZTVN7console12console_fileE
   423: 00000000404f4a60    34 FUNC    WEAK   DEFAULT    4 _ZNKSt10moneypunctIwLb1EE10neg_formatEv
   424: 000000004061e680    70 OBJECT  WEAK   DEFAULT    9 _ZTSNSt8__detail15_BracketMatcherINSt7__cxx1112regex_traitsIcEELb1ELb1EEE
   425: 00000000404cc860   137 FUNC    WEAK   DEFAULT    4 _ZNSt14codecvt_bynameIcc11__mbstate_tEC1ERKSsm
   426: 00000000402fd550    32 FUNC    WEAK   DEFAULT    4 _ZNSt17_Function_handlerIFvvESt5_BindIFM14dynamic_percpuISt10unique_ptrIN3osv9cpu_queueILj4096EEESt14default_deleteIS6_EELm8EEFvvEPSA_EEE9_M_invokeERKSt9_Any_data
   427: 0000000040404200   172 FUNC    GLOBAL DEFAULT    4 _ZN8event_fd13copy_from_uioEP3uioPm
   428: 0000000040943ba0     1 OBJECT  GLOBAL DEFAULT   52 verbose
   429: 000000004032d880   542 FUNC    WEAK   DEFAULT    4 _Z13do_sse_memcpyILj37E12load_aligned13store_alignedEvPvPKv
   430: 0000000040264500    42 FUNC    GLOBAL DEFAULT    4 taskqueue_block
   431: 00000000402e8160    35 FUNC    GLOBAL DEFAULT    4 _ZN3pci8functionD0Ev
   432: 00000000405446f0   720 FUNC    GLOBAL DEFAULT    4 _ZNKSt10filesystem7__cxx114path11parent_pathEv
   433: 0000000040320b00   911 FUNC    WEAK   DEFAULT    4 _ZN26interrupt_descriptor_table7handlerC2EPS0_St8functionIFbvEES2_IFvvEES6_
   434: 00000000404e4eb0   131 FUNC    WEAK   DEFAULT    4 _ZNSt7__cxx1115basic_stringbufIcSt11char_traitsIcESaIcEEC2ESt13_Ios_Openmode
   435: 0000000040507e30    11 FUNC    WEAK   DEFAULT    4 _ZNSt7__cxx1112basic_stringIwSt11char_traitsIwESaIwEE6resizeEm
   436: 00000000403c2de0   680 FUNC    GLOBAL DEFAULT    4 _ZN3osv11application3runERKNSt7__cxx1112basic_stringIcSt11char_traitsIcESaIcEEERKSt6vectorIS6_SaIS6_EEbPKSt13unordered_mapIS6_S6_St4hashIS6_ESt8equal_toIS6_ESaISt4pairIS7_S6_EEES8_St8functionIFvvEE
   437: 00000000404f4b90   250 FUNC    WEAK   DEFAULT    4 _ZNSt17moneypunct_bynameIwLb0EEC1ERKSsm
   438: 0000000040406bc0    10 FUNC    GLOBAL DEFAULT    4 __ctype_tolower_loc
   439: 0000000040603fc8    24 OBJECT  WEAK   DEFAULT    9 _ZTIN3vmw7vmxnet3E
   440: 000000004031a480    84 FUNC    GLOBAL DEFAULT    4 _ZN5sched15exception_guardD2Ev
   441: 0000000040263800     8 FUNC    GLOBAL DEFAULT    4 sbuf_error
   442: 0000000040366290    82 FUNC    GLOBAL DEFAULT    4 AcpiDsClearOperands
   443: 00000000406690ee     1 OBJECT  GLOBAL DEFAULT    9 _ZNSt14numeric_limitsIwE9is_moduloE
   444: 00000000406659fc     2 OBJECT  GLOBAL DEFAULT    9 _ZNSt10ctype_base5alphaE
   445: 000000004034a8c0    89 FUNC    GLOBAL DEFAULT    4 AcpiHwEnableRuntimeGpeBlock
   446: 00000000402f4770   266 FUNC    GLOBAL DEFAULT    4 _ZN6virtio21register_mmio_devicesEPN2hw14device_managerE
   447: 00000000404813e0    42 FUNC    GLOBAL DEFAULT    4 _ZNSt11logic_errorC2EOS_
   448: 0000000040241640   210 FUNC    WEAK   DEFAULT    4 _ZN5boost2io6detail7str2intIlN9__gnu_cxx17__normal_iteratorIPKcNSt7__cxx1112basic_stringIcSt11char_traitsIcESaIcEEEEESt5ctypeIcEEET0_RKSG_SI_RT_RKT1_
   449: 0000000040374740    13 FUNC    GLOBAL DEFAULT    4 _ZN6memory5stats16on_jvm_heap_freeEm
   450: 00000000407fa908    24 OBJECT  WEAK   DEFAULT   21 _ZTISt8bad_cast
   451: 00000000402ff010   357 FUNC    WEAK   DEFAULT    4 _ZNSt6vectorIPN3osv9cpu_queueILj4096EEESaIS3_EE17_M_realloc_insertIJRKS3_EEEvN9__gnu_cxx17__normal_iteratorIPS3_S5_EEDpOT_
   452: 0000000040461080  1479 FUNC    GLOBAL DEFAULT    4 _ZNSt7__cxx1110moneypunctIwLb1EE24_M_initialize_moneypunctEP15__locale_structPKc
   453: 000000004042b1a0   195 FUNC    GLOBAL DEFAULT    4 __stpncpy
   454: 00000000406668c2     1 OBJECT  UNIQUE DEFAULT    9 _ZNSt7__cxx1117moneypunct_bynameIwLb0EE4intlE
   455: 00000000402d7020   136 FUNC    GLOBAL DEFAULT    4 _ZN3elf6object13lookup_symbolEPKcb
   456: 0000000040302c50  3947 FUNC    WEAK   DEFAULT    4 _ZN3osv7sprintfIJttPKcmEEENSt7__cxx1112basic_stringIcSt11char_traitsIcESaIcEEES2_DpT_
   457: 0000000040507260    33 FUNC    WEAK   DEFAULT    4 _ZNSt7__cxx1112basic_stringIwSt11char_traitsIwESaIwEED2Ev
   458: 000000004049b980   188 FUNC    WEAK   DEFAULT    4 _ZNSt7__cxx1114collate_bynameIcEC2ERKNS_12basic_stringIcSt11char_traitsIcESaIcEEEm
   459: 00000000402fe180   356 FUNC    WEAK   DEFAULT    4 _ZNSt6vectorI5iovecSaIS0_EE17_M_realloc_insertIJS0_EEEvN9__gnu_cxx17__normal_iteratorIPS0_S2_EEDpOT_
   460: 0000000040668e7d     1 OBJECT  GLOBAL DEFAULT    9 _ZNSt14numeric_limitsIfE10is_integerE
   461: 00000000402aab40    81 FUNC    WEAK   DEFAULT    4 _ZNSt17_Function_handlerIFvvEN3osv19rcu_dispose_deleterISt6vectorINS1_13rcu_hashtableIN9arp_cache5entryENS5_10entry_hashEE8next_ptrESaIS9_EEEEE9_M_invokeERKSt9_Any_data
   462: 0000000040531290  1101 FUNC    GLOBAL DEFAULT    4 _ZNSt10filesystem7__cxx1128recursive_directory_iteratorC1ERKNS0_4pathENS_17directory_optionsEPSt10error_code
   463: 000000004025c750  1730 FUNC    GLOBAL DEFAULT    4 soreceive_stream
   464: 000000004061b780    16 OBJECT  UNIQUE DEFAULT    9 _ZZN5boost9function4IbRN9__gnu_cxx17__normal_iteratorIPKcNSt7__cxx1112basic_stringIcSt11char_traitsIcESaIcEEEEERKSB_RNS_6spirit7contextINS_6fusion4consIRSA_NSH_4nil_EEENSH_6vectorIJEEEEERKNSF_2qi10char_classINSF_3tag9char_codeINSS_5spaceENSF_13char_encoding5asciiEEEEEE9assign_toINSQ_6detail13parser_binderINSQ_17no_skip_directiveINSQ_4plusINSQ_11alternativeINSI_INSQ_9referenceINSQ_7symbolsIS3_S3_NSQ_3tstIS3_S3_EENSQ_16tst_pass_throughEEEEENSI_INSQ_10differenceINS1F_INS1F_INS1F_INSR_INST_INSS_5char_ESW_EEEENSQ_12literal_charINSV_8standardELb1ELb0EEEEES1L_EES1L_EES1L_EESK_EEEEEEEEEEN4mpl_5bool_ILb1EEEEEEEvT_E13stored_vtable
   465: 000000004039b730    92 FUNC    WEAK   DEFAULT    4 _ZNSt23_Sp_counted_ptr_inplaceINSt8__detail4_NFAINSt7__cxx1112regex_traitsIcEEEESaIS5_ELN9__gnu_cxx12_Lock_policyE2EE14_M_get_deleterERKSt9type_info
   466: 00000000403ff6c0    25 FUNC    GLOBAL DEFAULT    4 _Z22libc_madvise_to_advisei
   467: 0000000040488a80   174 FUNC    WEAK   DEFAULT    4 _ZStplIwSt11char_traitsIwESaIwEESbIT_T0_T1_ERKS6_S8_
   468: 0000000040348b60   209 FUNC    GLOBAL DEFAULT    4 AcpiUtNamespaceError
   469: 00000000404b68d0   398 FUNC    WEAK   DEFAULT    4 _ZNSt13basic_filebufIwSt11char_traitsIwEEC1Ev
   470: 00000000404edfd0     9 FUNC    WEAK   DEFAULT    4 _ZNKSt15basic_streambufIcSt11char_traitsIcEE5ebackEv
   471: 00000000407fbc10    24 OBJECT  WEAK   DEFAULT   21 _ZTISt18__moneypunct_cacheIwLb0EE
   472: 00000000402a4fe0  3014 FUNC    GLOBAL DEFAULT    4 syncache_expand
   473: 0000000040255e30    78 FUNC    GLOBAL DEFAULT    4 sbunlock
   474: 00000000402cbd50    99 FUNC    WEAK   DEFAULT    4 _ZNSt11_Deque_baseIN3mmu15dirty_page_sync3elmESaIS2_EED2Ev
   475: 00000000403dca60   335 FUNC    GLOBAL DEFAULT    4 read_partition_table
   476: 000000004029d610   312 FUNC    WEAK   DEFAULT    4 _ZN3osv13rcu_hashtableI9epoll_ptrSt4hashIS1_EED1Ev
   477: 000000004049b480   190 FUNC    WEAK   DEFAULT    4 _ZNSt7__cxx118messagesIcEC2EP15__locale_structPKcm
   478: 00000000409852b0    24 OBJECT  GLOBAL DEFAULT   52 _ZN3osv14search_domainsB5cxx11E
   479: 00000000403b7c20  1091 FUNC    GLOBAL DEFAULT    4 _ZN4dhcp20dhcp_interface_state7releaseEv
   480: 0000000040406cd0    22 FUNC    GLOBAL DEFAULT    4 iscntrl
   481: 000000004093db80    88 OBJECT  GLOBAL DEFAULT   52 _ZN3mmu13tlb_flush_ipiE
   482: 00000000404b6480   301 FUNC    WEAK   DEFAULT    4 _ZNSt13basic_fstreamIcSt11char_traitsIcEEC2EOS2_
   483: 00000000404a07a0    23 FUNC    WEAK   DEFAULT    4 _ZNSt7__cxx118time_getIwSt19istreambuf_iteratorIwSt11char_traitsIwEEED1Ev
   484: 00000000409898e0    32 OBJECT  UNIQUE DEFAULT   52 _ZN9__gnu_cxx16bitmap_allocatorIcE15_S_last_requestE
   485: 0000000040326260    57 FUNC    WEAK   DEFAULT    4 _Z13do_sse_memcpyILj6E14load_unaligned15store_unalignedEvPvPKv
   486: 0000000040407ae0    23 FUNC    WEAK   DEFAULT    4 alphasort64
   487: 0000000040484e10    46 FUNC    WEAK   DEFAULT    4 _ZNSspLEPKc
   488: 00000000403d2f70    10 FUNC    GLOBAL DEFAULT    4 getdtablesize
   489: 00000000403cc770   426 FUNC    GLOBAL DEFAULT    4 pwritev
   490: 000000004080bb80    48 OBJECT  GLOBAL DEFAULT   22 ext_vfsops
   491: 000000004032b530   482 FUNC    WEAK   DEFAULT    4 _Z13do_sse_memcpyILj33E12load_aligned13store_alignedEvPvPKv
   492: 00000000404bc140    67 FUNC    WEAK   DEFAULT    4 _ZNSt13basic_fstreamIwSt11char_traitsIwEE4openEPKcSt13_Ios_Openmode
   493: 00000000405f9b58    64 OBJECT  WEAK   DEFAULT    9 _ZTV5clock
   494: 0000000040476d30   161 FUNC    WEAK   DEFAULT    4 _ZNSt15basic_stringbufIcSt11char_traitsIcESaIcEED2Ev
   495: 0000000040369000    23 FUNC    GLOBAL DEFAULT    4 _ZNK8lockfree5mutex5ownedEv
   496: 0000000040537ab0   498 FUNC    WEAK   DEFAULT    4 _ZNSt5dequeINSt10filesystem7__cxx114pathESaIS2_EE12emplace_backIJS2_EEERS2_DpOT_
   497: 000000004042c820    93 FUNC    GLOBAL DEFAULT    4 wcsncat
   498: 000000004030fce0    59 FUNC    GLOBAL DEFAULT    4 _ZN4ahci4port8get_slotERh
   499: 000000004052ede0    25 FUNC    WEAK   DEFAULT    4 _ZNKSt12__shared_ptrINSt10filesystem7__cxx114_DirELN9__gnu_cxx12_Lock_policyE2EE6uniqueEv
   500: 00000000404f5da0    10 FUNC    WEAK   DEFAULT    4 _ZNKSt8messagesIwE5closeEi
   501: 000000004027dd00    16 FUNC    GLOBAL DEFAULT    4 if_addr_rlock
   502: 00000000402f2fe0    13 FUNC    WEAK   DEFAULT    4 _ZN6virtio24virtio_legacy_pci_device11get_type_idEv
   503: 00000000402fd510    16 FUNC    WEAK   DEFAULT    4 _ZN13pci_interruptD2Ev
   504: 00000000402f1cd0   138 FUNC    GLOBAL DEFAULT    4 _ZN6virtio24virtio_legacy_pci_device11setup_queueEPNS_5vringE
   505: 00000000404ca990    87 FUNC    WEAK   DEFAULT    4 _ZNSt10moneypunctIcLb0EEC1Em
   506: 00000000403d9c50   510 FUNC    GLOBAL DEFAULT    4 sys_futimens
   507: 00000000404506b0    45 FUNC    WEAK   DEFAULT    4 _ZN9__gnu_cxx8__detail13__mini_vectorISt4pairIPNS_16bitmap_allocatorIwE12_Alloc_blockES6_EE9push_backERKS7_
   508: 000000004042b270   140 FUNC    GLOBAL DEFAULT    4 strcasecmp
   509: 0000000040350300    73 FUNC    GLOBAL DEFAULT    4 AcpiExOpcode_1A_1T_0R
   510: 00000000405feb70    23 OBJECT  WEAK   DEFAULT    9 _ZTSN6virtio11mmio_deviceE
   511: 0000000040916240    40 OBJECT  GLOBAL DEFAULT   52 rawcb_mtx
   512: 0000000040669660    59 OBJECT  WEAK   DEFAULT    9 _ZTSSt8time_putIcSt19ostreambuf_iteratorIcSt11char_traitsIcEEE
   513: 000000004035f400   349 FUNC    GLOBAL DEFAULT    4 AcpiNsCheckParameterCount
   514: 000000004051f050  1717 FUNC    GLOBAL DEFAULT    4 _ZNKSt10filesystem4path18lexically_relativeERKS0_
   515: 000000004034a0a0   183 FUNC    GLOBAL DEFAULT    4 AcpiHwLegacyWakePrep
   516: 00000000403182f0    11 FUNC    WEAK   DEFAULT    4 _ZN5boost2io6detail13call_put_lastIcSt11char_traitsIcEKiEEvRSt13basic_ostreamIT_T0_EPKv
   517: 0000000040393880   524 FUNC    GLOBAL DEFAULT    4 _ZN5sched6thread5unpinEv
   518: 0000000040606b20    68 OBJECT  WEAK   DEFAULT    9 _ZTSN3osv19rcu_dispose_deleterIN26interrupt_descriptor_table7handlerEEE
   519: 00000000404f5bd0    30 FUNC    WEAK   DEFAULT    4 _ZNSt15time_get_bynameIwSt19istreambuf_iteratorIwSt11char_traitsIwEEEC1ERKSsm
   520: 0000000040669046     1 OBJECT  GLOBAL DEFAULT    9 _ZNSt14numeric_limitsIiE12has_infinityE
   521: 0000000040807290    24 OBJECT  GLOBAL DEFAULT   22 lo_cloner_data
   522: 0000000040429e80    15 FUNC    GLOBAL DEFAULT    4 imaxabs
   523: 0000000040601920   108 OBJECT  WEAK   DEFAULT    9 _ZTSSt5_BindIFM14dynamic_percpuISt10unique_ptrIN3osv9cpu_queueILj4096EEESt14default_deleteIS4_EELm8EEFvvEPS8_EE
   524: 00000000403e0750    89 FUNC    WEAK   DEFAULT    4 _ZNSt10unique_ptrIvSt8functionIFvPvEEED1Ev
   525: 000000004054be80   427 FUNC    WEAK   DEFAULT    4 _ZNSt7__cxx1119basic_istringstreamIcSt11char_traitsIcESaIcEEC2EONS_12basic_stringIcS2_S3_EESt13_Ios_Openmode
   526: 000000004042cf80    29 FUNC    GLOBAL DEFAULT    4 wmemset
   527: 0000000040468700    46 FUNC    GLOBAL DEFAULT    4 _ZNSt10ostrstreamD0Ev
   528: 0000000040603160    20 OBJECT  WEAK   DEFAULT    9 _ZTSN9randomdev6hw_rngE
   529: 00000000404e46d0   158 FUNC    WEAK   DEFAULT    4 _ZNSt7__cxx1118basic_stringstreamIwSt11char_traitsIwESaIwEED1Ev
   530: 00000000403dcdb0   137 FUNC    GLOBAL DEFAULT    4 device_read
   531: 00000000403f0f80   120 FUNC    GLOBAL DEFAULT    4 random_r
   532: 0000000040306c30    35 FUNC    GLOBAL DEFAULT    4 _ZN3vmw7vmxnet317enable_interruptsEv
   533: 00000000404eee60   252 FUNC    WEAK   DEFAULT    4 _ZNSt7__cxx1112basic_stringIcSt11char_traitsIcESaIcEE9_M_assignERKS4_
   534: 000000004041a740   835 FUNC    GLOBAL DEFAULT    4 sincosf
   535: 0000000040525a40    40 FUNC    WEAK   DEFAULT    4 _ZSt20__replacement_assertPKciS0_S0_
   536: 00000000404b9760   349 FUNC    WEAK   DEFAULT    4 _ZNSt13basic_fstreamIcSt11char_traitsIcEEC2ERKNSt7__cxx1112basic_stringIcS1_SaIcEEESt13_Ios_Openmode
   537: 0000000040313890    53 FUNC    GLOBAL DEFAULT    4 _ZN3vmw6pvscsi11dump_configEv
   538: 0000000040334c90    11 FUNC    WEAK   DEFAULT    4 _Z13do_short_copyILj2EEvPvPKv
   539: 000000004050f310   219 FUNC    GLOBAL DEFAULT    4 _ZNSt10filesystem16create_directoryERKNS_4pathES2_RSt10error_code
   540: 0000000040367800    92 FUNC    GLOBAL DEFAULT    4 _ZN3xen9irq_setupEP9interrupt
   541: 00000000403788a0   237 FUNC    GLOBAL DEFAULT    4 realloc
   542: 000000004066a0a0    36 OBJECT  WEAK   DEFAULT    9 _ZTSSt14codecvt_bynameIwc11__mbstate_tE
   543: 00000000405169a0  5649 FUNC    GLOBAL DEFAULT    4 _ZNSt10filesystem9canonicalERKNS_4pathERSt10error_code
   544: 000000004030bb20   556 FUNC    GLOBAL DEFAULT    4 _ZN8kvmclockC2Ev
   545: 0000000040326070    56 FUNC    WEAK   DEFAULT    4 _Z15do_small_memcpyILm59EEPvS0_PKv
   546: 000000004061e200    70 OBJECT  WEAK   DEFAULT    9 _ZTSNSt8__detail11_AnyMatcherINSt7__cxx1112regex_traitsIcEELb0ELb1ELb1EEE
   547: 00000000403450a0   124 FUNC    GLOBAL DEFAULT    4 AcpiGetSystemInfo
   548: 000000004023cbf0    10 FUNC    WEAK   DEFAULT    4 _ZNSt16_Sp_counted_baseILN9__gnu_cxx12_Lock_policyE2EE10_M_destroyEv
   549: 00000000404b6810    13 FUNC    WEAK   DEFAULT    4 _ZNSt13basic_fstreamIcSt11char_traitsIcEE7is_openEv
   550: 00000000404f5370   248 FUNC    WEAK   DEFAULT    4 _ZNSt15numpunct_bynameIwEC2ERKSsm
   551: 000000004042c2a0     0 FUNC    GLOBAL DEFAULT    4 __strtok_r
   552: 00000000402686a0     5 FUNC    GLOBAL DEFAULT    4 mtx_destroy
   553: 00000000402f39d0    32 FUNC    GLOBAL DEFAULT    4 _ZNK6virtio5vring23used_ring_is_half_emptyEv
   554: 000000004042d990    83 FUNC    GLOBAL DEFAULT    4 __gmtime_r
   555: 000000004061ab0b     3 OBJECT  UNIQUE DEFAULT    9 _ZN16signature_helperIJiPKvEE3sigE
   556: 0000000040914450     8 OBJECT  UNIQUE DEFAULT   52 _ZGVZN5boost6system16generic_categoryEvE25generic_category_instance
   557: 00000000403242b0   357 FUNC    WEAK   DEFAULT    4 _ZNSt6vectorIP11msix_vectorSaIS1_EE17_M_realloc_insertIJS1_EEEvN9__gnu_cxx17__normal_iteratorIPS1_S3_EEDpOT_
   558: 00000000403798a0    68 FUNC    WEAK   DEFAULT    4 _ZN5boost10wrapexceptISt13runtime_errorED1Ev
   559: 00000000403bd520   539 FUNC    GLOBAL DEFAULT    4 _ZN5async10timer_taskD1Ev
   560: 0000000040604200   193 OBJECT  WEAK   DEFAULT    9 _ZTSSt5_BindIFM14dynamic_percpuIN3osv7xmitterIN3vmw15vmxnet3_txqueueELj4096ESt8functionIFbvEEN5boost9iterators24function_output_iteratorINS1_15xmitter_functorIS4_EEEEE11worker_infoELm8EEFvvEPSG_EE
   561: 00000000404becb0   108 FUNC    WEAK   DEFAULT    4 _ZNSt10unique_ptrINSt13__future_base13_State_baseV211_Make_readyESt14default_deleteIS2_EED2Ev
   562: 0000000040350350  1440 FUNC    GLOBAL DEFAULT    4 AcpiExOpcode_1A_1T_1R
   563: 0000000040483bd0    27 FUNC    WEAK   DEFAULT    4 _ZNSsC1EmcRKSaIcE
   564: 00000000403256c0   135 FUNC    GLOBAL DEFAULT    4 _Z19memcpy_find_decoderP15exception_frame
   565: 00000000404c92a0    23 FUNC    WEAK   DEFAULT    4 _ZNSt17__timepunct_cacheIcED1Ev
   566: 000000004042c760   171 FUNC    GLOBAL DEFAULT    4 wcsncasecmp
   567: 00000000404861b0    25 FUNC    WEAK   DEFAULT    4 _ZNSbIwSt11char_traitsIwESaIwEEC1EOS2_
   568: 000000004030c290   130 FUNC    GLOBAL DEFAULT    4 AcpiOsSignalSemaphore
   569: 000000004044ed70   129 FUNC    GLOBAL DEFAULT    4 __cxa_vec_dtor
   570: 00000000402784a0   299 FUNC    GLOBAL DEFAULT    4 _Z14rt_missmsg_fibiP11rt_addrinfoiii
   571: 0000000040325da0    45 FUNC    WEAK   DEFAULT    4 _Z15do_small_memcpyILm45EEPvS0_PKv
   572: 00000000404c8120    97 FUNC    WEAK   DEFAULT    4 _ZStrsIwSt11char_traitsIwEERSt13basic_istreamIT_T0_ES6_St8_SetfillIS3_E
   573: 00000000404e51b0   226 FUNC    WEAK   DEFAULT    4 _ZNSt7__cxx1115basic_stringbufIcSt11char_traitsIcESaIcEE7seekposESt4fposI11__mbstate_tESt13_Ios_Openmode
   574: 00000000404f5d10    10 FUNC    WEAK   DEFAULT    4 _ZNKSt8messagesIwE4openERKSsRKSt6locale
   575: 0000000040482350    25 FUNC    GLOBAL DEFAULT    4 _ZGTtNSt12length_errorD2Ev
   576: 00000000402d7b60    16 FUNC    GLOBAL DEFAULT    4 _ZN3elf6object7is_coreEv
   577: 00000000402caf70     5 FUNC    WEAK   DEFAULT    4 _ZN4file12poll_installER7pollreq
   578: 0000000040914410     8 OBJECT  UNIQUE DEFAULT   52 _ZGVZN5boost6system6detail15to_std_categoryERKNS0_14error_categoryEE16generic_instance
   579: 0000000040466050   105 FUNC    GLOBAL DEFAULT    4 _ZNSt7__cxx118numpunctIcED2Ev
   580: 000000004048bb30   217 FUNC    WEAK   DEFAULT    4 _ZNKSt7__cxx118numpunctIcE11do_groupingEv
   581: 00000000406691d0     4 OBJECT  GLOBAL DEFAULT    9 _ZNSt14numeric_limitsIcE6digitsE
   582: 0000000040334e50    69 FUNC    WEAK   DEFAULT    4 _Z14unaligned_copyILj4ELj0EEvPvPKvm
   583: 000000004093cc40     4 OBJECT  GLOBAL DEFAULT   52 _ZN3vmw7vmxnet39_instanceE
   584: 0000000040519f90   695 FUNC    WEAK   DEFAULT    4 _ZNSt12system_errorC2ESt10error_codeRKSs
   585: 0000000040666720    70 OBJECT  WEAK   DEFAULT    9 _ZTSNSt7__cxx119money_getIwSt19istreambuf_iteratorIwSt11char_traitsIwEEEE
   586: 00000000404fdc90  2722 FUNC    WEAK   DEFAULT    4 _ZNKSt7num_getIwSt19istreambuf_iteratorIwSt11char_traitsIwEEE14_M_extract_intItEES3_S3_S3_RSt8ios_baseRSt12_Ios_IostateRT_
   587: 000000004044dd30    53 FUNC    GLOBAL DEFAULT    4 _ZSt15_Fnv_hash_bytesPKvmm
   588: 000000004038eea0   118 FUNC    GLOBAL DEFAULT    4 _ZN5sched10timer_baseD2Ev
   589: 000000004054c920   278 FUNC    WEAK   DEFAULT    4 _ZNSt7__cxx1115basic_stringbufIwSt11char_traitsIwESaIwEEC1EONS_12basic_stringIwS2_S3_EESt13_Ios_Openmode
   590: 00000000402ab370   142 FUNC    GLOBAL DEFAULT    4 _Z8ipi_pcpuji
   591: 0000000040669174     4 OBJECT  GLOBAL DEFAULT    9 _ZNSt14numeric_limitsIaE14max_exponent10E
   592: 0000000040256210    83 FUNC    GLOBAL DEFAULT    4 socantrcvmore
   593: 00000000403aa370  1299 FUNC    WEAK   DEFAULT    4 _ZNSt8__detail9_CompilerINSt7__cxx1112regex_traitsIcEEE25_M_insert_bracket_matcherILb1ELb0EEEvb
   594: 00000000405328e0    78 FUNC    GLOBAL DEFAULT    4 _ZNSt10filesystem14create_symlinkERKNS_7__cxx114pathES3_RSt10error_code
   595: 000000004038e950    55 FUNC    GLOBAL DEFAULT    4 _ZN5sched10timer_baseC2ERNS0_6clientE
   596: 00000000402e13a0     5 FUNC    WEAK   DEFAULT    4 _ZNSt23_Sp_counted_ptr_inplaceIN3elf12memory_imageESaIS1_ELN9__gnu_cxx12_Lock_policyE2EED1Ev
   597: 0000000040475300   728 FUNC    WEAK   DEFAULT    4 _ZNSt13__facet_shims14__messages_getIwEEvSt17integral_constantIbLb0EEPKNSt6locale5facetERNS_12__any_stringEiiiPKT_m
   598: 000000004061e368    16 OBJECT  WEAK   DEFAULT    9 _ZTINSt8__detail11_AnyMatcherINSt7__cxx1112regex_traitsIcEELb1ELb1ELb0EEE
   599: 00000000406697ce     1 OBJECT  UNIQUE DEFAULT    9 _ZNSt17moneypunct_bynameIcLb0EE4intlE
   600: 00000000406127e1     4 OBJECT  UNIQUE DEFAULT    9 _ZN16signature_helperIJPvmmEE3sigE
   601: 0000000040325b50    44 FUNC    WEAK   DEFAULT    4 _Z15do_small_memcpyILm31EEPvS0_PKv
   602: 0000000040663235     4 OBJECT  WEAK   DEFAULT    9 _ZTSPKa
   603: 000000004033e100   225 FUNC    WEAK   DEFAULT    4 _Z14unaligned_copyILj9ELj5EEvPvPKvm
   604: 0000000040914f70     8 OBJECT  GLOBAL DEFAULT   52 aio_swake
   605: 00000000403cef80   458 FUNC    GLOBAL DEFAULT    4 getcwd
   606: 00000000406631f6     4 OBJECT  WEAK   DEFAULT    9 _ZTSPKb
   607: 0000000040665ca0    32 OBJECT  WEAK   DEFAULT    9 _ZTSNSt7__cxx1114collate_bynameIcEE
   608: 00000000404f0460    71 FUNC    WEAK   DEFAULT    4 _ZNSt7__cxx1112basic_stringIcSt11char_traitsIcESaIcEE7replaceEN9__gnu_cxx17__normal_iteratorIPKcS4_EES9_S8_m
   609: 00000000405e9c1c     4 OBJECT  UNIQUE DEFAULT    9 _ZN16signature_helperIJPviiEE3sigE
   610: 000000004066322c     4 OBJECT  WEAK   DEFAULT    9 _ZTSPKc
   611: 00000000404b17c0    14 FUNC    GLOBAL DEFAULT    4 _ZNK11__gnu_debug19_Safe_iterator_base14_M_can_compareERKS0_
   612: 0000000040663298     4 OBJECT  WEAK   DEFAULT    9 _ZTSPKd
   613: 00000000406632a1     4 OBJECT  WEAK   DEFAULT    9 _ZTSPKe
   614: 00000000402c4ba0    35 FUNC    GLOBAL DEFAULT    4 _ZN3mmu12pte_mark_cowENS_10pt_elementILi0EEEb
   615: 000000004066328f     4 OBJECT  WEAK   DEFAULT    9 _ZTSPKf
   616: 0000000040339880   253 FUNC    WEAK   DEFAULT    4 _Z14unaligned_copyILj10ELj5EEvPvPKvm
   617: 0000000040466d10   150 FUNC    GLOBAL DEFAULT    4 _ZNSt8numpunctIwED2Ev
   618: 00000000406632ec     4 OBJECT  WEAK   DEFAULT    9 _ZTSPKg
   619: 00000000404de620   138 FUNC    WEAK   DEFAULT    4 _ZStlsIcSt11char_traitsIcEERSt13basic_ostreamIT_T0_ES6_St8_SetfillIS3_E
   620: 000000004066323e     4 OBJECT  WEAK   DEFAULT    9 _ZTSPKh
   621: 0000000040663259     4 OBJECT  WEAK   DEFAULT    9 _ZTSPKi
   622: 00000000404de6f0    60 FUNC    WEAK   DEFAULT    4 _ZStlsIcSt11char_traitsIcEERSt13basic_ostreamIT_T0_ES6_St8_Setbase
   623: 0000000040663262     4 OBJECT  WEAK   DEFAULT    9 _ZTSPKj
   624: 00000000402bb4f0   155 FUNC    GLOBAL DEFAULT    4 ena_com_mmio_reg_read_request_init
   625: 00000000404a6bc0    13 FUNC    WEAK   DEFAULT    4 _ZNKSt7__cxx119money_putIwSt19ostreambuf_iteratorIwSt11char_traitsIwEEE3putES4_bRSt8ios_basewRKNS_12basic_stringIwS3_SaIwEEE
   626: 000000004039faa0   147 FUNC    WEAK   DEFAULT    4 _ZNSt8__detail15_BracketMatcherINSt7__cxx1112regex_traitsIcEELb1ELb0EED2Ev
   627: 0000000040355740    82 FUNC    GLOBAL DEFAULT    4 AcpiPsInitScope
   628: 000000004066326b     4 OBJECT  WEAK   DEFAULT    9 _ZTSPKl
   629: 0000000040663274     4 OBJECT  WEAK   DEFAULT    9 _ZTSPKm
   630: 000000004036cfe0    32 FUNC    GLOBAL DEFAULT    4 _ZN3osv3rcu26cpu_quiescent_state_thread7requestEm
   631: 00000000406632da     4 OBJECT  WEAK   DEFAULT    9 _ZTSPKn
   632: 00000000404f45b0    34 FUNC    WEAK   DEFAULT    4 _ZNKSt10moneypunctIwLb0EE10neg_formatEv
   633: 00000000404b6f00    92 FUNC    WEAK   DEFAULT    4 _ZNSt13basic_filebufIwSt11char_traitsIwEE27_M_allocate_internal_bufferEv
   634: 00000000404c02e0   144 FUNC    WEAK   DEFAULT    4 _ZNSt9basic_iosIwSt11char_traitsIwEE15_M_cache_localeERKSt6locale
   635: 000000004023dd40    76 FUNC    WEAK   DEFAULT    4 _ZN5boost10wrapexceptINS_17bad_function_callEED2Ev
   636: 00000000406632e3     4 OBJECT  WEAK   DEFAULT    9 _ZTSPKo
   637: 0000000040450290     8 FUNC    WEAK   DEFAULT    4 _ZNK9__gnu_cxx8__detail13__mini_vectorISt4pairIPNS_16bitmap_allocatorIcE12_Alloc_blockES6_EE5beginEv
   638: 00000000402bb960  1608 FUNC    GLOBAL DEFAULT    4 ena_com_create_io_queue
   639: 00000000404aae30    83 FUNC    WEAK   DEFAULT    4 _ZNSt7__cxx1110moneypunctIwLb1EEC1EPSt18__moneypunct_cacheIwLb1EEm
   640: 0000000040989920    24 OBJECT  UNIQUE DEFAULT   52 _ZZN9__gnu_cxx9free_list16_M_get_free_listEvE12_S_free_list
   641: 00000000402610e0    66 FUNC    GLOBAL DEFAULT    4 recvfrom
   642: 0000000040951940   312 OBJECT  GLOBAL DEFAULT   52 _ZN6memory12malloc_poolsE
   643: 00000000402dd6e0   745 FUNC    GLOBAL DEFAULT    4 _ZN3elf7program18initialize_libvdsoEv
   644: 0000000040663247     4 OBJECT  WEAK   DEFAULT    9 _ZTSPKs
   645: 0000000040663250     4 OBJECT  WEAK   DEFAULT    9 _ZTSPKt
   646: 00000000404b2d20    72 FUNC    WEAK   DEFAULT    4 _ZN9__gnu_cxx18stdio_sync_filebufIcSt11char_traitsIcEEC2EOS3_
   647: 0000000040497070    10 FUNC    WEAK   DEFAULT    4 _ZNKSt7__cxx118time_getIcSt19istreambuf_iteratorIcSt11char_traitsIcEEE8get_yearES4_S4_RSt8ios_baseRSt12_Ios_IostateP2tm
   648: 0000000040474fd0   260 FUNC    WEAK   DEFAULT    4 _ZNSt13__facet_shims15__messages_openIwEEiSt17integral_constantIbLb0EEPKNSt6locale5facetEPKcmRKS3_
   649: 00000000406631ed     4 OBJECT  WEAK   DEFAULT    9 _ZTSPKv
   650: 0000000040267310     5 FUNC    WEAK   DEFAULT    4 _ZN5boost2io6detail13call_put_headIcSt11char_traitsIcEKP17eventhandler_listEEvRSt13basic_ostreamIT_T0_EPKv
   651: 00000000406631ff     4 OBJECT  WEAK   DEFAULT    9 _ZTSPKw
   652: 000000004033ac80   144 FUNC    WEAK   DEFAULT    4 _Z14unaligned_copyILj6ELj10EEvPvPKvm
   653: 00000000404ee7e0     9 FUNC    WEAK   DEFAULT    4 _ZNKSt15basic_streambufIwSt11char_traitsIwEE4pptrEv
   654: 00000000404b6a60   490 FUNC    WEAK   DEFAULT    4 _ZNSt13basic_filebufIwSt11char_traitsIwEEC1EOS2_
   655: 0000000040348a90   197 FUNC    GLOBAL DEFAULT    4 AcpiUtPredefinedInfo
   656: 000000004066327d     4 OBJECT  WEAK   DEFAULT    9 _ZTSPKx
   657: 0000000040663286     4 OBJECT  WEAK   DEFAULT    9 _ZTSPKy
   658: 00000000402fcba0  2075 FUNC    GLOBAL DEFAULT    4 _ZN6virtio3netC2ERNS_13virtio_deviceE
   659: 00000000404b3070     9 FUNC    WEAK   DEFAULT    4 _ZN9__gnu_cxx13stdio_filebufIwSt11char_traitsIwEE4swapERS3_
   660: 0000000040510670   106 FUNC    GLOBAL DEFAULT    4 _ZNSt10filesystem6removeERKNS_4pathE
   661: 0000000040248f40   127 FUNC    GLOBAL DEFAULT    4 initgroups
   662: 0000000040311b50   236 FUNC    GLOBAL DEFAULT    4 _ZN4ahci3hbaC1ERN3pci6deviceE
   663: 0000000040379a80    41 FUNC    WEAK   DEFAULT    4 _ZN11worker_itemD1Ev
   664: 000000004098a7c0   272 OBJECT  GLOBAL DEFAULT   52 _ZSt4cerr
   665: 00000000402407b0   916 FUNC    WEAK   DEFAULT    4 _ZN5boost6system6detail15to_std_categoryERKNS0_14error_categoryE
   666: 00000000403bb110    37 FUNC    GLOBAL DEFAULT    4 _ZN15boot_time_chart5eventEiPKc
   667: 000000004030ded0    42 FUNC    WEAK   DEFAULT    4 _ZN5boost7numeric17positive_overflowD0Ev
   668: 00000000402b8a40    27 FUNC    GLOBAL DEFAULT    4 _ZN24blkfront_head_descr_base9configureEmhmth
   669: 000000004035b640   129 FUNC    GLOBAL DEFAULT    4 AcpiEvInstallRegionHandlers
   670: 000000004080af80    48 OBJECT  GLOBAL DEFAULT   22 devfs_vfsops
   671: 00000000403bbce0   358 FUNC    GLOBAL DEFAULT    4 _ZN11net_channel9add_epollERK9epoll_ptr
   672: 00000000404c1da0   254 FUNC    WEAK   DEFAULT    4 _ZNSt14basic_iostreamIwSt11char_traitsIwEEC1Ev
   673: 0000000040450780    12 FUNC    WEAK   DEFAULT    4 _ZN9__gnu_cxx8__detail13__mini_vectorIPmE10deallocateEPS2_m
   674: 0000000040668dc4     4 OBJECT  GLOBAL DEFAULT    9 _ZNSt14numeric_limitsIDuE5radixE
   675: 000000004038c500     5 FUNC    GLOBAL DEFAULT    4 _ZN5sched3cpu11timer_firedEv
   676: 0000000040488920     8 FUNC    WEAK   DEFAULT    4 _ZNSbIwSt11char_traitsIwESaIwEE12_Alloc_hiderC1EPwRKS1_
   677: 0000000040668ff8     4 OBJECT  GLOBAL DEFAULT    9 _ZNSt14numeric_limitsIjE11round_styleE
   678: 0000000040916220     8 OBJECT  GLOBAL DEFAULT   52 rawcb_list
   679: 00000000404bccf0   346 FUNC    WEAK   DEFAULT    4 _ZNSt14basic_ofstreamIwSt11char_traitsIwEEC1EPKcSt13_Ios_Openmode
   680: 0000000040603198    56 OBJECT  WEAK   DEFAULT    9 _ZTIN6virtio3rngE
   681: 00000000402c9dc0   878 FUNC    GLOBAL DEFAULT    4 _ZN3mmu8file_vma4syncEmm
   682: 000000004044eff0    23 FUNC    GLOBAL DEFAULT    4 _ZN10__cxxabiv121__vmi_class_type_infoD1Ev
   683: 0000000040507a60    50 FUNC    WEAK   DEFAULT    4 _ZNSt7__cxx1112basic_stringIwSt11char_traitsIwESaIwEE5eraseEN9__gnu_cxx17__normal_iteratorIPKwS4_EE
   684: 0000000040355520    87 FUNC    GLOBAL DEFAULT    4 AcpiPsGetArg
   685: 000000004046c970    23 FUNC    GLOBAL DEFAULT    4 _ZNSt25__codecvt_utf8_utf16_baseIwED2Ev
   686: 000000004046f3e0    21 FUNC    GLOBAL DEFAULT    4 _ZNSt18condition_variable4waitERSt11unique_lockISt5mutexE
   687: 00000000404eea80     9 FUNC    WEAK   DEFAULT    4 _ZNSt7__cxx1112basic_stringIcSt11char_traitsIcESaIcEE9_M_lengthEm
   688: 000000004045af30    12 FUNC    GLOBAL DEFAULT    4 _ZNSt6locale5facet13_S_get_c_nameEv
   689: 00000000407fe390    88 OBJECT  WEAK   DEFAULT   21 _ZTVNSt7__cxx1115time_get_bynameIcSt19istreambuf_iteratorIcSt11char_traitsIcEEEE
   690: 0000000040410ec0    34 FUNC    GLOBAL DEFAULT    4 finite
   691: 00000000402ea1f0   122 FUNC    GLOBAL DEFAULT    4 _ZN3pci8function17msix_unmask_entryEi
   692: 00000000404c9160    23 FUNC    WEAK   DEFAULT    4 _ZNSt17moneypunct_bynameIcLb0EED2Ev
   693: 00000000404f2950    23 FUNC    WEAK   DEFAULT    4 _ZNSt7num_putIwSt19ostreambuf_iteratorIwSt11char_traitsIwEEED2Ev
   694: 000000004061ac38     4 OBJECT  UNIQUE DEFAULT    9 _ZN16signature_helperIJiiP4statEE3sigE
   695: 00000000402d3360    33 FUNC    WEAK   DEFAULT    4 _ZN5boost13intrusive_ptrI4fileED1Ev
   696: 0000000040407b00   373 FUNC    WEAK   DEFAULT    4 scandir64
   697: 000000004049e850   686 FUNC    WEAK   DEFAULT    4 _ZNSt13__facet_shims23__moneypunct_fill_cacheIwLb0EEEvSt17integral_constantIbLb1EEPKNSt6locale5facetEPSt18__moneypunct_cacheIT_XT0_EE
   698: 0000000040383900   255 FUNC    GLOBAL DEFAULT    4 syscall_wrapper
   699: 000000004054a780   377 FUNC    WEAK   DEFAULT    4 _ZNSt7__cxx1118basic_stringstreamIcSt11char_traitsIcESaIcEEC2ESt13_Ios_OpenmodeRKS3_
   700: 00000000405e28c0   316 OBJECT  UNIQUE DEFAULT    9 _ZZN5boost6system6detail16is_generic_valueEiE3gen
   701: 0000000040621060    73 OBJECT  WEAK   DEFAULT    9 _ZTSSt22_Weak_result_type_implISt8functionIFvRN5async17serial_timer_taskEEEE
   702: 000000004038ed20   383 FUNC    GLOBAL DEFAULT    4 _ZN5sched10timer_base6cancelEv
   703: 000000004024cc90    61 FUNC    GLOBAL DEFAULT    4 SHA256_Init
   704: 00000000404bf920    12 FUNC    WEAK   DEFAULT    4 _ZNSt9basic_iosIcSt11char_traitsIcEE9set_rdbufEPSt15basic_streambufIcS1_E
   705: 0000000040547fe0    27 FUNC    GLOBAL DEFAULT    4 _ZNSt3pmr28unsynchronized_pool_resourceD0Ev
   706: 0000000040377c60   404 FUNC    GLOBAL DEFAULT    4 _ZN6memory9page_pool2l211fill_threadEv
   707: 0000000040402260   113 FUNC    GLOBAL DEFAULT    4 _ZN9pipe_fileC2EOSt10unique_ptrI11pipe_readerSt14default_deleteIS1_EE
   708: 0000000040355df0   295 FUNC    GLOBAL DEFAULT    4 AcpiPsGetNextSimpleArg
   709: 0000000040279ca0   288 FUNC    GLOBAL DEFAULT    4 netisr_setqlimit
   710: 0000000040484410    69 FUNC    WEAK   DEFAULT    4 _ZNSs7replaceEmmmc
   711: 00000000406659f4     2 OBJECT  GLOBAL DEFAULT    9 _ZNSt10ctype_base5alnumE
   712: 00000000404c00e0     8 FUNC    WEAK   DEFAULT    4 _ZNKSt9basic_iosIwSt11char_traitsIwEE10exceptionsEv
   713: 000000004041e0a0   494 FUNC    GLOBAL DEFAULT    4 gethostbyaddr_r
   714: 00000000403f0d60    55 FUNC    GLOBAL DEFAULT    4 srandom
   715: 0000000040629a50    16 OBJECT  WEAK   DEFAULT    9 _ZTIN8pseudofs11pseudo_nodeE
   716: 000000004033fab0    17 FUNC    GLOBAL DEFAULT    4 _ZN6ioapic5writeEjj
   717: 000000004034c150   780 FUNC    GLOBAL DEFAULT    4 AcpiExDoConcatenate
   718: 00000000402ea690   166 FUNC    GLOBAL DEFAULT    4 _ZN2hw14driver_manager8load_allEv
   719: 00000000404055c0    37 FUNC    GLOBAL DEFAULT    4 shmctl
   720: 00000000404cc450    10 FUNC    WEAK   DEFAULT    4 _ZNKSt8time_getIcSt19istreambuf_iteratorIcSt11char_traitsIcEEE13get_monthnameES3_S3_RSt8ios_baseRSt12_Ios_IostateP2tm
   721: 00000000407fd438    80 OBJECT  WEAK   DEFAULT   21 _ZTVSt19basic_ostringstreamIcSt11char_traitsIcESaIcEE
   722: 00000000405f9cb8    48 OBJECT  WEAK   DEFAULT    9 _ZTV18clock_event_driver
   723: 0000000040919b28     8 OBJECT  GLOBAL DEFAULT   52 ip_mrouter
   724: 00000000404f9890   526 FUNC    WEAK   DEFAULT    4 _ZNSt5__padIwSt11char_traitsIwEE6_S_padERSt8ios_basewPwPKwll
   725: 0000000040485f60    22 FUNC    WEAK   DEFAULT    4 _ZNKSbIwSt11char_traitsIwESaIwEE8_M_limitEmm
   726: 00000000408d8308     8 OBJECT  UNIQUE DEFAULT   31 _ZN9__gnu_cxx16bitmap_allocatorIwE13_S_block_sizeE
   727: 0000000040301a00    81 FUNC    GLOBAL DEFAULT    4 _ZN6virtio4scsiD0Ev
   728: 000000004050f100   116 FUNC    GLOBAL DEFAULT    4 _ZNSt10filesystem11resize_fileERKNS_4pathEmRSt10error_code
   729: 00000000405074e0   170 FUNC    WEAK   DEFAULT    4 _ZNSt7__cxx1112basic_stringIwSt11char_traitsIwESaIwEE7reserveEm
   730: 000000004033a0c0   193 FUNC    WEAK   DEFAULT    4 _Z14unaligned_copyILj8ELj11EEvPvPKvm
   731: 0000000040668c58     4 OBJECT  GLOBAL DEFAULT    9 _ZNSt8ios_base6eofbitE
   732: 00000000402cb880    54 FUNC    WEAK   DEFAULT    4 _ZNSt3setIPN3mmu10linear_vmaENS0_18linear_vma_compareESaIS2_EED1Ev
   733: 00000000403e5790     7 FUNC    WEAK   DEFAULT    4 _ZNK8pseudofs16pseudo_file_node4sizeEv
   734: 0000000040914fa8     8 OBJECT  GLOBAL DEFAULT   52 so_gencnt
   735: 000000004054baa0   188 FUNC    WEAK   DEFAULT    4 _ZNOSt7__cxx1119basic_istringstreamIcSt11char_traitsIcESaIcEE3strEv
   736: 0000000040482080   142 FUNC    GLOBAL DEFAULT    4 _ZGTtNSt16invalid_argumentC1EPKc
   737: 0000000040266430    58 FUNC    GLOBAL DEFAULT    4 osv_get_if_mac_addr
   738: 00000000403b7860   122 FUNC    GLOBAL DEFAULT    4 _ZN4dhcp11dhcp_workerC1Ev
   739: 00000000404ede70    10 FUNC    WEAK   DEFAULT    4 _ZNSt15basic_streambufIcSt11char_traitsIcEE5sgetnEPcl
   740: 0000000040605de0    29 OBJECT  WEAK   DEFAULT    9 _ZTSN8xenfront15xenplatform_pciE
   741: 0000000040306120    53 FUNC    GLOBAL DEFAULT    4 _ZN3vmw7vmxnet311dump_configEv
   742: 0000000040438720    27 FUNC    GLOBAL DEFAULT    4 feholdexcept
   743: 00000000403fe540   306 FUNC    GLOBAL DEFAULT    4 getitimer
   744: 0000000040507590   272 FUNC    WEAK   DEFAULT    4 _ZNSt7__cxx1112basic_stringIwSt11char_traitsIwESaIwEE7reserveEv
   745: 00000000404844a0    38 FUNC    WEAK   DEFAULT    4 _ZNSsaSEc
   746: 00000000402a3160   131 FUNC    GLOBAL DEFAULT    4 tcp_drop_syn_sent
   747: 00000000404c1ae0   162 FUNC    WEAK   DEFAULT    4 _ZNSt14basic_iostreamIwSt11char_traitsIwEEC2EPSt15basic_streambufIwS1_E
   748: 00000000403bc4c0   357 FUNC    WEAK   DEFAULT    4 _ZNSt6vectorIP7pollreqSaIS1_EE17_M_realloc_insertIJS1_EEEvN9__gnu_cxx17__normal_iteratorIPS1_S3_EEDpOT_
   749: 00000000404663e0    46 FUNC    GLOBAL DEFAULT    4 _ZNSt7__cxx118numpunctIwED0Ev
   750: 00000000402651e0   174 FUNC    GLOBAL DEFAULT    4 _ZN11socket_file9epoll_delE9epoll_ptr
   751: 000000004050a920    20 FUNC    WEAK   DEFAULT    4 _ZNKSt12__shared_ptrINSt10filesystem4_DirELN9__gnu_cxx12_Lock_policyE2EE9use_countEv
   752: 000000004044dc20    23 FUNC    GLOBAL DEFAULT    4 _ZN9__gnu_cxx20recursive_init_errorD2Ev
   753: 0000000040251190   359 FUNC    GLOBAL DEFAULT    4 m_adj
   754: 00000000402aaba0   312 FUNC    WEAK   DEFAULT    4 _ZN3osv13rcu_hashtableIN9arp_cache5entryENS1_10entry_hashEED2Ev
   755: 00000000404c9300    23 FUNC    WEAK   DEFAULT    4 _ZNSt8time_getIcSt19istreambuf_iteratorIcSt11char_traitsIcEEED2Ev
   756: 000000004031f3b0    25 FUNC    GLOBAL DEFAULT    4 device_not_available
   757: 0000000040261a70    27 FUNC    GLOBAL DEFAULT    4 sbuf_clear
   758: 00000000404f6080    62 FUNC    WEAK   DEFAULT    4 _ZNSt7collateIwEC2EP15__locale_structm
   759: 000000004098c850     8 OBJECT  UNIQUE DEFAULT   52 _ZGVNSt8time_getIcSt19istreambuf_iteratorIcSt11char_traitsIcEEE2idE
   760: 00000000407fdce0    40 OBJECT  WEAK   DEFAULT   21 _ZTISt19__iosfail_type_info
   761: 0000000040669136     1 OBJECT  GLOBAL DEFAULT    9 _ZNSt14numeric_limitsIhE12has_infinityE
   762: 000000004023e500   156 FUNC    WEAK   DEFAULT    4 _ZTv0_n24_N5boost2io22basic_oaltstringstreamIcSt11char_traitsIcESaIcEED0Ev
   763: 0000000040290fe0   435 FUNC    GLOBAL DEFAULT    4 ip_optcopy
   764: 00000000404eed40    43 FUNC    WEAK   DEFAULT    4 _ZNSt7__cxx1112basic_stringIcSt11char_traitsIcESaIcEE9_S_assignEPcmc
   765: 000000004066921b     1 OBJECT  GLOBAL DEFAULT    9 _ZNSt21__numeric_limits_base10is_boundedE
   766: 0000000040417832    36 FUNC    GLOBAL DEFAULT    4 lroundf
   767: 00000000403f05c0    10 FUNC    WEAK   DEFAULT    4 _ZNK5boost4asio2ip16bad_address_cast4whatEv
   768: 00000000404aed00   630 FUNC    WEAK   DEFAULT    4 _ZNKSt7__cxx118time_getIwSt19istreambuf_iteratorIwSt11char_traitsIwEEE3getES4_S4_RSt8ios_baseRSt12_Ios_IostateP2tmcc
   769: 00000000403550b0   132 FUNC    GLOBAL DEFAULT    4 AcpiInstallTableHandler
   770: 000000004040f280   159 FUNC    WEAK   DEFAULT    4 pow10f
   771: 00000000404f28f0     7 FUNC    WEAK   DEFAULT    4 _ZNKSt8time_getIwSt19istreambuf_iteratorIwSt11char_traitsIwEEE13do_date_orderEv
   772: 00000000406690b1     1 OBJECT  GLOBAL DEFAULT    9 _ZNSt14numeric_limitsIsE5trapsE
   773: 00000000408060c8     8 OBJECT  GLOBAL DEFAULT   22 __c_locale_ptr
   774: 000000004093dce0  6192 OBJECT  GLOBAL DEFAULT   52 idt
   775: 00000000404bbfb0    67 FUNC    WEAK   DEFAULT    4 _ZNSt14basic_ifstreamIwSt11char_traitsIwEE4openERKNSt7__cxx1112basic_stringIcS0_IcESaIcEEESt13_Ios_Openmode
   776: 00000000403bb7d0   347 FUNC    GLOBAL DEFAULT    4 _ZN10classifier11post_packetEP4mbuf
   777: 0000000040417856    56 FUNC    GLOBAL DEFAULT    4 lroundl
   778: 00000000404f26d0   256 FUNC    GLOBAL DEFAULT    4 _ZNSt6thread15_M_start_threadESt10shared_ptrINS_10_Impl_baseEE
   779: 00000000404d8e50  4792 FUNC    WEAK   DEFAULT    4 _ZNKSt8time_getIcSt19istreambuf_iteratorIcSt11char_traitsIcEEE21_M_extract_via_formatES3_S3_RSt8ios_baseRSt12_Ios_IostateP2tmPKc
   780: 000000004040f320   203 FUNC    WEAK   DEFAULT    4 pow10l
   781: 00000000406280a8    16 OBJECT  WEAK   DEFAULT    9 _ZTIN3osv19rcu_dispose_deleterI4fileEE
   782: 000000004032c620   512 FUNC    WEAK   DEFAULT    4 _Z13do_sse_memcpyILj35E14load_unaligned15store_unalignedEvPvPKv
   783: 00000000402cafc0     5 FUNC    WEAK   DEFAULT    4 _ZN3mmu18map_file_page_readD1Ev
   784: 00000000404577d0  2068 FUNC    GLOBAL DEFAULT    4 _ZNSt8ios_base4InitC2Ev
   785: 00000000403492c0    70 FUNC    GLOBAL DEFAULT    4 AcpiUtGetReferenceName
   786: 00000000404e5d60   123 FUNC    WEAK   DEFAULT    4 _ZNSt7__cxx1115basic_stringbufIcSt11char_traitsIcESaIcEEC1EOS4_ONS4_14__xfer_bufptrsE
   787: 0000000040491d50    80 FUNC    WEAK   DEFAULT    4 _ZSt9use_facetINSt7__cxx119money_getIcSt19istreambuf_iteratorIcSt11char_traitsIcEEEEERKT_RKSt6locale
   788: 0000000040251810  1065 FUNC    GLOBAL DEFAULT    4 m_split
   789: 00000000404e1ca0   500 FUNC    WEAK   DEFAULT    4 _ZNSt13basic_ostreamIwSt11char_traitsIwEE9_M_insertIbEERS2_T_
   790: 000000004098c740     8 OBJECT  UNIQUE DEFAULT   52 _ZGVNSt7__cxx118time_getIcSt19istreambuf_iteratorIcSt11char_traitsIcEEE2idE
   791: 00000000405074b0    15 FUNC    WEAK   DEFAULT    4 _ZNKSt7__cxx1112basic_stringIwSt11char_traitsIwESaIwEE8max_sizeEv
   792: 00000000403a17e0   130 FUNC    WEAK   DEFAULT    4 _ZNSt8__detail9_CompilerINSt7__cxx1112regex_traitsIcEEE16_M_cur_int_valueEi
   793: 0000000040273750    21 FUNC    GLOBAL DEFAULT    4 _Z11rn_initheadPPvi
   794: 000000004024d2f0   639 FUNC    GLOBAL DEFAULT    4 SHA512_Update
   795: 00000000404c9620    79 FUNC    WEAK   DEFAULT    4 _ZNSt8messagesIcED2Ev
   796: 0000000040613280     8 OBJECT  GLOBAL DEFAULT    9 _ZN6memory4pool15min_object_sizeE
   797: 00000000407fc320   120 OBJECT  WEAK   DEFAULT   21 _ZTVSt9strstream
   798: 00000000404c90e0    12 FUNC    WEAK   DEFAULT    4 _ZNKSt10moneypunctIcLb0EE14do_frac_digitsEv
   799: 00000000403bc380    56 FUNC    WEAK   DEFAULT    4 _ZNSt17_Function_handlerIFvvEN3osv19rcu_dispose_deleterISt6vectorIP7pollreqSaIS5_EEEEE10_M_managerERSt9_Any_dataRKSA_St18_Manager_operation
   800: 00000000404f1cb0    83 FUNC    WEAK   DEFAULT    4 _ZNKSt7__cxx1112basic_stringIcSt11char_traitsIcESaIcEE6substrEmm
   801: 0000000040326400    39 FUNC    WEAK   DEFAULT    4 _Z13do_sse_memcpyILj4E12load_aligned13store_alignedEvPvPKv
   802: 0000000040406d80    16 FUNC    WEAK   DEFAULT    4 isprint_l
   803: 0000000040613388    16 OBJECT  WEAK   DEFAULT    9 _ZTIZN6memory9page_pool2l2C4EvEUlvE_
   804: 0000000040406e80    38 FUNC    WEAK   DEFAULT    4 iswalnum_l
   805: 000000004046eb80    33 FUNC    GLOBAL DEFAULT    4 _ZNKSt25__codecvt_utf8_utf16_baseIDiE9do_lengthER11__mbstate_tPKcS4_m
   806: 00000000404e77c0   338 FUNC    WEAK   DEFAULT    4 _ZNSt7__cxx1119basic_ostringstreamIcSt11char_traitsIcESaIcEEC1ESt13_Ios_Openmode
   807: 00000000404bc0f0    67 FUNC    WEAK   DEFAULT    4 _ZNSt14basic_ofstreamIwSt11char_traitsIwEE4openEPKcSt13_Ios_Openmode
   808: 00000000402c6ff0  2933 FUNC    GLOBAL DEFAULT    4 _ZN3mmu11procfs_mapsB5cxx11Ev
   809: 00000000403fb5a0    13 FUNC    GLOBAL DEFAULT    4 pthread_setaffinity_np
   810: 00000000409385e0    96 OBJECT  GLOBAL DEFAULT   52 ena_global_lock
   811: 00000000404ee010    17 FUNC    WEAK   DEFAULT    4 _ZNSt15basic_streambufIcSt11char_traitsIcEE4setgEPcS3_S3_
   812: 00000000402f69d0   558 FUNC    GLOBAL DEFAULT    4 _ZN4nvme6driver15create_io_queueEiiPN5sched3cpuEi
   813: 000000004061acd1     3 OBJECT  UNIQUE DEFAULT    9 _ZN16signature_helperIJiP7utsnameEE3sigE
   814: 0000000040366b80   205 FUNC    GLOBAL DEFAULT    4 AcpiDsCreateField
   815: 00000000404822b0   153 FUNC    GLOBAL DEFAULT    4 _ZGTtNSt12length_errorC2ERKNSt7__cxx1112basic_stringIcSt11char_traitsIcESaIcEEE
   816: 0000000040313320   486 FUNC    GLOBAL DEFAULT    4 _ZN3ide9ide_drive5startEhjjPvhb
   817: 00000000404f56c0    24 FUNC    WEAK   DEFAULT    4 _ZNKSt11__timepunctIwE8_M_am_pmEPPKw
   818: 0000000040338840   312 FUNC    WEAK   DEFAULT    4 _Z14unaligned_copyILj12ELj5EEvPvPKvm
   819: 0000000040989800     8 OBJECT  UNIQUE DEFAULT   52 _ZGVN9__gnu_cxx16bitmap_allocatorIwE13_S_mem_blocksE
   820: 00000000404f0390    84 FUNC    WEAK   DEFAULT    4 _ZNSt7__cxx1112basic_stringIcSt11char_traitsIcESaIcEE6insertEmPKc
   821: 00000000404b2ca0   120 FUNC    WEAK   DEFAULT    4 _ZN9__gnu_cxx18stdio_sync_filebufIcSt11char_traitsIcEEC2EP8_IO_FILE
   822: 0000000040601ec0    14 OBJECT  WEAK   DEFAULT    9 _ZTSN6virtio3blkE
   823: 000000004031f450    25 FUNC    GLOBAL DEFAULT    4 math_fault
   824: 00000000407fdf00    56 OBJECT  WEAK   DEFAULT   21 _ZTINSt7__cxx118messagesIcEE
   825: 00000000403ff7b0     0 FUNC    GLOBAL DEFAULT    4 mmap64
   826: 00000000403fc6f0    90 FUNC    GLOBAL DEFAULT    4 dladdr
   827: 000000004036a0a0   151 FUNC    GLOBAL DEFAULT    4 _ZN9semaphore13post_unlockedEj
   828: 0000000040286d80    90 FUNC    GLOBAL DEFAULT    4 in_pcbdisconnect
   829: 000000004036eb50   646 FUNC    GLOBAL DEFAULT    4 _ZN9pagecache13unmap_arc_bufEP7arc_buf
   830: 00000000404b2500    28 FUNC    WEAK   DEFAULT    4 _ZN9__gnu_cxx18stdio_sync_filebufIcSt11char_traitsIcEED1Ev
   831: 00000000407fadf8    32 OBJECT  WEAK   DEFAULT   21 _ZTIPKDd
   832: 0000000040426370   138 FUNC    WEAK   DEFAULT    4 __isoc99_swscanf
   833: 00000000407fada8    32 OBJECT  WEAK   DEFAULT   21 _ZTIPKDe
   834: 000000004035ba70     7 FUNC    GLOBAL DEFAULT    4 AcpiEvCmosRegionSetup
   835: 0000000040258700    73 FUNC    GLOBAL DEFAULT    4 solisten_proto
   836: 0000000040481e80    25 FUNC    GLOBAL DEFAULT    4 _ZGTtNSt11logic_errorD2Ev
   837: 00000000404887b0    98 FUNC    WEAK   DEFAULT    4 _ZNSbIwSt11char_traitsIwESaIwEEC1ERKS2_RKS1_
   838: 00000000403bbfb0   256 FUNC    GLOBAL DEFAULT    4 _ZN10classifier3addE16ipv4_tcp_conn_idP11net_channel
   839: 00000000407fae48    32 OBJECT  WEAK   DEFAULT   21 _ZTIPKDf
   840: 000000004061f020   180 OBJECT  WEAK   DEFAULT    9 _ZTSSt5_BindIFM14dynamic_percpuISt10unique_ptrIN5boost9intrusive13unordered_setIN19callstack_collector5traceEJNS3_18constant_time_sizeILb0EEEEEESt14default_deleteIS9_EELm8EEFvvEPSD_EE
   841: 00000000404bf4c0    23 FUNC    WEAK   DEFAULT    4 _ZNSt9basic_iosIcSt11char_traitsIcEED2Ev
   842: 00000000402cafe0    54 FUNC    WEAK   DEFAULT    4 _ZN3mmu18map_file_page_mmap3mapEmNS_7hw_ptepILi0EEENS_10pt_elementILi0EEEb
   843: 00000000409394a0   128 OBJECT  GLOBAL DEFAULT   52 _ZN7console3muxE
   844: 00000000404c9220    23 FUNC    WEAK   DEFAULT    4 _ZNSt7num_getIcSt19istreambuf_iteratorIcSt11char_traitsIcEEED1Ev
   845: 0000000040423e10    17 FUNC    GLOBAL DEFAULT    4 __flbf
   846: 0000000040313000   158 FUNC    GLOBAL DEFAULT    4 _ZN3ide9ide_drive4sizeEv
   847: 00000000407fb2f8    32 OBJECT  WEAK   DEFAULT   21 _ZTIPKDi
   848: 0000000040467a50    23 FUNC    GLOBAL DEFAULT    4 _ZNSt11range_errorD1Ev
   849: 000000004023e920   233 FUNC    WEAK   DEFAULT    4 _ZNK5boost6system6detail22generic_error_category7messageB5cxx11Ei
   850: 0000000040951ad8     1 OBJECT  GLOBAL DEFAULT   52 smp_allocator
   851: 00000000404c5560   318 FUNC    WEAK   DEFAULT    4 _ZNSi10_M_extractIdEERSiRT_
   852: 00000000403f131a     0 FUNC    GLOBAL DEFAULT    4 sigsetjmp
   853: 00000000402f2680    55 FUNC    GLOBAL DEFAULT    4 _ZN6virtio17virtio_pci_deviceC2EPN3pci6deviceE
   854: 00000000402c54f0    48 FUNC    GLOBAL DEFAULT    4 _ZN3mmu3vmaD1Ev
   855: 00000000404ef0b0   107 FUNC    WEAK   DEFAULT    4 _ZNSt7__cxx1112basic_stringIcSt11char_traitsIcESaIcEE8_M_eraseEmm
   856: 00000000407fad58    32 OBJECT  WEAK   DEFAULT   21 _ZTIPKDn
   857: 00000000404ca610    21 FUNC    WEAK   DEFAULT    4 _ZNKSt7num_putIcSt19ostreambuf_iteratorIcSt11char_traitsIcEEE3putES3_RSt8ios_basecb
   858: 000000004068aba0    43 OBJECT  WEAK   DEFAULT    9 _ZTSNSt10filesystem7__cxx1116filesystem_errorE
   859: 00000000403b6cb0   277 FUNC    GLOBAL DEFAULT    4 _ZN4dhcp9dhcp_mbuf16compose_discoverEP5ifnet
   860: 00000000403359b0    80 FUNC    WEAK   DEFAULT    4 _Z14unaligned_copyILj2ELj15EEvPvPKvm
   861: 000000004050b7c0   180 FUNC    GLOBAL DEFAULT    4 _ZNSt10filesystem28recursive_directory_iteratoraSEOS0_
   862: 0000000040956ad8     1 OBJECT  GLOBAL DEFAULT   52 fsgsbase_avail
   863: 0000000040613600    71 OBJECT  WEAK   DEFAULT    9 _ZTSSt17_Weak_result_typeIM14dynamic_percpuIN4prof11cpu_samplerELm8EEFvvEE
   864: 0000000040477e10   241 FUNC    WEAK   DEFAULT    4 _ZNSt19basic_istringstreamIcSt11char_traitsIcESaIcEED1Ev
   865: 0000000040423e90    23 FUNC    GLOBAL DEFAULT    4 __freadahead
   866: 00000000404ca630    17 FUNC    WEAK   DEFAULT    4 _ZNKSt7num_putIcSt19ostreambuf_iteratorIcSt11char_traitsIcEEE3putES3_RSt8ios_basecd
   867: 00000000403cceb0    40 FUNC    GLOBAL DEFAULT    4 closedir
   868: 00000000404ca650    17 FUNC    WEAK   DEFAULT    4 _ZNKSt7num_putIcSt19ostreambuf_iteratorIcSt11char_traitsIcEEE3putES3_RSt8ios_basece
   869: 00000000403a4280    70 FUNC    WEAK   DEFAULT    4 _ZNSt4pairINSt7__cxx1112basic_stringIcSt11char_traitsIcESaIcEEES5_ED1Ev
   870: 00000000404233b0   113 FUNC    GLOBAL DEFAULT    4 tfind
   871: 000000004030c820    55 FUNC    GLOBAL DEFAULT    4 AcpiOsGetTimer
   872: 00000000407fb348    32 OBJECT  WEAK   DEFAULT   21 _ZTIPKDs
   873: 000000004024d570   138 FUNC    GLOBAL DEFAULT    4 SHA512_Final
   874: 0000000040441a60    17 FUNC    GLOBAL DEFAULT    4 _ZNK10__cxxabiv117__class_type_info20__do_find_public_srcElPKvPKS0_S2_
   875: 00000000407fb398    32 OBJECT  WEAK   DEFAULT   21 _ZTIPKDu
   876: 00000000405fdd80    36 OBJECT  WEAK   DEFAULT    9 _ZTSN6virtio24virtio_modern_pci_deviceE
   877: 00000000404eafc0   284 FUNC    WEAK   DEFAULT    4 _ZNSt7__cxx1119basic_istringstreamIwSt11char_traitsIwESaIwEEC2ESt13_Ios_Openmode
   878: 00000000404e45a0   137 FUNC    WEAK   DEFAULT    4 _ZTv0_n24_NSt7__cxx1119basic_istringstreamIcSt11char_traitsIcESaIcEED1Ev
   879: 00000000404ced40    78 FUNC    WEAK   DEFAULT    4 _ZSt9has_facetISt8numpunctIcEEbRKSt6locale
   880: 000000004044d630    29 FUNC    GLOBAL DEFAULT    4 _ZN10__cxxabiv111__terminateEPFvvE
   881: 000000004046c1d0     7 FUNC    GLOBAL DEFAULT    4 _ZNKSt25__codecvt_utf8_utf16_baseIwE11do_encodingEv
   882: 000000004030cfe0    55 FUNC    WEAK   DEFAULT    4 _ZN9semaphoreD0Ev
   883: 00000000403263a0     5 FUNC    WEAK   DEFAULT    4 _Z13do_sse_memcpyILj0E12load_aligned13store_alignedEvPvPKv
   884: 0000000040406e10    25 FUNC    GLOBAL DEFAULT    4 __isspace_l
   885: 00000000403deb80   198 FUNC    WEAK   DEFAULT    4 _ZNSt10_HashtableImSt4pairIKmPN4rofs18file_cache_segmentEESaIS5_ENSt8__detail10_Select1stESt8equal_toImESt4hashImENS7_18_Mod_range_hashingENS7_20_Default_ranged_hashENS7_20_Prime_rehash_policyENS7_17_Hashtable_traitsILb0ELb0ELb1EEEE21_M_insert_unique_nodeEmmPNS7_10_Hash_nodeIS5_Lb0EEEm
   886: 00000000404d0b60    34 FUNC    WEAK   DEFAULT    4 _ZNKSt7num_putIcSt19ostreambuf_iteratorIcSt11char_traitsIcEEE3putES3_RSt8ios_basecl
   887: 00000000405331f0   102 FUNC    GLOBAL DEFAULT    4 _ZNSt10filesystem9file_sizeERKNS_7__cxx114pathE
   888: 00000000404d0ef0    34 FUNC    WEAK   DEFAULT    4 _ZNKSt7num_putIcSt19ostreambuf_iteratorIcSt11char_traitsIcEEE3putES3_RSt8ios_basecm
   889: 00000000405f9960    24 OBJECT  WEAK   DEFAULT    9 _ZTI8tty_file
   890: 00000000402f2ff0    16 FUNC    WEAK   DEFAULT    4 _ZN6virtio24virtio_legacy_pci_deviceD2Ev
   891: 00000000405fb150    56 OBJECT  WEAK   DEFAULT    9 _ZTVN3elf12memory_imageE
   892: 00000000404e1120    60 FUNC    WEAK   DEFAULT    4 _ZStlsIwSt11char_traitsIwEERSt13basic_ostreamIT_T0_ES6_St8_Setbase
   893: 00000000407fc5a8    24 OBJECT  WEAK   DEFAULT   21 _ZTISt25__codecvt_utf8_utf16_baseIwE
   894: 000000004066910c     4 OBJECT  GLOBAL DEFAULT    9 _ZNSt14numeric_limitsIwE5radixE
   895: 00000000404bbdf0   187 FUNC    WEAK   DEFAULT    4 _ZNSt14basic_ofstreamIwSt11char_traitsIwEEaSEOS2_
   896: 00000000404b4ea0   660 FUNC    WEAK   DEFAULT    4 _ZNSt13basic_filebufIcSt11char_traitsIcEE4swapERS2_
   897: 0000000040459cc0   952 FUNC    GLOBAL DEFAULT    4 _ZNSt13basic_istreamIwSt11char_traitsIwEE7getlineEPwlw
   898: 00000000405fae38     2 OBJECT  UNIQUE DEFAULT    9 _ZN16signature_helperIJPKvEE3sigE
   899: 0000000040801540    16 OBJECT  WEAK   DEFAULT   21 _ZTISt15basic_streambufIcSt11char_traitsIcEE
   900: 000000004049ef50    10 FUNC    WEAK   DEFAULT    4 _ZNSt13__facet_shims16__messages_closeIwEEvSt17integral_constantIbLb1EEPKNSt6locale5facetEi
   901: 000000004031a890    41 FUNC    GLOBAL DEFAULT    4 _Z26smp_crash_other_processorsv
   902: 00000000404830a0     8 FUNC    WEAK   DEFAULT    4 _ZNKSs4dataEv
   903: 0000000040322d20    56 FUNC    GLOBAL DEFAULT    4 _ZN3pci15read_pci_configEhhhh
   904: 0000000040668eb0     4 OBJECT  GLOBAL DEFAULT    9 _ZNSt14numeric_limitsIoE12min_exponentE
   905: 00000000404b8e70   491 FUNC    WEAK   DEFAULT    4 _ZNSt13basic_filebufIcSt11char_traitsIcEEaSEOS2_
   906: 00000000402f1da0    30 FUNC    GLOBAL DEFAULT    4 _ZN6virtio24virtio_legacy_pci_device11read_configEj
   907: 00000000402c5600    65 FUNC    GLOBAL DEFAULT    4 _ZN3mmu3vma12update_flagsEj
   908: 0000000040603668    13 OBJECT  WEAK   DEFAULT    9 _ZTSN6virtio2fsE
   909: 0000000040362480    84 FUNC    GLOBAL DEFAULT    4 AcpiDsGetBufferArguments
   910: 00000000402f59b0  2736 FUNC    GLOBAL DEFAULT    4 _ZN4nvme6driver21register_io_interruptEjjPN5sched3cpuE
   911: 00000000404a1140   634 FUNC    WEAK   DEFAULT    4 _ZNKSt7__cxx117collateIwE12do_transformEPKwS3_
   912: 00000000403b4800   318 FUNC    WEAK   DEFAULT    4 _ZNSt10_HashtableI9epoll_keySt4pairIKS0_11epoll_eventESaIS4_ENSt8__detail10_Select1stESt8equal_toIS0_ESt4hashIS0_ENS6_18_Mod_range_hashingENS6_20_Default_ranged_hashENS6_20_Prime_rehash_policyENS6_17_Hashtable_traitsILb1ELb0ELb1EEEE9_M_rehashEmRKm
   913: 00000000402d4090   770 FUNC    GLOBAL DEFAULT    4 _ZN7console14LineDiscipline21discard_pending_inputEv
   914: 000000004062cbf0    40 OBJECT  WEAK   DEFAULT    9 _ZTV15posix_semaphore
   915: 00000000402fb6c0    71 FUNC    GLOBAL DEFAULT    4 _ZN6virtio3net7ack_irqEv
   916: 0000000040328ec0   331 FUNC    WEAK   DEFAULT    4 _Z13do_sse_memcpyILj24E12load_aligned13store_alignedEvPvPKv
   917: 00000000403234b0    53 FUNC    GLOBAL DEFAULT    4 _ZN11msix_vector11add_entryidEj
   918: 00000000404ee370    34 FUNC    WEAK   DEFAULT    4 _ZNSt15basic_streambufIwSt11char_traitsIwEE9pubsetbufEPwl
   919: 00000000404d1270    34 FUNC    WEAK   DEFAULT    4 _ZNKSt7num_putIcSt19ostreambuf_iteratorIcSt11char_traitsIcEEE3putES3_RSt8ios_basecx
   920: 00000000406690a8     1 OBJECT  GLOBAL DEFAULT    9 _ZNSt14numeric_limitsItE14is_specializedE
   921: 000000004031ac60   707 FUNC    GLOBAL DEFAULT    4 _Z14parse_mp_tablev
   922: 00000000404d15a0    34 FUNC    WEAK   DEFAULT    4 _ZNKSt7num_putIcSt19ostreambuf_iteratorIcSt11char_traitsIcEEE3putES3_RSt8ios_basecy
   923: 0000000040476e80    70 FUNC    WEAK   DEFAULT    4 _ZNSt15basic_stringbufIcSt11char_traitsIcESaIcEE9underflowEv
   924: 000000004044dd70    41 FUNC    GLOBAL DEFAULT    4 _ZNSt16nested_exceptionD1Ev
   925: 00000000402e1e10   246 FUNC    WEAK   DEFAULT    4 _ZNSt10_HashtableISt10shared_ptrIN3elf6objectEES3_SaIS3_ENSt8__detail9_IdentityESt8equal_toIS3_ESt4hashIS3_ENS5_18_Mod_range_hashingENS5_20_Default_ranged_hashENS5_20_Prime_rehash_policyENS5_17_Hashtable_traitsILb0ELb1ELb1EEEE5clearEv
   926: 00000000402ff4e0   908 FUNC    WEAK   DEFAULT    4 _ZN3osv7xmitterIN6virtio3net3txqELj4096ESt8functionIFbvEEN5boost9iterators24function_output_iteratorINS_15xmitter_functorIS3_EEEEE10poll_untilEv
   927: 00000000404aa950    37 FUNC    WEAK   DEFAULT    4 _ZNKSt7__cxx119money_putIwSt19ostreambuf_iteratorIwSt11char_traitsIwEEE6do_putES4_bRSt8ios_basewRKNS_12basic_stringIwS3_SaIwEEE
   928: 00000000404c2560    31 FUNC    WEAK   DEFAULT    4 _ZNSiD2Ev
   929: 0000000040313b80    82 FUNC    GLOBAL DEFAULT    4 _ZN3vmw6pvscsiD0Ev
   930: 0000000040629100   114 OBJECT  WEAK   DEFAULT    9 _ZTSSt23_Sp_counted_ptr_inplaceIN8virtiofs11dax_managerINS0_15dax_window_implEEESaIS3_ELN9__gnu_cxx12_Lock_policyE2EE
   931: 000000004049e0a0   178 FUNC    WEAK   DEFAULT    4 _ZNSt13__facet_shims19__collate_transformIwEEvSt17integral_constantIbLb1EEPKNSt6locale5facetERNS_12__any_stringEPKT_SB_
   932: 00000000403d9e50   184 FUNC    GLOBAL DEFAULT    4 sys_fallocate
   933: 0000000040533b80    63 FUNC    GLOBAL DEFAULT    4 _ZNSt10filesystem5spaceERKNS_7__cxx114pathERSt10error_code
   934: 00000000404dd4f0    49 FUNC    WEAK   DEFAULT    4 _ZTv0_n24_NSoD1Ev
   935: 0000000040452170     5 FUNC    WEAK   DEFAULT    4 _ZN9__gnu_cxx16bitmap_allocatorIwED2Ev
   936: 00000000403ae060  2217 FUNC    WEAK   DEFAULT    4 _ZNSt8__detail9_CompilerINSt7__cxx1112regex_traitsIcEEEC1EPKcS6_RKSt6localeNSt15regex_constants18syntax_option_typeE
   937: 00000000403014f0   133 FUNC    WEAK   DEFAULT    4 _ZN6virtio5probeINS_3blkELt2EEEPN2hw9hw_driverEPNS2_9hw_deviceE
   938: 0000000040349d40    91 FUNC    GLOBAL DEFAULT    4 AcpiInitializeObjects
   939: 0000000040503c60  1965 FUNC    WEAK   DEFAULT    4 _ZNKSt8time_getIwSt19istreambuf_iteratorIwSt11char_traitsIwEEE3getES3_S3_RSt8ios_baseRSt12_Ios_IostateP2tmPKwSC_
   940: 000000004033ca20   284 FUNC    WEAK   DEFAULT    4 _Z14unaligned_copyILj11ELj12EEvPvPKvm
   941: 00000000405ff3d8    24 OBJECT  WEAK   DEFAULT    9 _ZTIN4nvme6driverE
   942: 00000000404689f0   111 FUNC    GLOBAL DEFAULT    4 _ZTv0_n24_NSt10istrstreamD1Ev
   943: 0000000040456390     5 FUNC    WEAK   DEFAULT    4 _ZN9__gnu_cxx19__function_requiresINS_26_LessThanComparableConceptIxEEEEvv
   944: 00000000404f08a0   155 FUNC    WEAK   DEFAULT    4 _ZNSt7__cxx1112basic_stringIcSt11char_traitsIcESaIcEE9_M_appendEPKcm
   945: 00000000406071f8    32 OBJECT  WEAK   DEFAULT    9 _ZTV9interrupt
   946: 000000004035bd20   283 FUNC    GLOBAL DEFAULT    4 AcpiRemoveAddressSpaceHandler
   947: 000000004036b4e0   118 FUNC    GLOBAL DEFAULT    4 _ZN6loggerC2Ev
   948: 000000004042c640   156 FUNC    GLOBAL DEFAULT    4 wcscspn
   949: 000000004033f400   128 FUNC    WEAK   DEFAULT    4 _Z14unaligned_copyILj5ELj7EEvPvPKvm
   950: 00000000403bb1e0   139 FUNC    GLOBAL DEFAULT    4 _ZN15boot_time_chart16print_total_timeEv
   951: 00000000404edf80    76 FUNC    WEAK   DEFAULT    4 _ZNSt15basic_streambufIcSt11char_traitsIcEEC1Ev
   952: 000000004053c770   115 FUNC    GLOBAL DEFAULT    4 _ZNSt10filesystem9canonicalERKNS_7__cxx114pathE
   953: 00000000404f4020    13 FUNC    WEAK   DEFAULT    4 _ZNKSt9money_putIwSt19ostreambuf_iteratorIwSt11char_traitsIwEEE3putES3_bRSt8ios_basewRKSbIwS2_SaIwEE
   954: 0000000040396930    47 FUNC    GLOBAL DEFAULT    4 _Z17enable_backtracesb
   955: 00000000403fcc20   135 FUNC    GLOBAL DEFAULT    4 dlvsym
   956: 0000000040538b60   327 FUNC    WEAK   DEFAULT    4 _ZNSt5dequeINSt10filesystem7__cxx114pathESaIS2_EE24_M_new_elements_at_frontEm
   957: 00000000404e4f40   134 FUNC    WEAK   DEFAULT    4 _ZNKSt7__cxx1115basic_stringbufIcSt11char_traitsIcESaIcEE3strEv
   958: 0000000040366c50   368 FUNC    GLOBAL DEFAULT    4 AcpiDsInitFieldObjects
   959: 000000004030a510  2807 FUNC    WEAK   DEFAULT    4 _ZN3osv7xmitterIN3vmw15vmxnet3_txqueueELj4096ESt8functionIFbvEEN5boost9iterators24function_output_iteratorINS_15xmitter_functorIS2_EEEEEC2EPS2_S5_RSB_RKNSt7__cxx1112basic_stringIcSt11char_traitsIcESaIcEEE
   960: 0000000040318b70   161 FUNC    GLOBAL DEFAULT    4 _ZN8xenfront15xenplatform_pciC2ERN3pci6deviceE
   961: 0000000040486330    17 FUNC    WEAK   DEFAULT    4 _ZNKSbIwSt11char_traitsIwESaIwEE4backEv
   962: 000000004061c0b5     3 OBJECT  UNIQUE DEFAULT    9 _ZN16signature_helperIJPN5sched6threadEjEE3sigE
   963: 00000000404ab7a0   137 FUNC    WEAK   DEFAULT    4 _ZNKSt7__cxx118numpunctIwE8groupingEv
   964: 0000000040613360    33 OBJECT  WEAK   DEFAULT    9 _ZTSZN6memory9page_pool2l2C4EvEUlvE_
   965: 00000000409410a0     8 OBJECT  GLOBAL DEFAULT   52 AcpiGbl_SupportedInterfaces
   966: 0000000040486840    48 FUNC    WEAK   DEFAULT    4 _ZNKSbIwSt11char_traitsIwESaIwEE12find_last_ofEPKwm
   967: 00000000407fbf88    24 OBJECT  WEAK   DEFAULT   21 _ZTISt10ostrstream
   968: 00000000407fbc28    32 OBJECT  WEAK   DEFAULT   21 _ZTVSt18__moneypunct_cacheIcLb1EE
   969: 000000004023e180    85 FUNC    WEAK   DEFAULT    4 _ZThn24_N5boost10wrapexceptINS_17bad_function_callEED0Ev
   970: 00000000405338d0    78 FUNC    GLOBAL DEFAULT    4 _ZNSt10filesystem6renameERKNS_7__cxx114pathES3_RSt10error_code
   971: 00000000404c0c50    95 FUNC    GLOBAL DEFAULT    4 _ZNSt8ios_base20_M_dispose_callbacksEv
   972: 00000000402d2b60   446 FUNC    WEAK   DEFAULT    4 _ZN3mmu9map_levelINS_10protectionELi2EEclENS_7hw_ptepILi2EEEm
   973: 000000004048a1e0    18 FUNC    GLOBAL DEFAULT    4 _ZNKSt5ctypeIwE10do_tolowerEw
   974: 00000000402cbdc0  1092 FUNC    WEAK   DEFAULT    4 _ZN5boost9intrusive11bstree_implINS0_8mhtraitsIN3mmu3vmaENS0_15set_member_hookIJEEEXadL_ZNS4_14_vma_list_hookEEEEEvNS3_11vma_compareEmLb1ELNS0_10algo_typesE5EvE13insert_uniqueERS4_
   975: 000000004031f3d0    25 FUNC    GLOBAL DEFAULT    4 double_fault
   976: 00000000404a0400    29 FUNC    GLOBAL DEFAULT    4 _ZNSt16invalid_argumentC1ERKNSt7__cxx1112basic_stringIcSt11char_traitsIcESaIcEEE
   977: 00000000402acf00   166 FUNC    GLOBAL DEFAULT    4 _Z25gnttab_end_foreign_accessjPv
   978: 0000000040424060    86 FUNC    WEAK   DEFAULT    4 _IO_ferror_unlocked
   979: 0000000040668ed3     1 OBJECT  GLOBAL DEFAULT    9 _ZNSt14numeric_limitsInE10is_boundedE
   980: 0000000040507420    14 FUNC    WEAK   DEFAULT    4 _ZNSt7__cxx1112basic_stringIwSt11char_traitsIwESaIwEE4rendEv
   981: 0000000040422db0    15 FUNC    GLOBAL DEFAULT    4 srand
   982: 0000000040355330   214 FUNC    GLOBAL DEFAULT    4 AcpiLoadTable
   983: 0000000040317a90  2041 FUNC    GLOBAL DEFAULT    4 _ZN8xenfront6xenbusC2Ev
   984: 000000004041c570    89 FUNC    GLOBAL DEFAULT    4 a64l
   985: 00000000403040f0  1178 FUNC    GLOBAL DEFAULT    4 _ZN6virtio3rngC2ERNS_13virtio_deviceE
   986: 000000004045a6d0    39 FUNC    GLOBAL DEFAULT    4 _ZNSt8__detail15_List_node_base10_M_reverseEv
   987: 00000000404b25e0    68 FUNC    WEAK   DEFAULT    4 _ZN9__gnu_cxx18stdio_sync_filebufIcSt11char_traitsIcEE9pbackfailEi
   988: 00000000402fcba0  2075 FUNC    GLOBAL DEFAULT    4 _ZN6virtio3netC1ERNS_13virtio_deviceE
   989: 000000004034c850   458 FUNC    GLOBAL DEFAULT    4 AcpiExOpcode_3A_1T_1R
   990: 0000000040481f90   153 FUNC    GLOBAL DEFAULT    4 _ZGTtNSt12domain_errorC1ERKNSt7__cxx1112basic_stringIcSt11char_traitsIcESaIcEEE
   991: 0000000040328690   271 FUNC    WEAK   DEFAULT    4 _Z13do_sse_memcpyILj20E12load_aligned13store_alignedEvPvPKv
   992: 00000000403eb940   296 FUNC    GLOBAL DEFAULT    4 gethostid
   993: 00000000402c4fe0    70 FUNC    GLOBAL DEFAULT    4 _ZN3mmu10isreadableEPvm
   994: 00000000404f0ab0    41 FUNC    WEAK   DEFAULT    4 _ZNSt7__cxx1112basic_stringIcSt11char_traitsIcESaIcEE6appendESt16initializer_listIcE
   995: 0000000040919b10     8 OBJECT  GLOBAL DEFAULT   52 ip_mrouter_done
   996: 00000000404f5dc0    22 FUNC    WEAK   DEFAULT    4 _ZNKSt8messagesIwE20_M_convert_from_charEPc
   997: 000000004031fd00   179 FUNC    GLOBAL DEFAULT    4 _ZN26interrupt_descriptor_table18register_interruptEP25inter_processor_interrupt
   998: 00000000404f69e0  1432 FUNC    WEAK   DEFAULT    4 _ZNSt16__numpunct_cacheIwE8_M_cacheERKSt6locale
   999: 000000004036e840   632 FUNC    GLOBAL DEFAULT    4 _ZN9pagecache11map_arc_bufEPNS_7hashkeyEP7arc_bufPv
  1000: 0000000040530e80   596 FUNC    WEAK   DEFAULT    4 _ZNSt5dequeINSt10filesystem7__cxx114_DirESaIS2_EE16_M_push_back_auxIJRP11__dirstreamRKNS1_4pathEEEEvDpOT_
  1001: 00000000404f8210    78 FUNC    WEAK   DEFAULT    4 _ZSt9has_facetISt5ctypeIwEEbRKSt6locale
  1002: 00000000403b6dd0   215 FUNC    GLOBAL DEFAULT    4 _ZN4dhcp20dhcp_interface_state8discoverEv
  1003: 00000000402ae930    56 FUNC    GLOBAL DEFAULT    4 _Z9xs_exists14xs_transactionPKcS1_
  1004: 00000000409192d0     8 OBJECT  GLOBAL DEFAULT   52 in_ifaddrhashtbl
  1005: 00000000404ca910   123 FUNC    WEAK   DEFAULT    4 _ZNSt18__moneypunct_cacheIcLb1EEC2Em
  1006: 00000000404f5b50    10 FUNC    WEAK   DEFAULT    4 _ZNKSt8time_getIwSt19istreambuf_iteratorIwSt11char_traitsIwEEE10date_orderEv
  1007: 000000004033b4e0   340 FUNC    WEAK   DEFAULT    4 _Z14unaligned_copyILj13ELj13EEvPvPKvm
  1008: 00000000403535a0   145 FUNC    GLOBAL DEFAULT    4 AcpiTbStoreTable
  1009: 0000000040266b70    26 FUNC    GLOBAL DEFAULT    4 copyout
  1010: 000000004044d540    12 FUNC    GLOBAL DEFAULT    4 _ZNKSt15__exception_ptr13exception_ptr20__cxa_exception_typeEv
  1011: 0000000040668ea8     4 OBJECT  GLOBAL DEFAULT    9 _ZNSt14numeric_limitsIoE12max_exponentE
  1012: 000000004033f780   143 FUNC    WEAK   DEFAULT    4 _Z14unaligned_copyILj10ELj0EEvPvPKvm
  1013: 00000000402997d0   167 FUNC    GLOBAL DEFAULT    4 tcp_mssopt
  1014: 000000004027f8e0  4376 FUNC    GLOBAL DEFAULT    4 ifioctl
  1015: 00000000402f8080   279 FUNC    WEAK   DEFAULT    4 _ZN4nvme6driverD2Ev
  1016: 00000000405e17c0    24 OBJECT  WEAK   DEFAULT    9 _ZTIN5boost2io13too_many_argsE
  1017: 00000000402438b0   379 FUNC    WEAK   DEFAULT    4 _ZNSt22__uninitialized_fill_nILb0EE15__uninit_fill_nIPN5boost2io6detail11format_itemIcSt11char_traitsIcESaIcEEEmS9_EET_SB_T0_RKT1_
  1018: 00000000407fdba0   128 OBJECT  WEAK   DEFAULT   21 _ZTVSt12ctype_bynameIwE
  1019: 00000000403f6ab0    16 FUNC    WEAK   DEFAULT    4 __strtoul_internal
  1020: 00000000404bdf90    88 FUNC    GLOBAL DEFAULT    4 _ZSt20__throw_domain_errorPKc
  1021: 0000000040307910    79 FUNC    GLOBAL DEFAULT    4 _ZN3vmw15vmxnet3_rxqueue8checksumEPNS_19vmxnet3_rx_compdescEP4mbuf
  1022: 00000000404e8170   185 FUNC    WEAK   DEFAULT    4 _ZNSt7__cxx1119basic_ostringstreamIcSt11char_traitsIcESaIcEE4swapERS4_
  1023: 0000000040668f6c     1 OBJECT  GLOBAL DEFAULT    9 _ZNSt14numeric_limitsIxE8is_exactE
  1024: 0000000040482030    25 FUNC    GLOBAL DEFAULT    4 _ZGTtNSt12domain_errorD1Ev
  1025: 0000000040529e20    18 FUNC    GLOBAL DEFAULT    4 _ZSt8to_charsPcS_dSt12chars_format
  1026: 000000004023d1d0   154 FUNC    WEAK   DEFAULT    4 _ZNK5boost6system14error_category7messageEiPcm
  1027: 00000000403499d0    44 FUNC    GLOBAL DEFAULT    4 AcpiOsDeleteCache
  1028: 00000000403eb550    72 FUNC    GLOBAL DEFAULT    4 textdomain
  1029: 00000000404a0550    12 FUNC    WEAK   DEFAULT    4 _ZNKSt7__cxx1110moneypunctIwLb0EE13do_neg_formatEv
  1030: 00000000404bf630    11 FUNC    WEAK   DEFAULT    4 _ZNKSt9basic_iosIcSt11char_traitsIcEE3badEv
  1031: 000000004023e6a0    82 FUNC    WEAK   DEFAULT    4 _ZN5boost2io6detail13call_put_lastIcSt11char_traitsIcEKPKcEEvRSt13basic_ostreamIT_T0_EPKv
  1032: 00000000403f13a0    49 FUNC    GLOBAL DEFAULT    4 siglongjmp
  1033: 000000004046b870  1320 FUNC    GLOBAL DEFAULT    4 _ZSt28_Rb_tree_rebalance_for_erasePSt18_Rb_tree_node_baseRS_
  1034: 0000000040668d8d     1 OBJECT  GLOBAL DEFAULT    9 _ZNSt14numeric_limitsIDsE10is_integerE
  1035: 0000000040488e90   543 FUNC    WEAK   DEFAULT    4 _ZNSbIwSt11char_traitsIwESaIwEE7replaceEmmPKwm
  1036: 0000000040669201     1 OBJECT  GLOBAL DEFAULT    9 _ZNSt14numeric_limitsIbE10is_integerE
  1037: 000000004054e1f0   147 FUNC    WEAK   DEFAULT    4 _ZNKRSt7__cxx1119basic_istringstreamIwSt11char_traitsIwESaIwEE3strEv
  1038: 000000004049b420    88 FUNC    WEAK   DEFAULT    4 _ZNSt7__cxx118messagesIcEC1Em
  1039: 0000000040276a50    16 FUNC    GLOBAL DEFAULT    4 _Z8raw_initv
  1040: 0000000040665120    33 OBJECT  WEAK   DEFAULT    9 _ZTSSt25__codecvt_utf8_utf16_baseIwE
  1041: 000000004042b0f0   169 FUNC    GLOBAL DEFAULT    4 __stpcpy
  1042: 0000000040362540   103 FUNC    GLOBAL DEFAULT    4 AcpiDsGetRegionArguments
  1043: 00000000404c90f0    12 FUNC    WEAK   DEFAULT    4 _ZNKSt10moneypunctIcLb0EE13do_pos_formatEv
  1044: 000000004061aca7     6 OBJECT  UNIQUE DEFAULT    9 _ZN16signature_helperIJiiP11epoll_eventiiEE3sigE
  1045: 0000000040429830    22 FUNC    WEAK   DEFAULT    4 __isoc99_vwscanf
  1046: 00000000407fa8a0    40 OBJECT  WEAK   DEFAULT   21 _ZTVSt16bad_array_length
  1047: 0000000040421890    15 FUNC    GLOBAL DEFAULT    4 endprotoent
  1048: 000000004037b810   682 FUNC    GLOBAL DEFAULT    4 _ZN6memory13alloc_tracker8rememberEPvi
  1049: 0000000040353ab0    92 FUNC    GLOBAL DEFAULT    4 AcpiTbGetOwnerId
  1050: 00000000403f2700   119 FUNC    GLOBAL DEFAULT    4 ftrylockfile
  1051: 00000000402799b0   236 FUNC    GLOBAL DEFAULT    4 netisr_clearqdrops
  1052: 0000000040941190    24 OBJECT  GLOBAL DEFAULT   52 AcpiGbl_NamespaceRwLock
  1053: 00000000403e12f0   649 FUNC    WEAK   DEFAULT    4 _ZN8virtiofs11dax_managerINS_15dax_window_stubEE3mapEmmmmRNS2_12mapping_partEb
  1054: 00000000403b8130  2930 FUNC    GLOBAL DEFAULT    4 _ZN4dhcp20dhcp_interface_state13state_requestERNS_9dhcp_mbufE
  1055: 00000000402fa4e0    10 FUNC    GLOBAL DEFAULT    4 _ZN6virtio3net19get_driver_featuresEv
  1056: 00000000404e0a40   108 FUNC    WEAK   DEFAULT    4 _ZNSt13basic_ostreamIwSt11char_traitsIwEE6sentryC1ERS2_
  1057: 0000000040468480    95 FUNC    GLOBAL DEFAULT    4 _ZNSt12strstreambufD2Ev
  1058: 00000000405fd6c0    32 OBJECT  WEAK   DEFAULT    9 _ZTV8Keyboard
  1059: 00000000403453d0   359 FUNC    GLOBAL DEFAULT    4 AcpiDecodePldBuffer
  1060: 000000004024cf40   494 FUNC    GLOBAL DEFAULT    4 SHA256_Final
  1061: 000000004036c4f0   209 FUNC    GLOBAL DEFAULT    4 debug_early_u64
  1062: 00000000404f5bb0    30 FUNC    WEAK   DEFAULT    4 _ZNSt15time_get_bynameIwSt19istreambuf_iteratorIwSt11char_traitsIwEEEC1EPKcm
  1063: 00000000404889e0   160 FUNC    WEAK   DEFAULT    4 _ZStplIwSt11char_traitsIwESaIwEESbIT_T0_T1_ES3_RKS6_
  1064: 0000000040463fc0   247 FUNC    GLOBAL DEFAULT    4 _ZNSt10moneypunctIwLb0EED1Ev
  1065: 000000004044e3d0   131 FUNC    GLOBAL DEFAULT    4 _ZNK10__cxxabiv119__pointer_type_info15__pointer_catchEPKNS_17__pbase_type_infoEPPvj
  1066: 00000000402548f0    67 FUNC    GLOBAL DEFAULT    4 m_tag_delete_nonpersistent
  1067: 000000004033fd80   102 FUNC    GLOBAL DEFAULT    4 _ZN9processor6x2apic2idEv
  1068: 0000000040481a90   121 FUNC    GLOBAL DEFAULT    4 _ZNSt12__cow_stringD1Ev
  1069: 00000000406631c0    40 OBJECT  WEAK   DEFAULT    9 _ZTSN10__cxxabiv123__fundamental_type_infoE
  1070: 0000000040488bf0    27 FUNC    WEAK   DEFAULT    4 _ZNSbIwSt11char_traitsIwESaIwEEC1IN9__gnu_cxx17__normal_iteratorIPwS2_EEEET_S8_RKS1_
  1071: 00000000403df960     9 FUNC    WEAK   DEFAULT    4 _ZNSt23_Sp_counted_ptr_inplaceIN8virtiofs11dax_managerINS0_15dax_window_implEEESaIS3_ELN9__gnu_cxx12_Lock_policyE2EED0Ev
  1072: 00000000404f5bf0    88 FUNC    WEAK   DEFAULT    4 _ZNSt8messagesIwEC1Em
  1073: 00000000403abb70  2611 FUNC    WEAK   DEFAULT    4 _ZNSt8__detail9_CompilerINSt7__cxx1112regex_traitsIcEEE18_M_expression_termILb1ELb1EEEbRNS4_13_BracketStateERNS_15_BracketMatcherIS3_XT_EXT0_EEE
  1074: 000000004042d0e0   179 FUNC    GLOBAL DEFAULT    4 mktemp
  1075: 000000004051d560    44 FUNC    GLOBAL DEFAULT    4 _ZNSt10filesystem4path16replace_filenameERKS0_
  1076: 00000000405ea1c8    13 OBJECT  WEAK   DEFAULT    9 _ZTS10synch_port
  1077: 0000000000000030     8 TLS     GLOBAL DEFAULT   51 percpu_base
  1078: 00000000403586a0   442 FUNC    GLOBAL DEFAULT    4 AcpiRemoveNotifyHandler
  1079: 0000000040319f10    28 FUNC    GLOBAL DEFAULT    4 _Z15reset_bootchartP23osv_multiboot_info_type
  1080: 00000000402f2780    50 FUNC    GLOBAL DEFAULT    4 _ZN6virtio24virtio_legacy_pci_device21get_virtio_config_bitEji
  1081: 00000000402e9790   452 FUNC    GLOBAL DEFAULT    4 _ZN3pci8function15msi_write_entryEimj
  1082: 0000000040611e58   120 OBJECT  WEAK   DEFAULT    9 _ZTVN5boost10wrapexceptINS_7bad_getEEE
  1083: 0000000040629488    16 OBJECT  WEAK   DEFAULT    9 _ZTIFvPvE
  1084: 0000000040407170    16 FUNC    WEAK   DEFAULT    4 iswdigit_l
  1085: 0000000040486de0    12 FUNC    WEAK   DEFAULT    4 _ZNSbIwSt11char_traitsIwESaIwEE4_Rep13_M_set_leakedEv
  1086: 00000000402cdf70   389 FUNC    WEAK   DEFAULT    4 _ZN3mmu9map_levelINS_18linear_page_mapperELi1EEclENS_7hw_ptepILi1EEEm
  1087: 00000000402fc1b0   675 FUNC    GLOBAL DEFAULT    4 _ZN6virtio3net3txq19try_xmit_one_lockedEPNS0_7net_reqE
  1088: 0000000040423dd0    25 FUNC    GLOBAL DEFAULT    4 __freading
  1089: 00000000404ca780    78 FUNC    WEAK   DEFAULT    4 _ZSt9has_facetISt9money_getIcSt19istreambuf_iteratorIcSt11char_traitsIcEEEEbRKSt6locale
  1090: 000000004050ef80   207 FUNC    GLOBAL DEFAULT    4 _ZNSt10filesystem15last_write_timeERKNS_4pathENSt6chrono10time_pointINS_12__file_clockENS3_8durationIlSt5ratioILl1ELl1000000000EEEEEERSt10error_code
  1091: 0000000040628021     4 OBJECT  UNIQUE DEFAULT    9 _ZN16signature_helperIJiliEE3sigE
  1092: 00000000402d89b0   360 FUNC    GLOBAL DEFAULT    4 _ZN3elf7program11lookup_nextEPKcPKv
  1093: 0000000040621120    16 OBJECT  WEAK   DEFAULT    9 _ZTISt24_Weak_result_type_memfunIMN5async12async_workerEFvvELb1EE
  1094: 0000000040268120     5 FUNC    GLOBAL DEFAULT    4 zone_drain_wait
  1095: 00000000404ed800    75 FUNC    WEAK   DEFAULT    4 _ZNSt15basic_streambufIwSt11char_traitsIwEE5uflowEv
  1096: 0000000040452f10    62 FUNC    GLOBAL DEFAULT    4 _ZNSt7codecvtIcc11__mbstate_tEC2EP15__locale_structm
  1097: 000000004024a230   300 FUNC    GLOBAL DEFAULT    4 in_cksum_skip
  1098: 000000004047d700    59 FUNC    WEAK   DEFAULT    4 _ZNSt15basic_stringbufIwSt11char_traitsIwESaIwEE8_M_pbumpEPwS4_l
  1099: 00000000405f9ca8    16 OBJECT  WEAK   DEFAULT    9 _ZTI18clock_event_driver
  1100: 000000004050aa30   180 FUNC    WEAK   DEFAULT    4 _ZNSt12__shared_ptrINSt10filesystem28recursive_directory_iterator10_Dir_stackELN9__gnu_cxx12_Lock_policyE2EEaSEOS5_
  1101: 0000000040406d40    16 FUNC    GLOBAL DEFAULT    4 __isgraph_l
  1102: 00000000403ef660   104 FUNC    GLOBAL DEFAULT    4 _ZN3osv15get_nameserversEv
  1103: 00000000402dac60   189 FUNC    GLOBAL DEFAULT    4 _ZN3elf6object13cached_lookupERKNSt7__cxx1112basic_stringIcSt11char_traitsIcESaIcEEE
  1104: 0000000040343e80    93 FUNC    GLOBAL DEFAULT    4 AcpiRsSetAddressCommon
  1105: 0000000040407520    10 FUNC    GLOBAL DEFAULT    4 toascii
  1106: 00000000406691a8     4 OBJECT  GLOBAL DEFAULT    9 _ZNSt14numeric_limitsIcE10has_denormE
  1107: 0000000040668d84     4 OBJECT  GLOBAL DEFAULT    9 _ZNSt14numeric_limitsIDsE12min_exponentE
  1108: 0000000040361860    40 FUNC    GLOBAL DEFAULT    4 AcpiNsValidateHandle
  1109: 00000000404e9b50   439 FUNC    WEAK   DEFAULT    4 _ZNSt7__cxx1115basic_stringbufIwSt11char_traitsIwESaIwEEC1ERKNS_12basic_stringIwS2_S3_EESt13_Ios_Openmode
  1110: 00000000408081a0    60 OBJECT  GLOBAL DEFAULT   22 _ZN7console3tioE
  1111: 00000000402fd480     7 FUNC    WEAK   DEFAULT    4 _ZNSt17_Function_handlerIFbvEZN6virtio3net3txqC4EPS2_PNS1_5vringEEUlvE_E9_M_invokeERKSt9_Any_data
  1112: 00000000403d48d0    51 FUNC    WEAK   DEFAULT    4 _ZN5boost9intrusive4listI3bufJNS0_9base_hookIS2_EEEED1Ev
  1113: 00000000407fd1e0    24 OBJECT  WEAK   DEFAULT   21 _ZTISt19basic_istringstreamIcSt11char_traitsIcESaIcEE
  1114: 00000000402a16f0   117 FUNC    GLOBAL DEFAULT    4 tcp_clean_sackreport
  1115: 0000000040916ff8     8 OBJECT  GLOBAL DEFAULT   52 tbr_dequeue_ptr
  1116: 00000000403a53f0   597 FUNC    WEAK   DEFAULT    4 _ZZNKSt8__detail15_BracketMatcherINSt7__cxx1112regex_traitsIcEELb0ELb1EE8_M_applyEcSt17integral_constantIbLb0EEENKUlvE_clEv
  1117: 00000000402f40d0   242 FUNC    WEAK   DEFAULT    4 _ZNSt6vectorIN6virtio5vring7sg_nodeESaIS2_EE7reserveEm
  1118: 00000000404853e0     8 FUNC    WEAK   DEFAULT    4 _ZNSs12_Alloc_hiderC2EPcRKSaIcE
  1119: 00000000404c91c0    23 FUNC    WEAK   DEFAULT    4 _ZNSt15numpunct_bynameIcED2Ev
  1120: 000000004042b0a0    51 FUNC    WEAK   DEFAULT    4 memrchr
  1121: 000000004042bb00    43 FUNC    GLOBAL DEFAULT    4 strrchr
  1122: 0000000040353a60    80 FUNC    GLOBAL DEFAULT    4 AcpiTbReleaseOwnerId
  1123: 00000000404bf5d0    12 FUNC    WEAK   DEFAULT    4 _ZNSt9basic_iosIcSt11char_traitsIcEE8setstateESt12_Ios_Iostate
  1124: 00000000403c0730   152 FUNC    GLOBAL DEFAULT    4 _ZN3osv19application_runtimeD1Ev
  1125: 00000000408d8328     8 OBJECT  GLOBAL DEFAULT   35 _ZNSt10__num_base11_S_atoms_inE
  1126: 00000000405f9c90    21 OBJECT  WEAK   DEFAULT    9 _ZTS18clock_event_driver
  1127: 000000004033eb30   174 FUNC    WEAK   DEFAULT    4 _Z14unaligned_copyILj7ELj7EEvPvPKvm
  1128: 00000000403127a0    11 FUNC    GLOBAL DEFAULT    4 _ZN11scsi_common11cdb_data_inEPKh
  1129: 000000004028d4e0    17 FUNC    GLOBAL DEFAULT    4 _Z15kmod_ipstat_deci
  1130: 00000000404e7450   256 FUNC    WEAK   DEFAULT    4 _ZNSt7__cxx1119basic_ostringstreamIcSt11char_traitsIcESaIcEEC2Ev
  1131: 00000000404f1220    48 FUNC    WEAK   DEFAULT    4 _ZNKSt7__cxx1112basic_stringIcSt11char_traitsIcESaIcEE16find_last_not_ofEPKcm
  1132: 0000000040465cd0   246 FUNC    WEAK   DEFAULT    4 _ZN9__gnu_cxx10__mt_allocIwNS_20__common_pool_policyINS_6__poolELb1EEEE14_M_set_optionsENS_11__pool_base5_TuneE
  1133: 00000000403ff7b0   881 FUNC    GLOBAL DEFAULT    4 mmap
  1134: 00000000402c5de0   301 FUNC    GLOBAL DEFAULT    4 _ZN3mmu8anon_vma5splitEm
  1135: 0000000040509ec0    14 FUNC    WEAK   DEFAULT    4 _ZN9__gnu_cxxeqIPKwNSt7__cxx1112basic_stringIwSt11char_traitsIwESaIwEEEEEbRKNS_17__normal_iteratorIT_T0_EESE_
  1136: 00000000403a3cb0   141 FUNC    WEAK   DEFAULT    4 _ZNSt8__detail9_ExecutorIN9__gnu_cxx17__normal_iteratorIPKcNSt7__cxx1112basic_stringIcSt11char_traitsIcESaIcEEEEESaINS5_9sub_matchISB_EEENS5_12regex_traitsIcEELb1EE16_M_rep_once_moreENSH_11_Match_modeEl
  1137: 000000004035c500    28 FUNC    GLOBAL DEFAULT    4 AcpiEvInstallSciHandler
  1138: 00000000405e1e60    32 OBJECT  WEAK   DEFAULT    9 _ZTIPFvRKNSt7__cxx1112basic_stringIcSt11char_traitsIcESaIcEEEE
  1139: 00000000404863d0    45 FUNC    WEAK   DEFAULT    4 _ZNSbIwSt11char_traitsIwESaIwEE4swapERS2_
  1140: 0000000040482f50    35 FUNC    WEAK   DEFAULT    4 _ZNKSs2atEm
  1141: 0000000040535170   115 FUNC    GLOBAL DEFAULT    4 _ZNSt10filesystem12read_symlinkERKNS_7__cxx114pathE
  1142: 0000000040496cc0   137 FUNC    WEAK   DEFAULT    4 _ZNKSt7__cxx118numpunctIcE8truenameEv
  1143: 0000000040484540   281 FUNC    WEAK   DEFAULT    4 _ZNSs6assignEPKcm
  1144: 000000004030c000    14 FUNC    GLOBAL DEFAULT    4 AcpiOsTableOverride
  1145: 00000000403f6ae0    19 FUNC    WEAK   DEFAULT    4 __strtoimax_internal
  1146: 0000000040308bc0    76 FUNC    WEAK   DEFAULT    4 _ZThn8_N5boost10wrapexceptINS_2io12too_few_argsEED1Ev
  1147: 00000000402e82e0   249 FUNC    GLOBAL DEFAULT    4 _ZN3pci8function14parse_pci_msixEh
  1148: 00000000402af0c0    87 FUNC    GLOBAL DEFAULT    4 xs_transaction_end
  1149: 0000000040668e06     1 OBJECT  GLOBAL DEFAULT    9 _ZNSt14numeric_limitsIeE9is_signedE
  1150: 0000000040669111     1 OBJECT  GLOBAL DEFAULT    9 _ZNSt14numeric_limitsIwE10is_integerE
  1151: 000000004053e8c0    58 FUNC    WEAK   DEFAULT    4 _ZNSt10filesystem7__cxx114path5_CmptD1Ev
  1152: 000000004053e6d0   158 FUNC    GLOBAL DEFAULT    4 _ZNSt10filesystem7__cxx1116filesystem_errorD1Ev
  1153: 0000000040668fcd     1 OBJECT  GLOBAL DEFAULT    9 _ZNSt14numeric_limitsIlE13has_quiet_NaNE
  1154: 00000000404f2990    23 FUNC    WEAK   DEFAULT    4 _ZNSt9money_putIwSt19ostreambuf_iteratorIwSt11char_traitsIwEEED2Ev
  1155: 0000000040809838     4 OBJECT  GLOBAL DEFAULT   22 smp_processors
  1156: 0000000040513320   122 FUNC    GLOBAL DEFAULT    4 _ZNSt10filesystem4copyERKNS_4pathES2_NS_12copy_optionsE
  1157: 00000000403f6b00    16 FUNC    WEAK   DEFAULT    4 __strtoumax_internal
  1158: 0000000040222040    13 FUNC    GLOBAL DEFAULT    4 _ZN8vfs_file5chmodEj
  1159: 0000000040311cd0     5 FUNC    WEAK   DEFAULT    4 _ZN5boost2io6detail13call_put_headIcSt11char_traitsIcEKlEEvRSt13basic_ostreamIT_T0_EPKv
  1160: 00000000402aec60   125 FUNC    GLOBAL DEFAULT    4 _Z5xs_rm14xs_transactionPKcS1_
  1161: 0000000040484f60   124 FUNC    WEAK   DEFAULT    4 _ZNSs9push_backEc
  1162: 0000000040485f80    37 FUNC    WEAK   DEFAULT    4 _ZNKSbIwSt11char_traitsIwESaIwEE11_M_disjunctEPKw
  1163: 0000000040485850    79 FUNC    WEAK   DEFAULT    4 _ZNSsC2ERKSsmmRKSaIcE
  1164: 00000000402c55a0     9 FUNC    GLOBAL DEFAULT    4 _ZNK3mmu3vma5startEv
  1165: 00000000404f3770   142 FUNC    WEAK   DEFAULT    4 _ZNKSt8numpunctIwE11do_truenameEv
  1166: 000000004098cd78     8 OBJECT  UNIQUE DEFAULT   52 _ZGVNSt10moneypunctIwLb0EE2idE
  1167: 000000004044c2a0    95 FUNC    GLOBAL DEFAULT    4 __cxa_allocate_exception
  1168: 00000000404f41f0    83 FUNC    WEAK   DEFAULT    4 _ZNSt10moneypunctIwLb0EEC2EP15__locale_structPKcm
  1169: 00000000402ce440   412 FUNC    WEAK   DEFAULT    4 _ZN3mmu9map_levelINS_18linear_page_mapperELi4EEclENS_7hw_ptepILi4EEEm
  1170: 000000004042ce60     9 FUNC    GLOBAL DEFAULT    4 wcswcs
  1171: 00000000404a0670    36 FUNC    WEAK   DEFAULT    4 _ZNSt7__cxx1117moneypunct_bynameIwLb0EED0Ev
  1172: 00000000403bcdc0   649 FUNC    WEAK   DEFAULT    4 _ZN3osv7fprintfIJ7in_addrtS1_tEEERSoS2_PKcDpT_
  1173: 00000000403a8790   377 FUNC    WEAK   DEFAULT    4 _ZNSt6vectorISt4pairINSt7__cxx1112basic_stringIcSt11char_traitsIcESaIcEEES6_ESaIS7_EEC1ERKS9_
  1174: 00000000404074c0    32 FUNC    GLOBAL DEFAULT    4 __iswxdigit_l
  1175: 00000000404e5830  1267 FUNC    WEAK   DEFAULT    4 _ZNSt7__cxx1115basic_stringbufIcSt11char_traitsIcESaIcEE4swapERS4_
  1176: 00000000404e6c20   677 FUNC    WEAK   DEFAULT    4 _ZNSt7__cxx1119basic_istringstreamIcSt11char_traitsIcESaIcEEC1ERKNS_12basic_stringIcS2_S3_EESt13_Ios_Openmode
  1177: 0000000040306550   241 FUNC    GLOBAL DEFAULT    4 _ZNK3vmw7vmxnet310fill_statsEP7if_data
  1178: 00000000403f7300    85 FUNC    GLOBAL DEFAULT    4 __stpcpy_chk
  1179: 00000000402e8c70   183 FUNC    GLOBAL DEFAULT    4 _ZN3pci8function19disable_bars_decodeEbb
  1180: 00000000407feff8    88 OBJECT  WEAK   DEFAULT   21 _ZTVNSt7__cxx118time_getIwSt19istreambuf_iteratorIwSt11char_traitsIwEEEE
  1181: 00000000404f2440   101 FUNC    GLOBAL DEFAULT    4 _ZNSt11this_thread11__sleep_forENSt6chrono8durationIlSt5ratioILl1ELl1EEEENS1_IlS2_ILl1ELl1000000000EEEE
  1182: 0000000040664554     4 OBJECT  GLOBAL DEFAULT    9 _ZNSt6locale7collateE
  1183: 00000000405e1dd0    72 OBJECT  WEAK   DEFAULT    9 _ZTIN5boost10wrapexceptINS_6system12system_errorEEE
  1184: 00000000406648d0    18 OBJECT  WEAK   DEFAULT    9 _ZTSSt13runtime_error
  1185: 0000000040664f20    47 OBJECT  WEAK   DEFAULT    9 _ZTSSt23__codecvt_abstract_baseIDsDu11__mbstate_tE
  1186: 00000000403a4320   297 FUNC    WEAK   DEFAULT    4 _ZNKSt7__cxx1112regex_traitsIcE17transform_primaryIPKcEENS_12basic_stringIcSt11char_traitsIcESaIcEEET_SA_
  1187: 000000004031d750    12 FUNC    GLOBAL DEFAULT    4 _ZN3mmu19is_page_fault_writeEj
  1188: 0000000040668fcc     1 OBJECT  GLOBAL DEFAULT    9 _ZNSt14numeric_limitsIlE17has_signaling_NaNE
  1189: 00000000403d3160    10 FUNC    GLOBAL DEFAULT    4 fhold
  1190: 0000000040941300    12 OBJECT  GLOBAL DEFAULT   52 AcpiGbl_XPm1bStatus
  1191: 0000000040452980   351 FUNC    WEAK   DEFAULT    4 _ZNSt6vectorIPSt12Catalog_infoSaIS1_EE17_M_realloc_insertEN9__gnu_cxx17__normal_iteratorIPS1_S3_EERKS1_
  1192: 00000000404b8d10   348 FUNC    WEAK   DEFAULT    4 _ZNSt13basic_fstreamIcSt11char_traitsIcEEC1Ev
  1193: 0000000040343480    74 FUNC    GLOBAL DEFAULT    4 AcpiRsSetResourceHeader
  1194: 00000000402fa550    54 FUNC    GLOBAL DEFAULT    4 _ZN6virtio3net28free_large_buffer_and_refcntEPvS1_
  1195: 000000004028ac90  1867 FUNC    GLOBAL DEFAULT    4 _Z15inp_setmoptionsP5inpcbP7sockopt
  1196: 0000000040669ed0    22 OBJECT  WEAK   DEFAULT    9 _ZTSSt14collate_bynameIwE
  1197: 000000004033f8c0   178 FUNC    WEAK   DEFAULT    4 _Z14unaligned_copyILj12ELj0EEvPvPKvm
  1198: 000000004034b780    30 FUNC    GLOBAL DEFAULT    4 AcpiGetTimer
  1199: 000000004061ab1c     6 OBJECT  UNIQUE DEFAULT    9 _ZN16signature_helperIJiiiPK6rlimitPS0_EE3sigE
  1200: 0000000040387b20   432 FUNC    WEAK   DEFAULT    4 _ZNSt12system_errorC1ESt10error_codePKc
  1201: 00000000404f0fe0   125 FUNC    WEAK   DEFAULT    4 _ZNKSt7__cxx1112basic_stringIcSt11char_traitsIcESaIcEE12find_last_ofEPKcmm
  1202: 000000004035dca0   163 FUNC    GLOBAL DEFAULT    4 AcpiGetData
  1203: 000000004039ac70  2011 FUNC    GLOBAL DEFAULT    4 _Z17enable_tracepointNSt7__cxx1112basic_stringIcSt11char_traitsIcESaIcEEE
  1204: 0000000040362ad0    99 FUNC    GLOBAL DEFAULT    4 AcpiDsObjStackPop
  1205: 00000000404f3dd0    10 FUNC    WEAK   DEFAULT    4 _ZNKSt7num_getIwSt19istreambuf_iteratorIwSt11char_traitsIwEEE3getES3_S3_RSt8ios_baseRSt12_Ios_IostateRPv
  1206: 0000000040306ee0    59 FUNC    GLOBAL DEFAULT    4 _ZN3vmw7vmxnet34stopEv
  1207: 00000000404f77e0  1974 FUNC    WEAK   DEFAULT    4 _ZNSt18__moneypunct_cacheIwLb0EE8_M_cacheERKSt6locale
  1208: 00000000404c9150    12 FUNC    WEAK   DEFAULT    4 _ZNKSt10moneypunctIcLb1EE13do_neg_formatEv
  1209: 000000004051a6d0   233 FUNC    WEAK   DEFAULT    4 _ZNSt10filesystem4path5_List5clearEv
  1210: 00000000405133a0   336 FUNC    WEAK   DEFAULT    4 _ZNSt11_Deque_baseINSt10filesystem4pathESaIS1_EE17_M_initialize_mapEm
  1211: 0000000040668d7c     4 OBJECT  GLOBAL DEFAULT    9 _ZNSt14numeric_limitsIDsE12max_exponentE
  1212: 000000004049b740   137 FUNC    WEAK   DEFAULT    4 _ZNSt14codecvt_bynameIcc11__mbstate_tEC1ERKNSt7__cxx1112basic_stringIcSt11char_traitsIcESaIcEEEm
  1213: 00000000404b3120    72 FUNC    WEAK   DEFAULT    4 _ZN9__gnu_cxx18stdio_sync_filebufIwSt11char_traitsIwEEC1EOS3_
  1214: 00000000403b3da0    35 FUNC    WEAK   DEFAULT    4 _ZN10epoll_fileD0Ev
  1215: 00000000404f4d90   250 FUNC    WEAK   DEFAULT    4 _ZNSt17moneypunct_bynameIwLb1EEC1ERKSsm
  1216: 0000000040373020    99 FUNC    WEAK   DEFAULT    4 _ZN9pagecache11cached_pageD0Ev
  1217: 00000000405fb0b8    40 OBJECT  WEAK   DEFAULT    9 _ZTVN3osv17invalid_elf_errorE
  1218: 0000000040460fa0    46 FUNC    GLOBAL DEFAULT    4 _ZNSt7__cxx1110moneypunctIcLb0EED0Ev
  1219: 00000000404652e0     5 FUNC    WEAK   DEFAULT    4 _ZN9__gnu_cxx10__mt_allocIcNS_20__common_pool_policyINS_6__poolELb1EEEED2Ev
  1220: 0000000040319230    57 FUNC    GLOBAL DEFAULT    4 _Z24setup_temporary_phys_mapv
  1221: 00000000403ec0a0   587 FUNC    WEAK   DEFAULT    4 _ZN25getopt_caller_vars_copierC2Ev
  1222: 0000000040512810  2686 FUNC    GLOBAL DEFAULT    4 _ZNSt10filesystem4copyERKNS_4pathES2_NS_12copy_optionsERSt10error_code
  1223: 00000000402c4b00    56 FUNC    GLOBAL DEFAULT    4 _ZN3mmu12phys_to_virtEm
  1224: 00000000404e71a0   215 FUNC    WEAK   DEFAULT    4 _ZNSt7__cxx1119basic_istringstreamIcSt11char_traitsIcESaIcEEaSEOS4_
  1225: 00000000404c3f30   334 FUNC    WEAK   DEFAULT    4 _ZNSi7putbackEc
  1226: 00000000404507f0    12 FUNC    WEAK   DEFAULT    4 _ZNK9__gnu_cxx8__detail13__mini_vectorIPmEixEm
  1227: 000000004042eea0   798 FUNC    GLOBAL DEFAULT    4 __wcsftime_l
  1228: 0000000040450fa0   233 FUNC    WEAK   DEFAULT    4 _ZN9__gnu_cxx16bitmap_allocatorIcE14_S_refill_poolEv
  1229: 00000000404671a0   465 FUNC    WEAK   DEFAULT    4 _ZN9__gnu_cxx12__pool_allocIcE8allocateEmPKv
  1230: 0000000040335820    80 FUNC    WEAK   DEFAULT    4 _Z14unaligned_copyILj2ELj10EEvPvPKvm
  1231: 00000000404f5ba0    10 FUNC    WEAK   DEFAULT    4 _ZNKSt8time_getIwSt19istreambuf_iteratorIwSt11char_traitsIwEEE8get_yearES3_S3_RSt8ios_baseRSt12_Ios_IostateP2tm
  1232: 00000000402b86e0   300 FUNC    GLOBAL DEFAULT    4 _ZN29blkfront_indirect_descriptorsD2Ev
  1233: 000000004062b500    35 OBJECT  WEAK   DEFAULT    9 _ZTSN5boost4asio2ip16bad_address_castE
  1234: 00000000404ec930   380 FUNC    WEAK   DEFAULT    4 _ZNSt7__cxx1118basic_stringstreamIwSt11char_traitsIwESaIwEEC2ESt13_Ios_Openmode
  1235: 00000000404cc990    64 FUNC    WEAK   DEFAULT    4 _ZNKSt7collateIcE9transformEPKcS2_
  1236: 00000000402e7cd0     9 FUNC    GLOBAL DEFAULT    4 _ZN3pci6device17get_subsystem_vidEv
  1237: 0000000040343a10   840 FUNC    GLOBAL DEFAULT    4 AcpiRsCreatePciRoutingTable
  1238: 00000000403b10f0    32 FUNC    WEAK   DEFAULT    4 _ZNSt17_Function_handlerIFvvESt5_BindIFM14dynamic_percpuISt10unique_ptrIN5boost9intrusive13unordered_setIN19callstack_collector5traceEJNS5_18constant_time_sizeILb0EEEEEESt14default_deleteISB_EELm8EEFvvEPSF_EEE9_M_invokeERKSt9_Any_data
  1239: 0000000040335390    62 FUNC    WEAK   DEFAULT    4 _Z14unaligned_copyILj1ELj9EEvPvPKvm
  1240: 00000000406645e1     4 OBJECT  GLOBAL DEFAULT    9 _ZNSt10money_base18_S_default_patternE
  1241: 000000004049ee00   307 FUNC    WEAK   DEFAULT    4 _ZNSt13__facet_shims14__messages_getIwEEvSt17integral_constantIbLb1EEPKNSt6locale5facetERNS_12__any_stringEiiiPKT_m
  1242: 000000004044d700    15 FUNC    GLOBAL DEFAULT    4 _ZSt14get_unexpectedv
  1243: 000000004052ab30   423 FUNC    WEAK   DEFAULT    4 _ZNSt8__detail13__to_chars_10IjEENSt9enable_ifIXsrSt5__or_IJS2_IJSt7is_sameINSt9remove_cvIT_E4typeEaES3_IS7_sES3_IS7_iES3_IS7_lES3_IS7_xES3_IS7_nEEES2_IJS3_IS7_hES3_IS7_tES3_IS7_jES3_IS7_mES3_IS7_yES3_IS7_oEEES3_IcS7_EEE5valueESt15to_chars_resultE4typeEPcSR_S5_
  1244: 00000000403d19c0  1090 FUNC    WEAK   DEFAULT    4 fcntl64
  1245: 00000000405e1950    24 OBJECT  WEAK   DEFAULT    9 _ZTIN5boost6system6detail21system_error_categoryE
  1246: 00000000403fa540   167 FUNC    GLOBAL DEFAULT    4 pthread_cond_init
  1247: 0000000040807540     4 OBJECT  GLOBAL DEFAULT   22 tcp_autorcvbuf_inc
  1248: 00000000403fb760   127 FUNC    GLOBAL DEFAULT    4 pthread_condattr_setpshared
  1249: 000000004047f3c0   255 FUNC    WEAK   DEFAULT    4 _ZNSt19basic_ostringstreamIwSt11char_traitsIwESaIwEEC2ESt13_Ios_Openmode
  1250: 00000000405f94d8    72 OBJECT  WEAK   DEFAULT    9 _ZTVN3mmu18map_file_page_readE
  1251: 0000000040800370    24 OBJECT  WEAK   DEFAULT   21 _ZTISt17moneypunct_bynameIcLb1EE
  1252: 000000004037bac0   232 FUNC    GLOBAL DEFAULT    4 _ZN6memory13alloc_tracker6forgetEPv
  1253: 00000000404255e0   157 FUNC    GLOBAL DEFAULT    4 fwrite
  1254: 00000000406693b8    15 OBJECT  WEAK   DEFAULT    9 _ZTSSt8numpunctIcE
  1255: 000000004061f528    16 OBJECT  WEAK   DEFAULT    9 _ZTIN3osv19rcu_dispose_deleterI7pollreqEE
  1256: 0000000040330900   860 FUNC    WEAK   DEFAULT    4 _Z13do_sse_memcpyILj57E14load_unaligned15store_unalignedEvPvPKv
  1257: 0000000040509260     9 FUNC    WEAK   DEFAULT    4 _ZNKSt7__cxx1112basic_stringIwSt11char_traitsIwESaIwEE12find_last_ofEwm
  1258: 0000000040304c20   133 FUNC    WEAK   DEFAULT    4 _ZN6virtio5probeINS_3rngELt4EEEPN2hw9hw_driverEPNS2_9hw_deviceE
  1259: 00000000405faf08    24 OBJECT  WEAK   DEFAULT    9 _ZTIN3elf12memory_imageE
  1260: 0000000040307880    34 FUNC    GLOBAL DEFAULT    4 _ZN3vmw15vmxnet3_txqueue17disable_interruptEv
  1261: 0000000040322490     8 FUNC    GLOBAL DEFAULT    4 _ZN25inter_processor_interrupt10get_vectorEv
  1262: 00000000402ea7a0   139 FUNC    GLOBAL DEFAULT    4 _ZN2hw14driver_managerD1Ev
  1263: 0000000040668c7c     4 OBJECT  GLOBAL DEFAULT    9 _ZNSt8ios_base9showpointE
  1264: 00000000407fc498    56 OBJECT  WEAK   DEFAULT   21 _ZTISt23__codecvt_abstract_baseIDiDu11__mbstate_tE
  1265: 00000000406637e0   368 OBJECT  UNIQUE DEFAULT    9 _ZN9__gnu_cxx4ropeIwSaIwEE10_S_min_lenE
  1266: 00000000407fab78    64 OBJECT  WEAK   DEFAULT   21 _ZTVN10__cxxabiv116__enum_type_infoE
  1267: 00000000402d7ac0    93 FUNC    GLOBAL DEFAULT    4 _ZN3elf6object8tls_addrEv
  1268: 0000000040424c70   266 FUNC    WEAK   DEFAULT    4 fputws_unlocked
  1269: 00000000404962c0    83 FUNC    WEAK   DEFAULT    4 _ZNSt7__cxx1110moneypunctIcLb1EEC2EPSt18__moneypunct_cacheIcLb1EEm
  1270: 0000000040268140     7 FUNC    GLOBAL DEFAULT    4 uma_zone_set_max
  1271: 0000000040286de0   264 FUNC    GLOBAL DEFAULT    4 in_pcbconnect_mbuf
  1272: 000000004042c880    67 FUNC    GLOBAL DEFAULT    4 wcsncmp
  1273: 000000004039b9a0    56 FUNC    WEAK   DEFAULT    4 _ZNSt17_Function_handlerIFbcENSt8__detail11_AnyMatcherINSt7__cxx1112regex_traitsIcEELb1ELb1ELb0EEEE10_M_managerERSt9_Any_dataRKS8_St18_Manager_operation
  1274: 00000000403746b0    14 FUNC    GLOBAL DEFAULT    4 _ZN6memory14wake_reclaimerEv
  1275: 000000004047ac10   178 FUNC    WEAK   DEFAULT    4 _ZNKSt19basic_istringstreamIcSt11char_traitsIcESaIcEE3strEv
  1276: 00000000403040f0  1178 FUNC    GLOBAL DEFAULT    4 _ZN6virtio3rngC1ERNS_13virtio_deviceE
  1277: 000000004051c870    20 FUNC    WEAK   DEFAULT    4 _ZNKSt12__shared_ptrIKNSt10filesystem16filesystem_error5_ImplELN9__gnu_cxx12_Lock_policyE2EE9use_countEv
  1278: 00000000405407e0   156 FUNC    WEAK   DEFAULT    4 _ZNSt12__shared_ptrIKNSt10filesystem7__cxx1116filesystem_error5_ImplELN9__gnu_cxx12_Lock_policyE2EE5resetEv
  1279: 000000004050a250    73 FUNC    WEAK   DEFAULT    4 _ZSt7getlineIwSt11char_traitsIwESaIwEERSt13basic_istreamIT_T0_ES7_RNSt7__cxx1112basic_stringIS4_S5_T1_EE
  1280: 0000000040310a50    34 FUNC    GLOBAL DEFAULT    4 _ZN4ahci3hba8add_portEjPNS_4portE
  1281: 0000000040451570   652 FUNC    WEAK   DEFAULT    4 _ZN9__gnu_cxx16bitmap_allocatorIcE27_M_deallocate_single_objectEPc
  1282: 000000004046c2b0    22 FUNC    GLOBAL DEFAULT    4 _ZNKSt20__codecvt_utf16_baseIwE13do_max_lengthEv
  1283: 0000000040326780   143 FUNC    WEAK   DEFAULT    4 _Z13do_sse_memcpyILj12E14load_unaligned15store_unalignedEvPvPKv
  1284: 0000000040668e80     4 OBJECT  GLOBAL DEFAULT    9 _ZNSt14numeric_limitsIfE12max_digits10E
  1285: 00000000405faef0    21 OBJECT  WEAK   DEFAULT    9 _ZTSN3elf12memory_imageE
  1286: 00000000402c2c90    18 FUNC    GLOBAL DEFAULT    4 randomdev_hash_finish
  1287: 00000000402e69c0    46 FUNC    GLOBAL DEFAULT    4 _ZN6zfsdev10zfs_deviceD0Ev
  1288: 0000000040340210    16 FUNC    GLOBAL DEFAULT    4 _ZN17apic_clock_eventsD2Ev
  1289: 00000000404c23f0    63 FUNC    WEAK   DEFAULT    4 _ZNSt13basic_istreamIwSt11char_traitsIwEED0Ev
  1290: 00000000407feb38    24 OBJECT  WEAK   DEFAULT   21 _ZTINSt7__cxx1115numpunct_bynameIwEE
  1291: 00000000402f7a80  1339 FUNC    GLOBAL DEFAULT    4 _ZN4nvme6driverC1ERN3pci6deviceE
  1292: 000000004033fc30    27 FUNC    GLOBAL DEFAULT    4 _ZN9processor5xapic3ipiEjj
  1293: 000000004091403c     1 OBJECT  GLOBAL DEFAULT   52 opt_maxnic
  1294: 00000000407ff590    32 OBJECT  WEAK   DEFAULT   21 _ZTTSt14basic_ofstreamIcSt11char_traitsIcEE
  1295: 00000000404070e0     9 FUNC    WEAK   DEFAULT    4 iswctype_l
  1296: 00000000404e3a10    75 FUNC    GLOBAL DEFAULT    4 _ZNSt12__sso_stringC1EOS_
  1297: 00000000402f3600    21 FUNC    GLOBAL DEFAULT    4 _ZN6virtio5vring8get_sizeEjm
  1298: 00000000402c47f0   108 FUNC    GLOBAL DEFAULT    4 _ZN3mmu8file_vmaD0Ev
  1299: 000000004023d3a0    61 FUNC    WEAK   DEFAULT    4 _ZN5boost6detail18sp_counted_impl_pdIPNS_2io18basic_altstringbufIcSt11char_traitsIcESaIcEEENS2_22basic_oaltstringstreamIcS5_S6_E5No_OpEE11get_deleterERKSt9type_info
  1300: 00000000404ee100     9 FUNC    WEAK   DEFAULT    4 _ZNSt15basic_streambufIcSt11char_traitsIcEE12__safe_gbumpEl
  1301: 00000000405406b0    20 FUNC    WEAK   DEFAULT    4 _ZNSt12__shared_ptrIKNSt10filesystem7__cxx1116filesystem_error5_ImplELN9__gnu_cxx12_Lock_policyE2EEC2Ev
  1302: 000000004030f9b0   104 FUNC    GLOBAL DEFAULT    4 _ZN4ahci4port9done_maskEv
  1303: 000000004033f680   128 FUNC    WEAK   DEFAULT    4 _Z14unaligned_copyILj5ELj2EEvPvPKvm
  1304: 000000004023dee0    85 FUNC    WEAK   DEFAULT    4 _ZThn32_N5boost10wrapexceptINS_2io13too_many_argsEED0Ev
  1305: 000000004052ee50    78 FUNC    WEAK   DEFAULT    4 _ZNSt12__shared_ptrINSt10filesystem7__cxx114_DirELN9__gnu_cxx12_Lock_policyE2EEC2ERKSt10__weak_ptrIS2_LS4_2EESt9nothrow_t
  1306: 0000000040669098     1 OBJECT  GLOBAL DEFAULT    9 _ZNSt14numeric_limitsItE8is_exactE
  1307: 00000000403b66f0   239 FUNC    GLOBAL DEFAULT    4 _ZN4dhcp9dhcp_mbufC1EbP4mbuf
  1308: 0000000040479660   385 FUNC    WEAK   DEFAULT    4 _ZNSt15basic_stringbufIcSt11char_traitsIcESaIcEEC2ERKSsSt13_Ios_Openmode
  1309: 000000004080ad1d     1 OBJECT  GLOBAL DEFAULT   22 AcpiGbl_CreateOsiMethod
  1310: 0000000040267d80    19 FUNC    GLOBAL DEFAULT    4 get_cpuid
  1311: 0000000040800a28    80 OBJECT  WEAK   DEFAULT   21 _ZTVSt15time_get_bynameIcSt19istreambuf_iteratorIcSt11char_traitsIcEEE
  1312: 0000000040941140    32 OBJECT  GLOBAL DEFAULT   52 AcpiGbl_GlobalNotify
  1313: 00000000402e1f10    16 FUNC    WEAK   DEFAULT    4 _ZN3elf12memory_imageD1Ev
  1314: 0000000040808080     8 OBJECT  GLOBAL DEFAULT   22 random_adaptor
  1315: 00000000402b0b30   108 FUNC    GLOBAL DEFAULT    4 xenbusb_localend_changed
  1316: 00000000404c9260    23 FUNC    WEAK   DEFAULT    4 _ZNSt9money_getIcSt19istreambuf_iteratorIcSt11char_traitsIcEEED1Ev
  1317: 00000000403da3c0    41 FUNC    GLOBAL DEFAULT    4 _ZN8vfs_fileC2Ej
  1318: 0000000040394d30   335 FUNC    WEAK   DEFAULT    4 _ZN5sched3cpuD0Ev
  1319: 00000000404cc510   190 FUNC    WEAK   DEFAULT    4 _ZNSt8messagesIcEC2EP15__locale_structPKcm
  1320: 000000004050ffb0   116 FUNC    GLOBAL DEFAULT    4 _ZNSt10filesystem10equivalentERKNS_4pathES2_
  1321: 0000000040322de0    59 FUNC    GLOBAL DEFAULT    4 _ZN3pci16write_pci_configEhhhhj
  1322: 0000000040326a20   194 FUNC    WEAK   DEFAULT    4 _Z13do_sse_memcpyILj15E12load_aligned13store_alignedEvPvPKv
  1323: 0000000040405d60   125 FUNC    WEAK   DEFAULT    4 _ZNSt13unordered_mapIPKviSt4hashIS1_ESt8equal_toIS1_ESaISt4pairIKS1_iEEED1Ev
  1324: 0000000040308210   527 FUNC    GLOBAL DEFAULT    4 _ZN3vmw7vmxnet320do_version_handshakeEv
  1325: 000000004061e5a8    16 OBJECT  WEAK   DEFAULT    9 _ZTINSt8__detail15_BracketMatcherINSt7__cxx1112regex_traitsIcEELb0ELb0EEE
  1326: 000000004048a880    23 FUNC    GLOBAL DEFAULT    4 _ZNSt8ios_base7failureB5cxx11D1Ev
  1327: 0000000040414680     9 FUNC    GLOBAL DEFAULT    4 ldexp
  1328: 000000004052fae0    12 FUNC    GLOBAL DEFAULT    4 _ZNKSt10filesystem7__cxx1128recursive_directory_iterator7optionsEv
  1329: 00000000403747c0    96 FUNC    GLOBAL DEFAULT    4 _ZN6memory9reclaimer18bytes_until_normalENS_8pressureE
  1330: 0000000040509320    56 FUNC    WEAK   DEFAULT    4 _ZNKSt7__cxx1112basic_stringIwSt11char_traitsIwESaIwEE17find_first_not_ofEwm
  1331: 00000000408d90a0     8 OBJECT  GLOBAL DEFAULT   48 _ZN16hpet_32bit_clock18_last_read_counterE
  1332: 0000000040628007     3 OBJECT  UNIQUE DEFAULT    9 _ZN16signature_helperIJiP6direntEE3sigE
  1333: 00000000404afdc0    80 FUNC    WEAK   DEFAULT    4 _ZSt9use_facetINSt7__cxx118numpunctIwEEERKT_RKSt6locale
  1334: 000000004050a9c0    27 FUNC    WEAK   DEFAULT    4 _ZNKSt12__shared_ptrINSt10filesystem4_DirELN9__gnu_cxx12_Lock_policyE2EE14_M_get_deleterERKSt9type_info
  1335: 0000000040506ce0    57 FUNC    WEAK   DEFAULT    4 _ZNSt7__cxx1112basic_stringIwSt11char_traitsIwESaIwEE13_S_copy_charsEPwN9__gnu_cxx17__normal_iteratorIS5_S4_EES8_
  1336: 000000004052ec60   180 FUNC    WEAK   DEFAULT    4 _ZNSt12__shared_ptrINSt10filesystem7__cxx114_DirELN9__gnu_cxx12_Lock_policyE2EEaSEOS5_
  1337: 00000000404aab00   137 FUNC    WEAK   DEFAULT    4 _ZNKSt7__cxx1110moneypunctIwLb0EE8groupingEv
  1338: 0000000040548000   129 FUNC    GLOBAL DEFAULT    4 _ZNSt3pmr28unsynchronized_pool_resource12_M_find_poolEm
  1339: 0000000040271580   117 FUNC    GLOBAL DEFAULT    4 lltable_sysctl_dumparp
  1340: 00000000405fd870    25 OBJECT  WEAK   DEFAULT    9 _ZTSN6virtio13virtio_driverE
  1341: 00000000403600d0   135 FUNC    GLOBAL DEFAULT    4 AcpiNsRepairNullElement
  1342: 0000000040267440  1169 FUNC    WEAK   DEFAULT    4 _ZN3osv7sprintfIJPFmPvEEEENSt7__cxx1112basic_stringIcSt11char_traitsIcESaIcEEEPKcDpT_
  1343: 0000000040403d80    15 FUNC    WEAK   DEFAULT    4 endpwent
  1344: 0000000040415700  1807 FUNC    WEAK   DEFAULT    4 lgammal_r
  1345: 0000000040360f20    69 FUNC    GLOBAL DEFAULT    4 AcpiNsRemoveNode
  1346: 00000000402d37a0   197 FUNC    GLOBAL DEFAULT    4 _ZN7console19console_multiplexer8write_llEPKcm
  1347: 00000000402c5a00   207 FUNC    GLOBAL DEFAULT    4 _ZN3mmu13map_file_mmapEP4file10addr_rangejjl
  1348: 000000004050bff0   273 FUNC    GLOBAL DEFAULT    4 _ZNSt10filesystem18directory_iteratorppEv
  1349: 00000000404bd790   137 FUNC    WEAK   DEFAULT    4 _ZNSt14basic_ofstreamIwSt11char_traitsIwEED2Ev
  1350: 000000004061175c     4 OBJECT  UNIQUE DEFAULT    9 _ZN16signature_helperIJPvS0_S0_EE3sigE
  1351: 00000000404ab6e0    83 FUNC    WEAK   DEFAULT    4 _ZNSt7__cxx118numpunctIwEC2EP15__locale_structm
  1352: 000000004048b360    41 FUNC    WEAK   DEFAULT    4 _ZNSt7__cxx117collateIcED1Ev
  1353: 000000004027ddf0   338 FUNC    GLOBAL DEFAULT    4 ifa_add_loopback_route
  1354: 00000000404ec0a0   117 FUNC    WEAK   DEFAULT    4 _ZNSt7__cxx1119basic_ostringstreamIwSt11char_traitsIwESaIwEED2Ev
  1355: 000000004039c410   142 FUNC    WEAK   DEFAULT    4 _ZNSt17_Function_handlerIFbcENSt8__detail11_AnyMatcherINSt7__cxx1112regex_traitsIcEELb0ELb1ELb0EEEE9_M_invokeERKSt9_Any_dataOc
  1356: 00000000403fd260    25 FUNC    GLOBAL DEFAULT    4 _ZN3osv14thread_signalsEPN5sched6threadE
  1357: 00000000404e9130   363 FUNC    WEAK   DEFAULT    4 _ZNSt7__cxx1118basic_stringstreamIcSt11char_traitsIcESaIcEEC1EOS4_
  1358: 00000000402e86a0    36 FUNC    GLOBAL DEFAULT    4 _ZN3pci3bar5readlEm
  1359: 00000000402d4060    43 FUNC    GLOBAL DEFAULT    4 _ZN7console14LineDiscipline6set_fpEP4file
  1360: 000000004054ae70   415 FUNC    WEAK   DEFAULT    4 _ZNSt7__cxx1119basic_istringstreamIwSt11char_traitsIwESaIwEEC1ESt13_Ios_OpenmodeRKS3_
  1361: 000000004038ce80   153 FUNC    GLOBAL DEFAULT    4 _ZN5sched6thread23free_tiny_syscall_stackEv
  1362: 0000000040916f60    96 OBJECT  GLOBAL DEFAULT   52 ifnet_rwlock
  1363: 000000004030c920    52 FUNC    GLOBAL DEFAULT    4 AcpiOsVprintf
  1364: 000000004045a420    47 FUNC    GLOBAL DEFAULT    4 _ZNSt15_List_node_base11_M_transferEPS_S0_
  1365: 00000000404ee400    34 FUNC    WEAK   DEFAULT    4 _ZNSt15basic_streambufIwSt11char_traitsIwEE7pubsyncEv
  1366: 00000000404ed850   218 FUNC    WEAK   DEFAULT    4 _ZNSt15basic_streambufIcSt11char_traitsIcEE6xsgetnEPcl
  1367: 00000000403f8c70     7 FUNC    GLOBAL DEFAULT    4 getpgid
  1368: 00000000404417b0    27 FUNC    GLOBAL DEFAULT    4 _ZN10__cxxabiv117__array_type_infoD0Ev
  1369: 00000000403cd540   366 FUNC    GLOBAL DEFAULT    4 rmdir
  1370: 000000004050b3a0   257 FUNC    WEAK   DEFAULT    4 _ZNSt10filesystem4_DirD2Ev
  1371: 000000004046c1f0    10 FUNC    GLOBAL DEFAULT    4 _ZNKSt7codecvtIDic11__mbstate_tE13do_max_lengthEv
  1372: 00000000404ee810    17 FUNC    WEAK   DEFAULT    4 _ZNSt15basic_streambufIwSt11char_traitsIwEE4setpEPwS3_
  1373: 0000000040375150   592 FUNC    GLOBAL DEFAULT    4 _ZN6memory9reclaimer11_do_reclaimEv
  1374: 000000004041bf40    23 FUNC    GLOBAL DEFAULT    4 tgammaf
  1375: 00000000404c94b0    36 FUNC    WEAK   DEFAULT    4 _ZNSt8time_putIcSt19ostreambuf_iteratorIcSt11char_traitsIcEEED0Ev
  1376: 0000000040407590    21 FUNC    WEAK   DEFAULT    4 toupper_l
  1377: 00000000403cbe80    18 FUNC    GLOBAL DEFAULT    4 creat
  1378: 000000004046c930    23 FUNC    GLOBAL DEFAULT    4 _ZNSt20__codecvt_utf16_baseIwED2Ev
  1379: 00000000404bec20    27 FUNC    GLOBAL DEFAULT    4 _ZNSt13__future_base12_Result_baseC1Ev
  1380: 00000000404ca3d0   104 FUNC    WEAK   DEFAULT    4 _ZNKSt5ctypeIcE6narrowEcc
  1381: 000000004038e100   148 FUNC    GLOBAL DEFAULT    4 _ZN5sched6thread22register_exit_notifierEOSt8functionIFvvEE
  1382: 000000004048c150   217 FUNC    WEAK   DEFAULT    4 _ZNKSt7__cxx1110moneypunctIcLb0EE16do_negative_signEv
  1383: 0000000040939948     8 OBJECT  GLOBAL DEFAULT   52 _ZN2hw14device_manager9_instanceE
  1384: 000000004027ba60   257 FUNC    GLOBAL DEFAULT    4 if_simloop
  1385: 000000004041c080   891 FUNC    GLOBAL DEFAULT    4 tgammal
  1386: 00000000405e14f8    16 OBJECT  WEAK   DEFAULT    9 _ZTI15tracepoint_base
  1387: 00000000405f9680   184 OBJECT  WEAK   DEFAULT    9 _ZTVN3mmu8shm_fileE
  1388: 00000000403d19c0  1090 FUNC    GLOBAL DEFAULT    4 fcntl
  1389: 00000000403eccc0   466 FUNC    GLOBAL DEFAULT    4 backtrace_symbols
  1390: 0000000040396fe0    96 FUNC    GLOBAL DEFAULT    4 _ZN15tracepoint_base16do_log_backtraceEP12trace_recordRPh
  1391: 00000000404f81c0    80 FUNC    WEAK   DEFAULT    4 _ZSt9use_facetISt8messagesIwEERKT_RKSt6locale
  1392: 0000000040914e58     4 OBJECT  GLOBAL DEFAULT   52 domain_init_status
  1393: 00000000404e3040    51 FUNC    GLOBAL DEFAULT    4 _ZNSt11regex_errorC1ENSt15regex_constants10error_typeE
  1394: 00000000404ef140    24 FUNC    WEAK   DEFAULT    4 _ZNSt7__cxx1112basic_stringIcSt11char_traitsIcESaIcEEC1ERKS3_
  1395: 0000000040326680   126 FUNC    WEAK   DEFAULT    4 _Z13do_sse_memcpyILj11E12load_aligned13store_alignedEvPvPKv
  1396: 00000000402e71f0   202 FUNC    WEAK   DEFAULT    4 _ZNSt8_Rb_treeIN2hw12hw_device_idESt4pairIKS1_PNS0_9hw_deviceEESt10_Select1stIS6_ESt4lessIS1_ESaIS6_EE16_M_emplace_equalIJS2_IS1_S5_EEEESt17_Rb_tree_iteratorIS6_EDpOT_
  1397: 000000004061acb3     4 OBJECT  UNIQUE DEFAULT    9 _ZN16signature_helperIJijiEE3sigE
  1398: 000000004033f980   212 FUNC    WEAK   DEFAULT    4 _Z14unaligned_copyILj14ELj0EEvPvPKvm
  1399: 0000000040664560     4 OBJECT  GLOBAL DEFAULT    9 _ZNSt6locale4noneE
  1400: 0000000040668e90     4 OBJECT  GLOBAL DEFAULT    9 _ZNSt14numeric_limitsIoE11round_styleE
  1401: 000000004061e3e0    67 OBJECT  WEAK   DEFAULT    9 _ZTSNSt8__detail12_CharMatcherINSt7__cxx1112regex_traitsIcEELb0ELb0EEE
  1402: 000000004038e000    30 FUNC    GLOBAL DEFAULT    4 _ZN5sched6thread10stack_infoC2EPvm
  1403: 000000004036dcc0   420 FUNC    GLOBAL DEFAULT    4 _ZN3osv3rcu26cpu_quiescent_state_threadC1EPN5sched3cpuE
  1404: 00000000405064e0   432 FUNC    WEAK   DEFAULT    4 _ZNKSt9money_getIwSt19istreambuf_iteratorIwSt11char_traitsIwEEE6do_getES3_S3_bRSt8ios_baseRSt12_Ios_IostateRSbIwS2_SaIwEE
  1405: 000000004031a510    33 FUNC    GLOBAL DEFAULT    4 resolve_fpu_state_save
  1406: 00000000407fa888    24 OBJECT  WEAK   DEFAULT   21 _ZTISt16bad_array_length
  1407: 0000000040319360  1108 FUNC    GLOBAL DEFAULT    4 _Z22arch_setup_free_memoryv
  1408: 000000004026de30   122 FUNC    GLOBAL DEFAULT    4 linux_setsockopt
  1409: 0000000040325b80    24 FUNC    WEAK   DEFAULT    4 _Z15do_small_memcpyILm32EEPvS0_PKv
  1410: 000000004036aef0   107 FUNC    GLOBAL DEFAULT    4 _Z5debugRKN5boost12basic_formatIcSt11char_traitsIcESaIcEEE
  1411: 00000000402e9370     9 FUNC    GLOBAL DEFAULT    4 _ZN3pci8function6is_msiEv
  1412: 0000000040363390   362 FUNC    GLOBAL DEFAULT    4 AcpiDsBuildInternalBufferObj
  1413: 00000000403d6e70   102 FUNC    GLOBAL DEFAULT    4 task_alloc
  1414: 00000000405086d0    83 FUNC    WEAK   DEFAULT    4 _ZNSt7__cxx1112basic_stringIwSt11char_traitsIwESaIwEE7replaceEN9__gnu_cxx17__normal_iteratorIPKwS4_EES9_PwSA_
  1415: 00000000404583a0    78 FUNC    GLOBAL DEFAULT    4 _ZNSt8ios_base5imbueERKSt6locale
  1416: 000000004036d010   101 FUNC    GLOBAL DEFAULT    4 _ZN3osv3rcu26cpu_quiescent_state_thread14set_generationEm
  1417: 00000000404c97f0    41 FUNC    WEAK   DEFAULT    4 _ZNSt14collate_bynameIcED1Ev
  1418: 0000000040375940   342 FUNC    GLOBAL DEFAULT    4 _ZN6memory4poolC2Ej
  1419: 000000004049b610   258 FUNC    WEAK   DEFAULT    4 _ZNSt7__cxx1115messages_bynameIcEC2EPKcm
  1420: 00000000404c2910   193 FUNC    WEAK   DEFAULT    4 _ZNSiaSEOSi
  1421: 00000000402c0db0    21 FUNC    GLOBAL DEFAULT    4 _Z8ena_downP11ena_adapter
  1422: 00000000404e7f70   307 FUNC    WEAK   DEFAULT    4 _ZNSt7__cxx1119basic_ostringstreamIcSt11char_traitsIcESaIcEEC1EOS4_
  1423: 00000000404f5de0   258 FUNC    WEAK   DEFAULT    4 _ZNSt15messages_bynameIwEC1EPKcm
  1424: 00000000404e0ab0   112 FUNC    WEAK   DEFAULT    4 _ZNSt13basic_ostreamIwSt11char_traitsIwEE6sentryD1Ev
  1425: 00000000407fe308    48 OBJECT  WEAK   DEFAULT   21 _ZTVNSt7__cxx119money_putIcSt19ostreambuf_iteratorIcSt11char_traitsIcEEEE
  1426: 0000000040362c00   142 FUNC    GLOBAL DEFAULT    4 AcpiDsCreateWalkState
  1427: 0000000040301280     9 FUNC    GLOBAL DEFAULT    4 _ZN6virtio3blk5probeEPN2hw9hw_deviceE
  1428: 0000000040668ba0    34 OBJECT  WEAK   DEFAULT    9 _ZTSSt9basic_iosIwSt11char_traitsIwEE
  1429: 0000000040267330    33 FUNC    WEAK   DEFAULT    4 _ZN12arc_shrinkerD2Ev
  1430: 0000000040375ba0   269 FUNC    GLOBAL DEFAULT    4 osv_register_shrinker
  1431: 0000000040362670   202 FUNC    GLOBAL DEFAULT    4 AcpiDsInitializeObjects
  1432: 0000000040666600    33 OBJECT  WEAK   DEFAULT    9 _ZTSNSt7__cxx1115numpunct_bynameIwEE
  1433: 00000000404bb240   115 FUNC    WEAK   DEFAULT    4 _ZZNSt13basic_filebufIwSt11char_traitsIwEE5closeEvEN14__close_sentryD2Ev
  1434: 0000000040305ff0   133 FUNC    WEAK   DEFAULT    4 _ZN6virtio5probeINS_2fsELt26EEEPN2hw9hw_driverEPNS2_9hw_deviceE
  1435: 000000004046c890    22 FUNC    GLOBAL DEFAULT    4 _ZNSt25__codecvt_utf8_utf16_baseIDiED0Ev
  1436: 00000000406620e0    21 OBJECT  WEAK   DEFAULT    9 _ZTSSt16bad_array_length
  1437: 00000000406691a4     1 OBJECT  GLOBAL DEFAULT    9 _ZNSt14numeric_limitsIcE9is_iec559E
  1438: 0000000040664e90    29 OBJECT  WEAK   DEFAULT    9 _ZTSSt7codecvtIDsc11__mbstate_tE
  1439: 0000000040369400   552 FUNC    GLOBAL DEFAULT    4 lockfree_mutex_unlock
  1440: 0000000040669094     4 OBJECT  GLOBAL DEFAULT    9 _ZNSt14numeric_limitsItE5radixE
  1441: 00000000403c33a0  1929 FUNC    GLOBAL DEFAULT    4 _ZN3osv11application14start_and_joinEP6waiter
  1442: 00000000404affa0    78 FUNC    WEAK   DEFAULT    4 _ZSt9has_facetINSt7__cxx118numpunctIwEEEbRKSt6locale
  1443: 000000004030db60    25 FUNC    GLOBAL DEFAULT    4 _ZN3rtcC1Ev
  1444: 00000000402d1f90   205 FUNC    WEAK   DEFAULT    4 _ZN3mmu8populateILNS_11account_optE0EE4pageILi1EEEbNS_7hw_ptepIXT_EEEm
  1445: 00000000404e5d60   123 FUNC    WEAK   DEFAULT    4 _ZNSt7__cxx1115basic_stringbufIcSt11char_traitsIcESaIcEEC2EOS4_ONS4_14__xfer_bufptrsE
  1446: 00000000405e1980    37 OBJECT  WEAK   DEFAULT    9 _ZTSN5boost6system6detail12std_categoryE
  1447: 0000000040335d00    96 FUNC    WEAK   DEFAULT    4 _Z14unaligned_copyILj3ELj9EEvPvPKvm
  1448: 0000000040665a00     2 OBJECT  GLOBAL DEFAULT    9 _ZNSt10ctype_base5upperE
  1449: 0000000040914440    16 OBJECT  UNIQUE DEFAULT   52 _ZZN5boost6system6detail15to_std_categoryERKNS0_14error_categoryEE15system_instance
  1450: 0000000040274310    30 FUNC    GLOBAL DEFAULT    4 _Z7rtioctlmPc
  1451: 00000000403d34a0   205 FUNC    GLOBAL DEFAULT    4 _Z8_fdallocP4filePii
  1452: 00000000403c32a0   222 FUNC    GLOBAL DEFAULT    4 __libc_start_main
  1453: 0000000040326230    48 FUNC    WEAK   DEFAULT    4 _Z13do_sse_memcpyILj5E14load_unaligned15store_unalignedEvPvPKv
  1454: 00000000402ac950    67 FUNC    WEAK   DEFAULT    4 _Z24notify_remote_via_evtchni
  1455: 0000000040484150    42 FUNC    WEAK   DEFAULT    4 _ZNSs3endEv
  1456: 00000000402e1890    99 FUNC    WEAK   DEFAULT    4 _ZNSt11_Deque_baseIPN3elf6objectESaIS2_EED2Ev
  1457: 00000000404f19c0    29 FUNC    WEAK   DEFAULT    4 _ZNSt7__cxx1112basic_stringIcSt11char_traitsIcESaIcEEC1ERKS4_
  1458: 00000000402e36b0   416 FUNC    WEAK   DEFAULT    4 _ZNSt8__detail9_Map_baseINSt7__cxx1112basic_stringIcSt11char_traitsIcESaIcEEESt4pairIKS6_PvESaISA_ENS_10_Select1stESt8equal_toIS6_ESt4hashIS6_ENS_18_Mod_range_hashingENS_20_Default_ranged_hashENS_20_Prime_rehash_policyENS_17_Hashtable_traitsILb1ELb0ELb1EEELb1EEixERS8_
  1459: 0000000040487bf0    46 FUNC    WEAK   DEFAULT    4 _ZNSbIwSt11char_traitsIwESaIwEEaSEPKw
  1460: 0000000040668e98     1 OBJECT  GLOBAL DEFAULT    9 _ZNSt14numeric_limitsIoE9is_iec559E
  1461: 00000000404eec20    12 FUNC    WEAK   DEFAULT    4 _ZNSt7__cxx1112basic_stringIcSt11char_traitsIcESaIcEE18_M_construct_aux_2Emc
  1462: 00000000404f1bc0    71 FUNC    WEAK   DEFAULT    4 _ZNSt7__cxx1112basic_stringIcSt11char_traitsIcESaIcEEC2ERKS4_mmRKS3_
  1463: 000000004098aa00   280 OBJECT  GLOBAL DEFAULT   52 _ZSt3cin
  1464: 00000000405419d0  2631 FUNC    GLOBAL DEFAULT    4 _ZNSt10filesystem7__cxx114path9_M_appendESt17basic_string_viewIcSt11char_traitsIcEE
  1465: 000000004023d2d0    56 FUNC    WEAK   DEFAULT    4 _ZNSt17_Function_handlerIFvvEPS0_E10_M_managerERSt9_Any_dataRKS3_St18_Manager_operation
  1466: 000000004024d130   196 FUNC    GLOBAL DEFAULT    4 SHA256_End
  1467: 00000000403fa2f0   119 FUNC    GLOBAL DEFAULT    4 pthread_rwlock_wrlock
  1468: 00000000405e22f8    72 OBJECT  WEAK   DEFAULT    9 _ZTVN5boost6system6detail22generic_error_categoryE
  1469: 00000000407fbb40    56 OBJECT  GLOBAL DEFAULT   21 _ZNSt6locale5_Impl13_S_id_numericE
  1470: 0000000040264e50   701 FUNC    GLOBAL DEFAULT    4 _ZN11socket_file9bsd_ioctlEmPv
  1471: 00000000403732b0   495 FUNC    WEAK   DEFAULT    4 _ZN9pagecache15cached_page_arcD2Ev
  1472: 000000004080b3c0   184 OBJECT  GLOBAL DEFAULT   22 sysfs_vnops
  1473: 000000004051c8c0    78 FUNC    WEAK   DEFAULT    4 _ZNSt12__shared_ptrIKNSt10filesystem16filesystem_error5_ImplELN9__gnu_cxx12_Lock_policyE2EEC1ERKSt10__weak_ptrIS3_LS5_2EESt9nothrow_t
  1474: 0000000040349880    39 FUNC    GLOBAL DEFAULT    4 AcpiUtDebugDumpBuffer
  1475: 0000000040547750    53 FUNC    GLOBAL DEFAULT    4 _ZNSt3pmr26synchronized_pool_resourceD2Ev
  1476: 0000000040423e60    47 FUNC    WEAK   DEFAULT    4 fpurge
  1477: 000000004046c6f0    23 FUNC    GLOBAL DEFAULT    4 _ZNSt7codecvtIDic11__mbstate_tED1Ev
  1478: 00000000402c5030    86 FUNC    GLOBAL DEFAULT    4 _ZN3mmu12access_faultERNS_3vmaEj
  1479: 000000004023fe30   294 FUNC    WEAK   DEFAULT    4 _ZNK5boost10wrapexceptINS_6system12system_errorEE5cloneEv
  1480: 0000000040346de0    66 FUNC    GLOBAL DEFAULT    4 AcpiUtGetInterface
  1481: 000000004034d680    63 FUNC    GLOBAL DEFAULT    4 AcpiExSystemDoStall
  1482: 0000000040271440    89 FUNC    GLOBAL DEFAULT    4 ether_crc32_be
  1483: 00000000403b5570    51 FUNC    GLOBAL DEFAULT    4 _ZN3osv7newpoll6poller9set_timerENSt6chrono10time_pointINS2_3_V212system_clockENS2_8durationIlSt5ratioILl1ELl1000000000EEEEEE
  1484: 000000004036b560   334 FUNC    GLOBAL DEFAULT    4 tprintf
  1485: 00000000404f5b30    30 FUNC    WEAK   DEFAULT    4 _ZNSt8time_getIwSt19istreambuf_iteratorIwSt11char_traitsIwEEEC1Em
  1486: 000000004044ddd0    12 FUNC    GLOBAL DEFAULT    4 _ZSt15get_new_handlerv
  1487: 00000000404f2cb0    94 FUNC    WEAK   DEFAULT    4 _ZNSt11__timepunctIwED1Ev
  1488: 000000004042c8d0    71 FUNC    GLOBAL DEFAULT    4 wcsncpy
  1489: 0000000040663ae0  2440 OBJECT  GLOBAL DEFAULT    9 _ZNSt3tr18__detail12__prime_listE
  1490: 00000000404b4b30   382 FUNC    WEAK   DEFAULT    4 _ZNSt13basic_filebufIcSt11char_traitsIcEEC2Ev
  1491: 00000000404c99c0   142 FUNC    WEAK   DEFAULT    4 _ZNKSt10moneypunctIcLb0EE11do_groupingEv
  1492: 00000000403fbf00     7 FUNC    GLOBAL DEFAULT    4 setrlimit
  1493: 0000000040403e60   198 FUNC    GLOBAL DEFAULT    4 getrusage
  1494: 000000004027c9c0   102 FUNC    GLOBAL DEFAULT    4 ifaddr_byindex
  1495: 000000004036adf0    64 FUNC    GLOBAL DEFAULT    4 debug_write
  1496: 000000004061b708    72 OBJECT  WEAK   DEFAULT    9 _ZTVN5boost6detail17sp_counted_impl_pINS_6spirit2qi3tstIKcS5_EEEE
  1497: 00000000404a0700    23 FUNC    WEAK   DEFAULT    4 _ZNSt7__cxx119money_getIwSt19istreambuf_iteratorIwSt11char_traitsIwEEED1Ev
  1498: 0000000040489680    56 FUNC    GLOBAL DEFAULT    4 _ZNSt5ctypeIwED1Ev
  1499: 000000004051c680    42 FUNC    WEAK   DEFAULT    4 _ZNSt12__shared_ptrIKNSt10filesystem16filesystem_error5_ImplELN9__gnu_cxx12_Lock_policyE2EEC1EOS6_
  1500: 00000000404572f0   153 FUNC    GLOBAL DEFAULT    4 _ZNSt8ios_base7failureD1Ev
  1501: 00000000406697e0    39 OBJECT  WEAK   DEFAULT    9 _ZTSSt13basic_ostreamIwSt11char_traitsIwEE
  1502: 000000004033eea0   174 FUNC    WEAK   DEFAULT    4 _Z14unaligned_copyILj7ELj2EEvPvPKvm
  1503: 000000004039f350   436 FUNC    WEAK   DEFAULT    4 _ZNSt8__detail4_NFAINSt7__cxx1112regex_traitsIcEEE21_M_insert_subexpr_endEv
  1504: 00000000404699f0    13 FUNC    GLOBAL DEFAULT    4 _ZNSt10ostrstream3strEv
  1505: 00000000404043d0   440 FUNC    WEAK   DEFAULT    4 eventfd2
  1506: 00000000403c3cf0     5 FUNC    WEAK   DEFAULT    4 _ZNSt15_Sp_counted_ptrIPN3osv19application_runtimeELN9__gnu_cxx12_Lock_policyE2EED2Ev
  1507: 00000000404f5b10    30 FUNC    WEAK   DEFAULT    4 _ZNSt15time_put_bynameIwSt19ostreambuf_iteratorIwSt11char_traitsIwEEEC2ERKSsm
  1508: 0000000040247ce0    29 FUNC    GLOBAL DEFAULT    4 __assert_fail
  1509: 000000004039bb20   173 FUNC    WEAK   DEFAULT    4 _ZN9trace_outD1Ev
  1510: 00000000405e97f0    40 OBJECT  WEAK   DEFAULT    9 _ZTVN6memory8shrinkerE
  1511: 00000000404ddc90    23 FUNC    WEAK   DEFAULT    4 _ZNSoC2ERSd
  1512: 00000000406089b0    12 OBJECT  GLOBAL DEFAULT    9 AcpiRsGetVendorLarge
  1513: 0000000040271200   455 FUNC    GLOBAL DEFAULT    4 ether_ifattach
  1514: 00000000402cb240    11 FUNC    WEAK   DEFAULT    4 _ZN5boost2io6detail13call_put_lastIcSt11char_traitsIcEKjEEvRSt13basic_ostreamIT_T0_EPKv
  1515: 0000000040914038     4 OBJECT  GLOBAL DEFAULT   52 maxnic
  1516: 0000000040404030   199 FUNC    GLOBAL DEFAULT    4 _ZN8event_fd11copy_to_uioEmP3uio
  1517: 00000000402df9d0  5778 FUNC    GLOBAL DEFAULT    4 _ZN3elf7program11load_objectENSt7__cxx1112basic_stringIcSt11char_traitsIcESaIcEEESt6vectorIS6_SaIS6_EERS7_ISt10shared_ptrINS_6objectEESaISC_EE
  1518: 00000000403226e0    19 FUNC    GLOBAL DEFAULT    4 _ZN18gsi_edge_interrupt6enableEv
  1519: 00000000403d8b40    98 FUNC    GLOBAL DEFAULT    4 sys_truncate
  1520: 0000000040306870   434 FUNC    GLOBAL DEFAULT    4 _ZN3vmw15vmxnet3_rxqueue6newbufEi
  1521: 00000000402cb420    82 FUNC    WEAK   DEFAULT    4 _ZN5boost2io6detail13call_put_lastIcSt11char_traitsIcEKPcEEvRSt13basic_ostreamIT_T0_EPKv
  1522: 000000004098c420   128 OBJECT  GLOBAL DEFAULT   52 _ZN9__gnu_cxx17__pool_alloc_base12_S_free_listE
  1523: 0000000040668fff     1 OBJECT  GLOBAL DEFAULT    9 _ZNSt14numeric_limitsIjE10is_boundedE
  1524: 00000000402f68b0   274 FUNC    GLOBAL DEFAULT    4 _ZN4nvme6driver18create_admin_queueEv
  1525: 0000000040509230    48 FUNC    WEAK   DEFAULT    4 _ZNKSt7__cxx1112basic_stringIwSt11char_traitsIwESaIwEE12find_last_ofEPKwm
  1526: 0000000040668e08     4 OBJECT  GLOBAL DEFAULT    9 _ZNSt14numeric_limitsIeE12max_digits10E
  1527: 00000000404ba5c0    54 FUNC    WEAK   DEFAULT    4 _ZNSt13basic_fstreamIcSt11char_traitsIcEE5closeEv
  1528: 0000000040497000    30 FUNC    WEAK   DEFAULT    4 _ZNSt7__cxx118time_getIcSt19istreambuf_iteratorIcSt11char_traitsIcEEEC1Em
  1529: 000000004030e790    86 FUNC    WEAK   DEFAULT    4 _ZThn8_N5boost10wrapexceptINS_9gregorian8bad_yearEED0Ev
  1530: 0000000040271050    92 FUNC    GLOBAL DEFAULT    4 _Z23ether_preprocess_packetP5ifnetP4mbufRt
  1531: 0000000040462040    96 FUNC    WEAK   DEFAULT    4 _ZNSt18__moneypunct_cacheIwLb1EED2Ev
  1532: 000000004023d430    13 FUNC    WEAK   DEFAULT    4 _ZNSt3mapIPKN5boost6system14error_categoryESt10unique_ptrINS1_6detail12std_categoryESt14default_deleteIS7_EENS6_12cat_ptr_lessESaISt4pairIKS4_SA_EEED1Ev
  1533: 00000000404b2ef0   190 FUNC    WEAK   DEFAULT    4 _ZN9__gnu_cxx13stdio_filebufIwSt11char_traitsIwEEC2EiSt13_Ios_Openmodem
  1534: 00000000404f3080   227 FUNC    WEAK   DEFAULT    4 _ZNKSt10moneypunctIwLb0EE11do_groupingEv
  1535: 00000000404580a0   633 FUNC    GLOBAL DEFAULT    4 _ZNSt8ios_base15sync_with_stdioEb
  1536: 00000000405e2190    40 OBJECT  WEAK   DEFAULT    9 _ZTVN5boost2io12format_errorE
  1537: 000000004030c400     5 FUNC    GLOBAL DEFAULT    4 AcpiOsWaitEventsComplete
  1538: 00000000404efcb0    25 FUNC    WEAK   DEFAULT    4 _ZNSt7__cxx1112basic_stringIcSt11char_traitsIcESaIcEE6assignEmc
  1539: 00000000408001e8    24 OBJECT  WEAK   DEFAULT   21 _ZTISt15numpunct_bynameIcE
  1540: 0000000040237380   245 FUNC    GLOBAL DEFAULT    4 premain
  1541: 00000000403c2190   666 FUNC    GLOBAL DEFAULT    4 _ZN3osv11application19request_terminationEv
  1542: 00000000407fb890    40 OBJECT  WEAK   DEFAULT   21 _ZTVNSt8ios_base7failureE
  1543: 00000000403b7ae0    20 FUNC    GLOBAL DEFAULT    4 _ZN4dhcp11dhcp_worker5renewEb
  1544: 00000000404e01c0     6 FUNC    WEAK   DEFAULT    4 _ZNSt13basic_ostreamIwSt11char_traitsIwEElsEPFRS2_S3_E
  1545: 000000004098cd48     8 OBJECT  UNIQUE DEFAULT   52 _ZGVNSt8messagesIwE2idE
  1546: 0000000040345b40    80 FUNC    GLOBAL DEFAULT    4 AcpiUtCreateIntegerObject
  1547: 0000000040664920    20 OBJECT  WEAK   DEFAULT    9 _ZTSSt15underflow_error
  1548: 000000004023d66e   206 FUNC    WEAK   DEFAULT    4 _ZNK5boost10wrapexceptINS_2io17bad_format_stringEE7rethrowEv
  1549: 000000004061ac68     5 OBJECT  UNIQUE DEFAULT    9 _ZN16signature_helperIJiPvmiEE3sigE
  1550: 00000000404e05f0    28 FUNC    WEAK   DEFAULT    4 _ZNSt13basic_ostreamIwSt11char_traitsIwEEC2Ev
  1551: 00000000402586a0    15 FUNC    GLOBAL DEFAULT    4 solisten
  1552: 0000000040514570   437 FUNC    WEAK   DEFAULT    4 _ZNSt5dequeINSt10filesystem4pathESaIS1_EE16_M_push_back_auxIIRKS1_EEEvDpOT_
  1553: 00000000409411e0   192 OBJECT  GLOBAL DEFAULT   52 AcpiGbl_MutexInfo
  1554: 0000000040394a00    25 FUNC    WEAK   DEFAULT    4 _ZNSt17_Function_handlerIFvvEN3osv19rcu_dispose_deleterIN5sched6thread14detached_stateEEEE9_M_invokeERKSt9_Any_data
  1555: 0000000040256f90    75 FUNC    GLOBAL DEFAULT    4 sbappendcontrol
  1556: 0000000040374700    61 FUNC    GLOBAL DEFAULT    4 _ZN6memory5stats17on_jvm_heap_allocEm
  1557: 00000000403fb9e0   171 FUNC    GLOBAL DEFAULT    4 pthread_kill
  1558: 00000000402d71d0   194 FUNC    GLOBAL DEFAULT    4 _ZN3elf6object7symbolsEv
  1559: 0000000040340190    88 FUNC    GLOBAL DEFAULT    4 _ZN17apic_clock_events12setup_on_cpuEv
  1560: 00000000402aff80    59 FUNC    GLOBAL DEFAULT    4 _Z20xenbus_dev_is_onlineP6device
  1561: 0000000040508ad0    77 FUNC    WEAK   DEFAULT    4 _ZNSt7__cxx1112basic_stringIwSt11char_traitsIwESaIwEE6appendEPKw
  1562: 0000000040669118     4 OBJECT  GLOBAL DEFAULT    9 _ZNSt14numeric_limitsIwE8digits10E
  1563: 0000000040665dc0    39 OBJECT  WEAK   DEFAULT    9 _ZTSNSt7__cxx1117moneypunct_bynameIcLb1EEE
  1564: 0000000040535900  2067 FUNC    GLOBAL DEFAULT    4 _ZNSt10filesystem12do_copy_fileEPKcS1_NS_26copy_options_existing_fileEP4statS4_RSt10error_code
  1565: 00000000403ca260    50 FUNC    GLOBAL DEFAULT    4 _Z4sizeN5boost13intrusive_ptrI4fileEE
  1566: 00000000405077d0   119 FUNC    WEAK   DEFAULT    4 _ZNSt7__cxx1112basic_stringIwSt11char_traitsIwESaIwEEpLEw
  1567: 00000000405f32e0    16 OBJECT  WEAK   DEFAULT    9 _ZTIN3osv19rcu_dispose_deleterINS_13rcu_hashtableIN9arp_cache5entryENS2_10entry_hashEE7elementEEE
  1568: 0000000040264b30   195 FUNC    GLOBAL DEFAULT    4 _ZN11socket_file4statEP4stat
  1569: 0000000040403dd0    72 FUNC    GLOBAL DEFAULT    4 getlogin_r
  1570: 000000004050f1c0   332 FUNC    GLOBAL DEFAULT    4 _ZNSt10filesystem6statusERKNS_4pathERSt10error_code
  1571: 00000000405097a0     8 FUNC    WEAK   DEFAULT    4 _ZNSt7__cxx1112basic_stringIwSt11char_traitsIwESaIwEE12_Alloc_hiderC1EPwRKS3_
  1572: 00000000402e1980  1101 FUNC    WEAK   DEFAULT    4 _ZNSt5dequeISt6vectorISt10shared_ptrIN3elf6objectEESaIS4_EESaIS6_EED2Ev
  1573: 00000000402f3ee0   492 FUNC    GLOBAL DEFAULT    4 _ZN6virtio5vringC1EPNS_13virtio_driverEtt
  1574: 000000004049a5b0   549 FUNC    WEAK   DEFAULT    4 _ZNKSt7__cxx118time_getIcSt19istreambuf_iteratorIcSt11char_traitsIcEEE6do_getES4_S4_RSt8ios_baseRSt12_Ios_IostateP2tmcc
  1575: 000000004026b340    66 FUNC    GLOBAL DEFAULT    4 bus_dmamap_create
  1576: 0000000040410ec0     0 FUNC    GLOBAL DEFAULT    4 __finite
  1577: 0000000040296280   110 FUNC    GLOBAL DEFAULT    4 igmp_init
  1578: 00000000405fb330    22 OBJECT  WEAK   DEFAULT    9 _ZTSN6zfsdev10zfs_deviceE
  1579: 000000004061f1ef     2 OBJECT  UNIQUE DEFAULT    9 _ZN16signature_helperIJP4fileEE3sigE
  1580: 0000000040666840    77 OBJECT  WEAK   DEFAULT    9 _ZTSNSt7__cxx1115time_get_bynameIwSt19istreambuf_iteratorIwSt11char_traitsIwEEEE
  1581: 0000000040482ee0    14 FUNC    WEAK   DEFAULT    4 _ZNKSs5crendEv
  1582: 000000004023cb50    10 FUNC    WEAK   DEFAULT    4 _ZNK5boost6system14error_category6failedEi
  1583: 0000000040481d40   142 FUNC    GLOBAL DEFAULT    4 _ZGTtNSt11logic_errorC1EPKc
  1584: 0000000040453450    47 FUNC    GLOBAL DEFAULT    4 _ZNKSt7codecvtIwc11__mbstate_tE13do_max_lengthEv
  1585: 000000004041f0c0   135 FUNC    GLOBAL DEFAULT    4 __res_msend
  1586: 000000004027bd00     5 FUNC    WEAK   DEFAULT    4 _ZN8if_cloneD2Ev
  1587: 00000000404f16b0   136 FUNC    WEAK   DEFAULT    4 _ZStplIcSt11char_traitsIcESaIcEENSt7__cxx1112basic_stringIT_T0_T1_EES5_RKS8_
  1588: 0000000040335250    62 FUNC    WEAK   DEFAULT    4 _Z14unaligned_copyILj1ELj4EEvPvPKvm
  1589: 00000000404f0340    69 FUNC    WEAK   DEFAULT    4 _ZNSt7__cxx1112basic_stringIcSt11char_traitsIcESaIcEE7replaceEmmRKS4_
  1590: 00000000403afda0   367 FUNC    GLOBAL DEFAULT    4 _ZN19callstack_collectorD2Ev
  1591: 0000000040355a20    16 FUNC    GLOBAL DEFAULT    4 AcpiPsGetName
  1592: 00000000404a6a40    80 FUNC    WEAK   DEFAULT    4 _ZSt9use_facetINSt7__cxx119money_getIwSt19istreambuf_iteratorIwSt11char_traitsIwEEEEERKT_RKSt6locale
  1593: 000000004042ee20   123 FUNC    GLOBAL DEFAULT    4 timegm
  1594: 00000000403055a0  1748 FUNC    GLOBAL DEFAULT    4 _ZN6virtio2fsC2ERNS_13virtio_deviceE
  1595: 00000000402e2df0   357 FUNC    WEAK   DEFAULT    4 _ZNSt6vectorIPN3elf6objectESaIS2_EE17_M_realloc_insertIJS2_EEEvN9__gnu_cxx17__normal_iteratorIPS2_S4_EEDpOT_
  1596: 0000000040368dd0   552 FUNC    GLOBAL DEFAULT    4 _ZN8lockfree5mutex6unlockEv
  1597: 00000000403b42b0   179 FUNC    WEAK   DEFAULT    4 _ZNSt10_HashtableI9epoll_keyS0_SaIS0_ENSt8__detail9_IdentityESt8equal_toIS0_ESt4hashIS0_ENS2_18_Mod_range_hashingENS2_20_Default_ranged_hashENS2_20_Prime_rehash_policyENS2_17_Hashtable_traitsILb1ELb1ELb1EEEE5eraseENS2_20_Node_const_iteratorIS0_Lb1ELb1EEE
  1598: 00000000403f27a0   149 FUNC    WEAK   DEFAULT    4 _IO_getc
  1599: 0000000040668ed1     1 OBJECT  GLOBAL DEFAULT    9 _ZNSt14numeric_limitsInE5trapsE
  1600: 000000004044e060   593 FUNC    GLOBAL DEFAULT    4 _ZNK10__cxxabiv117__pbase_type_info10__do_catchEPKSt9type_infoPPvj
  1601: 00000000403c64d0   136 FUNC    WEAK   DEFAULT    4 _ZNSt6thread11_State_implINS_8_InvokerISt5tupleIJPFiNSt7__cxx1112basic_stringIcSt11char_traitsIcESaIcEEESt6vectorIS8_SaIS8_EESt13unordered_mapIS8_S8_St4hashIS8_ESt8equal_toIS8_ESaISt4pairIKS8_S8_EEEPliP6waiterES8_SB_SL_SM_iSO_EEEEED1Ev
  1602: 00000000405e1a00    43 OBJECT  WEAK   DEFAULT    9 _ZTSN5boost4asio5error6detail14netdb_categoryE
  1603: 000000004061ac20     8 OBJECT  UNIQUE DEFAULT    9 _ZN16signature_helperIJliPvmiP8sockaddrPjEE3sigE
  1604: 0000000040603178    16 OBJECT  WEAK   DEFAULT    9 _ZTIN9randomdev6hw_rngE
  1605: 0000000040940c40    32 OBJECT  GLOBAL DEFAULT   52 xen_features
  1606: 00000000403e1180    91 FUNC    WEAK   DEFAULT    4 _ZNK8virtiofs11dax_managerINS_15dax_window_stubEE4findEmmRNS2_12mapping_partE
  1607: 000000004050a2b0     5 FUNC    WEAK   DEFAULT    4 _ZNSt23_Sp_counted_ptr_inplaceINSt10filesystem4_DirESaIS1_ELN9__gnu_cxx12_Lock_policyE2EED1Ev
  1608: 0000000040355ab0   122 FUNC    GLOBAL DEFAULT    4 AcpiPsGetNextPackageEnd
  1609: 0000000040668f48     1 OBJECT  GLOBAL DEFAULT    9 _ZNSt14numeric_limitsIxE15tinyness_beforeE
  1610: 0000000040349940   140 FUNC    GLOBAL DEFAULT    4 AcpiOsPurgeCache
  1611: 00000000407fdd58    40 OBJECT  WEAK   DEFAULT   21 _ZTVNSt8ios_base7failureB5cxx11E
  1612: 000000004045a4a0    19 FUNC    GLOBAL DEFAULT    4 _ZNSt15_List_node_base9_M_unhookEv
  1613: 000000004045f5a0   163 FUNC    GLOBAL DEFAULT    4 _ZNKSt8messagesIwE7do_openERKSsRKSt6locale
  1614: 0000000040291df0   656 FUNC    GLOBAL DEFAULT    4 _Z9rip_inputP4mbufi
  1615: 00000000403b67e0   143 FUNC    GLOBAL DEFAULT    4 _ZN4dhcp9dhcp_mbufD2Ev
  1616: 00000000404c7230   362 FUNC    WEAK   DEFAULT    4 _ZNSt13basic_istreamIwSt11char_traitsIwEE8readsomeEPwl
  1617: 000000004030c190   256 FUNC    GLOBAL DEFAULT    4 AcpiOsWaitSemaphore
  1618: 00000000404f1290    87 FUNC    WEAK   DEFAULT    4 _ZNKSt7__cxx1112basic_stringIcSt11char_traitsIcESaIcEE7compareERKS4_
  1619: 0000000040508e20     8 FUNC    WEAK   DEFAULT    4 _ZNKSt7__cxx1112basic_stringIwSt11char_traitsIwESaIwEE4dataEv
  1620: 00000000402e13b0    20 FUNC    WEAK   DEFAULT    4 _ZNSt23_Sp_counted_ptr_inplaceIN3elf12memory_imageESaIS1_ELN9__gnu_cxx12_Lock_policyE2EE10_M_disposeEv
  1621: 00000000402b85f0   112 FUNC    GLOBAL DEFAULT    4 _ZN28blkfront_indirect_descriptor3mapEP6device
  1622: 00000000404b6160   225 FUNC    WEAK   DEFAULT    4 _ZNSt14basic_ofstreamIcSt11char_traitsIcEEC2EOS2_
  1623: 00000000405e2340    72 OBJECT  WEAK   DEFAULT    9 _ZTVN5boost6system6detail21system_error_categoryE
  1624: 00000000403e1700    20 FUNC    WEAK   DEFAULT    4 _ZN8virtiofs11dax_managerINS_15dax_window_stubEE7mappingC1Emmmm
  1625: 00000000403c4110    13 FUNC    WEAK   DEFAULT    4 _ZNSt23_Sp_counted_ptr_inplaceIN3osv11applicationESaIS1_ELN9__gnu_cxx12_Lock_policyE2EE10_M_disposeEv
  1626: 00000000403ce780     0 FUNC    GLOBAL DEFAULT    4 stat64
  1627: 00000000403d8ca0   314 FUNC    GLOBAL DEFAULT    4 sys_readlink
  1628: 0000000040379b90   189 FUNC    WEAK   DEFAULT    4 _ZN14dynamic_percpuIN6memory4pool14free_list_typeELm8EED2Ev
  1629: 0000000040486c80   150 FUNC    WEAK   DEFAULT    4 _ZNKSbIwSt11char_traitsIwESaIwEE7compareEmmPKw
  1630: 0000000040611240     8 OBJECT  WEAK   DEFAULT    9 _ZTS6logger
  1631: 0000000040951600    40 OBJECT  GLOBAL DEFAULT   52 _ZN6memory16early_alloc_lockE
  1632: 0000000040266e40   110 FUNC    GLOBAL DEFAULT    4 getmicrouptime
  1633: 00000000403f2f30   138 FUNC    GLOBAL DEFAULT    4 sscanf
  1634: 0000000040358290   177 FUNC    GLOBAL DEFAULT    4 AcpiEvDeleteGpeXrupt
  1635: 000000004030b010   630 FUNC    WEAK   DEFAULT    4 _ZN3vmw15vmxnet3_txqueueC1Ev
  1636: 00000000404df070   575 FUNC    WEAK   DEFAULT    4 _ZNSo9_M_insertImEERSoT_
  1637: 000000004098c8f0     8 OBJECT  UNIQUE DEFAULT   52 _ZNSt7num_putIcSt19ostreambuf_iteratorIcSt11char_traitsIcEEE2idE
  1638: 0000000040604128    16 OBJECT  WEAK   DEFAULT    9 _ZTIZN3vmw15vmxnet3_txqueueC4EvEUlvE_
  1639: 00000000404b28f0    53 FUNC    WEAK   DEFAULT    4 _ZN9__gnu_cxx18stdio_sync_filebufIwSt11char_traitsIwEE8overflowEj
  1640: 00000000402affc0     5 FUNC    GLOBAL DEFAULT    4 _Z23xenbus_localend_changedP6devicePKc
  1641: 0000000040403d50     7 FUNC    GLOBAL DEFAULT    4 setgroups
  1642: 00000000402e9360     9 FUNC    GLOBAL DEFAULT    4 _ZN3pci8function7is_msixEv
  1643: 0000000040665e00    70 OBJECT  WEAK   DEFAULT    9 _ZTSNSt7__cxx119money_getIcSt19istreambuf_iteratorIcSt11char_traitsIcEEEE
  1644: 000000004048a8c0     9 FUNC    GLOBAL DEFAULT    4 _ZNKSt8ios_base7failureB5cxx114whatEv
  1645: 000000004046c1c0    13 FUNC    GLOBAL DEFAULT    4 _ZNKSt19__codecvt_utf8_baseIDiE10do_unshiftER11__mbstate_tPcS3_RS3_
  1646: 00000000404e3b90    86 FUNC    WEAK   DEFAULT    4 _ZNSt7__cxx1115basic_stringbufIwSt11char_traitsIwESaIwEE9pbackfailEj
  1647: 00000000404a0870    79 FUNC    WEAK   DEFAULT    4 _ZNSt7__cxx118messagesIwED2Ev
  1648: 0000000040429850   145 FUNC    GLOBAL DEFAULT    4 wprintf
  1649: 00000000404e4100   139 FUNC    WEAK   DEFAULT    4 _ZTv0_n24_NSt7__cxx1119basic_ostringstreamIcSt11char_traitsIcESaIcEED0Ev
  1650: 00000000406690e8     4 OBJECT  GLOBAL DEFAULT    9 _ZNSt14numeric_limitsIwE11round_styleE
  1651: 0000000040386d50  1488 FUNC    GLOBAL DEFAULT    4 _ZN3osv18parse_command_lineENSt7__cxx1112basic_stringIcSt11char_traitsIcESaIcEEERb
  1652: 000000004044bd80     9 FUNC    GLOBAL DEFAULT    4 _ZdlPvSt11align_val_tRKSt9nothrow_t
  1653: 000000004026a8b0    65 FUNC    WEAK   DEFAULT    4 _ZN10synch_portD1Ev
  1654: 00000000403306a0   604 FUNC    WEAK   DEFAULT    4 _Z13do_sse_memcpyILj41E14load_unaligned15store_unalignedEvPvPKv
  1655: 000000004044fd70   107 FUNC    GLOBAL DEFAULT    4 _ZNSt12__basic_fileIcE8sys_openEiSt13_Ios_Openmode
  1656: 00000000402dd9d0  2024 FUNC    GLOBAL DEFAULT    4 _ZN3elf7programC2EPv
  1657: 000000004046c1d0     7 FUNC    GLOBAL DEFAULT    4 _ZNKSt25__codecvt_utf8_utf16_baseIDsE11do_encodingEv
  1658: 0000000040665fa1     1 OBJECT  UNIQUE DEFAULT    9 _ZNSt7__cxx1117moneypunct_bynameIcLb1EE4intlE
  1659: 00000000403769e0  1002 FUNC    GLOBAL DEFAULT    4 free
  1660: 000000004030c540    73 FUNC    GLOBAL DEFAULT    4 AcpiOsWritePort
  1661: 00000000403234f0   111 FUNC    GLOBAL DEFAULT    4 _ZN11msix_vector9interruptEv
  1662: 00000000406080d0   128 OBJECT  WEAK   DEFAULT    9 _ZTVN9processor6x2apicE
  1663: 0000000040379f50   129 FUNC    WEAK   DEFAULT    4 _ZN5boost8lockfree5stackIPN6memory9page_pool10page_batchEJNS0_11fixed_sizedILb1EEEEED1Ev
  1664: 0000000040957711     1 OBJECT  GLOBAL DEFAULT   52 tracepoint_patch_sites
  1665: 000000004039ca10   158 FUNC    WEAK   DEFAULT    4 _ZNSt7__cxx1111basic_regexIcNS_12regex_traitsIcEEED2Ev
  1666: 00000000403f8de0     7 FUNC    GLOBAL DEFAULT    4 getsid
  1667: 000000004053e480     5 FUNC    WEAK   DEFAULT    4 _ZNSt23_Sp_counted_ptr_inplaceINSt10filesystem7__cxx1116filesystem_error5_ImplESaIS3_ELN9__gnu_cxx12_Lock_policyE2EED1Ev
  1668: 0000000040455340    64 FUNC    WEAK   DEFAULT    4 _ZNSt7__cxx1115basic_stringbufIwSt11char_traitsIwESaIwEED1Ev
  1669: 00000000404c4930    30 FUNC    WEAK   DEFAULT    4 _ZStrsIcSt11char_traitsIcEERSt13basic_istreamIT_T0_ES6_PS3_
  1670: 0000000040485e00    16 FUNC    GLOBAL DEFAULT    4 _ZNSt13random_device7_M_initERKSs
  1671: 000000004034e640   142 FUNC    GLOBAL DEFAULT    4 AcpiExPrepCommonFieldObject
  1672: 000000004050ed20   221 FUNC    GLOBAL DEFAULT    4 _ZNSt10filesystem9file_sizeERKNS_4pathERSt10error_code
  1673: 00000000403eb6f0     9 FUNC    GLOBAL DEFAULT    4 __strtod_l
  1674: 0000000040394aa0    16 FUNC    WEAK   DEFAULT    4 _ZN5sched10timer_list17callback_dispatchD2Ev
  1675: 0000000040429ea0    15 FUNC    GLOBAL DEFAULT    4 labs
  1676: 00000000404ee8b0    13 FUNC    WEAK   DEFAULT    4 _ZNSt15basic_streambufIwSt11char_traitsIwEE12__safe_pbumpEl
  1677: 000000004033e3d0   225 FUNC    WEAK   DEFAULT    4 _Z14unaligned_copyILj9ELj2EEvPvPKvm
  1678: 0000000040311cf0   173 FUNC    WEAK   DEFAULT    4 _ZNK4ahci3hba8get_nameB5cxx11Ev
  1679: 0000000040549480   131 FUNC    WEAK   DEFAULT    4 _ZNSt7__cxx1115basic_stringbufIcSt11char_traitsIcESaIcEEC1ESt13_Ios_OpenmodeRKS3_
  1680: 0000000040479a70    72 FUNC    WEAK   DEFAULT    4 _ZNSt15basic_stringbufIcSt11char_traitsIcESaIcEEC2EOS3_ONS3_14__xfer_bufptrsE
  1681: 00000000402da280   584 FUNC    GLOBAL DEFAULT    4 _ZN3elf6objectC1ERNS_7programENSt7__cxx1112basic_stringIcSt11char_traitsIcESaIcEEE
  1682: 000000004036dea0    25 FUNC    WEAK   DEFAULT    4 _ZNSt6vectorIPN3osv3rcu26cpu_quiescent_state_threadESaIS3_EED1Ev
  1683: 0000000040456f20   148 FUNC    WEAK   DEFAULT    4 _ZN9__gnu_cxx4ropeIcSaIcEE8_S_fetchEPNS_13_Rope_RopeRepIcS1_EEm
  1684: 00000000404ee7f0     9 FUNC    WEAK   DEFAULT    4 _ZNKSt15basic_streambufIwSt11char_traitsIwEE5epptrEv
  1685: 000000004066a060    45 OBJECT  WEAK   DEFAULT    9 _ZTSSt23__codecvt_abstract_baseIwc11__mbstate_tE
  1686: 00000000403fff10    24 FUNC    GLOBAL DEFAULT    4 posix_madvise
  1687: 000000004023f080    33 FUNC    WEAK   DEFAULT    4 _ZNSt14_Function_baseD2Ev
  1688: 00000000402685d0    32 FUNC    WEAK   DEFAULT    4 _ZNSt17_Function_handlerIFvvESt5_BindIFM14dynamic_percpuI19autoconstructed_ptrIN8uma_zone5cacheEELm8EEFvvEPS7_EEE9_M_invokeERKSt9_Any_data
  1689: 00000000403678f0    41 FUNC    GLOBAL DEFAULT    4 intr_remove_handler
  1690: 0000000040276c40    11 FUNC    GLOBAL DEFAULT    4 _Z9raw_inputP4mbufP9sockprotoP12bsd_sockaddr
  1691: 000000004098c7f0     8 OBJECT  UNIQUE DEFAULT   52 _ZNSt7__cxx117collateIwE2idE
  1692: 00000000404d0810   831 FUNC    WEAK   DEFAULT    4 _ZNKSt7num_putIcSt19ostreambuf_iteratorIcSt11char_traitsIcEEE13_M_insert_intIlEES3_S3_RSt8ios_basecT_
  1693: 0000000040487760    74 FUNC    WEAK   DEFAULT    4 _ZNSbIwSt11char_traitsIwESaIwEE5eraseEN9__gnu_cxx17__normal_iteratorIPwS2_EES6_
  1694: 0000000040272e20   130 FUNC    GLOBAL DEFAULT    4 _Z9rn_lookupPvS_P15radix_node_head
  1695: 00000000406695e0    60 OBJECT  WEAK   DEFAULT    9 _ZTSSt9money_getIcSt19istreambuf_iteratorIcSt11char_traitsIcEEE
  1696: 0000000040800a78    56 OBJECT  WEAK   DEFAULT   21 _ZTVSt15messages_bynameIcE
  1697: 00000000403f71e0   274 FUNC    WEAK   DEFAULT    4 rawmemchr
  1698: 00000000406690d5     1 OBJECT  GLOBAL DEFAULT    9 _ZNSt14numeric_limitsIsE10is_integerE
  1699: 000000004038e950    55 FUNC    GLOBAL DEFAULT    4 _ZN5sched10timer_baseC1ERNS0_6clientE
  1700: 0000000040268a70    35 FUNC    GLOBAL DEFAULT    4 _ZN8callouts7get_oneEv
  1701: 00000000402ac790   434 FUNC    GLOBAL DEFAULT    4 _Z11evtchn_initPv
  1702: 0000000040669166     1 OBJECT  GLOBAL DEFAULT    9 _ZNSt14numeric_limitsIaE9is_moduloE
  1703: 000000004061e248    16 OBJECT  WEAK   DEFAULT    9 _ZTINSt8__detail11_AnyMatcherINSt7__cxx1112regex_traitsIcEELb0ELb1ELb1EEE
  1704: 0000000040317860    13 FUNC    GLOBAL DEFAULT    4 device_set_ivars
  1705: 000000004035ebf0   184 FUNC    GLOBAL DEFAULT    4 AcpiGetParent
  1706: 00000000404f6760   393 FUNC    WEAK   DEFAULT    4 _ZNKSt8time_getIwSt19istreambuf_iteratorIwSt11char_traitsIwEEE11do_get_yearES3_S3_RSt8ios_baseRSt12_Ios_IostateP2tm
  1707: 000000004042f3a0    33 FUNC    GLOBAL DEFAULT    4 tcsetpgrp
  1708: 000000004034ba10   113 FUNC    GLOBAL DEFAULT    4 AcpiHwExecuteSleepMethod
  1709: 0000000040668d54     4 OBJECT  GLOBAL DEFAULT    9 _ZNSt14numeric_limitsIDiE12max_digits10E
  1710: 0000000040325af0    36 FUNC    WEAK   DEFAULT    4 _Z15do_small_memcpyILm29EEPvS0_PKv
  1711: 00000000404887b0    98 FUNC    WEAK   DEFAULT    4 _ZNSbIwSt11char_traitsIwESaIwEEC2ERKS2_RKS1_
  1712: 00000000402653c0   425 FUNC    GLOBAL DEFAULT    4 disk_err
  1713: 00000000404c3ca0   300 FUNC    WEAK   DEFAULT    4 _ZNSi4readEPcl
  1714: 0000000040545f10    11 FUNC    WEAK   DEFAULT    4 _ZNKSt3pmr26synchronized_pool_resource11do_is_equalERKNS_15memory_resourceE
  1715: 0000000040357fa0    85 FUNC    GLOBAL DEFAULT    4 AcpiPsGetOpcodeInfo
  1716: 00000000404cb850    83 FUNC    WEAK   DEFAULT    4 _ZNSt8numpunctIcEC1EP15__locale_structm
  1717: 000000004046f520    67 FUNC    WEAK   DEFAULT    4 _ZNSt14basic_ifstreamIcSt11char_traitsIcEE4openERKSsSt13_Ios_Openmode
  1718: 0000000040546ad0   141 FUNC    WEAK   DEFAULT    4 _ZNSt3pmr25monotonic_buffer_resource11do_allocateEmm
  1719: 0000000040668f86     1 OBJECT  GLOBAL DEFAULT    9 _ZNSt14numeric_limitsImE9is_moduloE
  1720: 0000000040244a70  1009 FUNC    WEAK   DEFAULT    4 _ZN5boost12basic_formatIcSt11char_traitsIcESaIcEE18make_or_reuse_dataEm
  1721: 00000000404849d0   141 FUNC    WEAK   DEFAULT    4 _ZNSs4_Rep8_M_cloneERKSaIcEm
  1722: 00000000404f45e0    87 FUNC    WEAK   DEFAULT    4 _ZNSt10moneypunctIwLb1EEC1Em
  1723: 00000000404ab220   250 FUNC    WEAK   DEFAULT    4 _ZNSt7__cxx1117moneypunct_bynameIwLb0EEC2EPKcm
  1724: 000000004038cae0   227 FUNC    GLOBAL DEFAULT    4 _ZN5sched6thread9switch_toEv
  1725: 0000000040611d88    72 OBJECT  WEAK   DEFAULT    9 _ZTIN5boost10wrapexceptINS_7bad_getEEE
  1726: 00000000402f1de0    18 FUNC    GLOBAL DEFAULT    4 _ZN6virtio24virtio_legacy_pci_device16read_and_ack_isrEv
  1727: 00000000404ca5f0    30 FUNC    WEAK   DEFAULT    4 _ZNSt7num_putIcSt19ostreambuf_iteratorIcSt11char_traitsIcEEEC2Em
  1728: 0000000040324910   285 FUNC    GLOBAL DEFAULT    4 _ZN3xen16xen_set_callbackEi
  1729: 00000000404f19e0    16 FUNC    WEAK   DEFAULT    4 _ZNSt7__cxx1112basic_stringIcSt11char_traitsIcESaIcEEC2IPcvEET_S7_RKS3_
  1730: 00000000404c4420   316 FUNC    WEAK   DEFAULT    4 _ZNSi5seekgESt4fposI11__mbstate_tE
  1731: 0000000040495f90   137 FUNC    WEAK   DEFAULT    4 _ZNKSt7__cxx1110moneypunctIcLb0EE8groupingEv
  1732: 00000000402c40d0   428 FUNC    GLOBAL DEFAULT    4 live_entropy_sources_feed
  1733: 00000000404b2c70     9 FUNC    WEAK   DEFAULT    4 _ZN9__gnu_cxx13stdio_filebufIcSt11char_traitsIcEE4swapERS3_
  1734: 000000004080ae40    64 OBJECT  GLOBAL DEFAULT   22 iftovt_tab
  1735: 0000000040375aa0    59 FUNC    GLOBAL DEFAULT    4 _ZN6memory11malloc_poolC1Ev
  1736: 0000000040319f30    12 FUNC    WEAK   DEFAULT    4 _ZNSt17_Function_handlerIFPN2hw9hw_driverEPNS0_9hw_deviceEEPS5_E9_M_invokeERKSt9_Any_dataOS4_
  1737: 00000000402f6d70  1212 FUNC    GLOBAL DEFAULT    4 _ZN4nvme6driver12make_requestEP3bioj
  1738: 0000000040668dd0     4 OBJECT  GLOBAL DEFAULT    9 _ZNSt14numeric_limitsIDuE8digits10E
  1739: 00000000403d5e20    53 FUNC    WEAK   DEFAULT    4 _ZNSt7__cxx114listIP5mountSaIS2_EED1Ev
  1740: 0000000040668f0e     1 OBJECT  GLOBAL DEFAULT    9 _ZNSt14numeric_limitsIyE9is_moduloE
  1741: 000000004061ac95     7 OBJECT  UNIQUE DEFAULT    9 _ZN16signature_helperIJlPiPmmPviEE3sigE
  1742: 00000000403f0790    76 FUNC    WEAK   DEFAULT    4 _ZN5boost10wrapexceptINS_4asio2ip16bad_address_castEED1Ev
  1743: 00000000404523b0   190 FUNC    GLOBAL DEFAULT    4 _ZSt14__convert_to_vIdEvPKcRT_RSt12_Ios_IostateRKP15__locale_struct
  1744: 0000000040488e50    31 FUNC    WEAK   DEFAULT    4 _ZNSbIwSt11char_traitsIwESaIwEEC2ESt16initializer_listIwERKS1_
  1745: 0000000040545f20    11 FUNC    WEAK   DEFAULT    4 _ZNKSt3pmr28unsynchronized_pool_resource11do_is_equalERKNS_15memory_resourceE
  1746: 000000004038de30   222 FUNC    GLOBAL DEFAULT    4 _ZN5sched3cpu8notifierD1Ev
  1747: 0000000040325910    35 FUNC    WEAK   DEFAULT    4 _Z15do_small_memcpyILm15EEPvS0_PKv
  1748: 00000000404f1c10    19 FUNC    WEAK   DEFAULT    4 _ZNSt7__cxx1112basic_stringIcSt11char_traitsIcESaIcEEC1EPKcmRKS3_
  1749: 000000004044fb80     5 FUNC    WEAK   DEFAULT    4 _ZNSaIcEC1Ev
  1750: 00000000402cb100     9 FUNC    WEAK   DEFAULT    4 _ZN3mmu35initialized_anonymous_page_providerD0Ev
  1751: 00000000402d96c0    54 FUNC    GLOBAL DEFAULT    4 _ZN3elf4fileD1Ev
  1752: 0000000040396ae0   198 FUNC    GLOBAL DEFAULT    4 _ZN15tracepoint_base6updateEv
  1753: 0000000040324800   264 FUNC    GLOBAL DEFAULT    4 _ZN3xen16xen_set_callbackEv
  1754: 00000000403876b0   149 FUNC    WEAK   DEFAULT    4 _ZN5boost6detail8function15functor_managerINS_6spirit2qi6detail13parser_binderINS4_17no_skip_directiveINS4_4plusINS4_11alternativeINS_6fusion4consINS4_9referenceINS4_7symbolsIKcSE_NS4_3tstISE_SE_EENS4_16tst_pass_throughEEEEENSB_INS4_10differenceINSK_INSK_INSK_INS4_10char_classINS3_3tag9char_codeINSM_5char_ENS3_13char_encoding5asciiEEEEENS4_12literal_charINSP_8standardELb1ELb0EEEEESV_EESV_EESV_EENSA_4nil_EEEEEEEEEEEN4mpl_5bool_ILb1EEEEEE6manageERKNS1_15function_bufferERS1B_NS1_30functor_manager_operation_typeE
  1755: 0000000040669560    36 OBJECT  WEAK   DEFAULT    9 _ZTSSt14codecvt_bynameIcc11__mbstate_tE
  1756: 00000000402f26c0    67 FUNC    GLOBAL DEFAULT    4 _ZN6virtio17virtio_pci_deviceD1Ev
  1757: 0000000040549510   131 FUNC    WEAK   DEFAULT    4 _ZNSt7__cxx1115basic_stringbufIcSt11char_traitsIcESaIcEEC1EOS4_RKS3_ONS4_14__xfer_bufptrsE
  1758: 00000000404ca690    80 FUNC    WEAK   DEFAULT    4 _ZSt9use_facetISt9money_putIcSt19ostreambuf_iteratorIcSt11char_traitsIcEEEERKT_RKSt6locale
  1759: 000000004023d100    16 FUNC    WEAK   DEFAULT    4 _ZN5boost2io17bad_format_stringD2Ev
  1760: 00000000403c65f0   161 FUNC    WEAK   DEFAULT    4 _ZNSt10_HashtableINSt7__cxx1112basic_stringIcSt11char_traitsIcESaIcEEESt4pairIKS5_S5_ESaIS8_ENSt8__detail10_Select1stESt8equal_toIS5_ESt4hashIS5_ENSA_18_Mod_range_hashingENSA_20_Default_ranged_hashENSA_20_Prime_rehash_policyENSA_17_Hashtable_traitsILb1ELb0ELb1EEEEC2EOSL_OSaINSA_10_Hash_nodeIS8_Lb1EEEESt17integral_constantIbLb1EE
  1761: 000000004047ff40     9 FUNC    WEAK   DEFAULT    4 _ZNKSt19basic_ostringstreamIwSt11char_traitsIwESaIwEE5rdbufEv
  1762: 000000004047ae20   333 FUNC    WEAK   DEFAULT    4 _ZNSt19basic_ostringstreamIcSt11char_traitsIcESaIcEEC1Ev
  1763: 000000004095086a     1 OBJECT  GLOBAL DEFAULT   52 _ZN3osv13rcu_read_lockE
  1764: 00000000406070f8    24 OBJECT  WEAK   DEFAULT    9 _ZTI19gsi_level_interrupt
  1765: 000000004039f920   147 FUNC    WEAK   DEFAULT    4 _ZNSt8__detail15_BracketMatcherINSt7__cxx1112regex_traitsIcEELb0ELb0EED1Ev
  1766: 000000004042ba50     0 FUNC    GLOBAL DEFAULT    4 __strndup
  1767: 00000000402e7e00    18 FUNC    GLOBAL DEFAULT    4 _ZN3pci8function6get_idEv
  1768: 00000000406650d0    27 OBJECT  WEAK   DEFAULT    9 _ZTSSt19__codecvt_utf8_baseIwE
  1769: 00000000403fa5f0    29 FUNC    GLOBAL DEFAULT    4 pthread_cond_destroy
  1770: 0000000040665820    49 OBJECT  WEAK   DEFAULT    9 _ZTSSt18basic_stringstreamIwSt11char_traitsIwESaIwEE
  1771: 000000004038d0d0   156 FUNC    GLOBAL DEFAULT    4 setup_large_syscall_stack
  1772: 00000000404be830    22 FUNC    GLOBAL DEFAULT    4 _ZNSt12future_errorD0Ev
  1773: 000000004040ba70   389 FUNC    GLOBAL DEFAULT    4 asinf
  1774: 000000004066907c     4 OBJECT  GLOBAL DEFAULT    9 _ZNSt14numeric_limitsItE10has_denormE
  1775: 0000000040506d60    57 FUNC    WEAK   DEFAULT    4 _ZNSt7__cxx1112basic_stringIwSt11char_traitsIwESaIwEE13_S_copy_charsEPwS5_S5_
  1776: 000000004044bda0     9 FUNC    GLOBAL DEFAULT    4 _ZdlPvm
  1777: 000000004040bc00   384 FUNC    GLOBAL DEFAULT    4 asinh
  1778: 00000000404c8cd0   318 FUNC    WEAK   DEFAULT    4 _ZNSt13basic_istreamIwSt11char_traitsIwEE10_M_extractIdEERS2_RT_
  1779: 00000000404afb00    79 FUNC    WEAK   DEFAULT    4 _ZNSt7__cxx117collateIwEC2Em
  1780: 00000000403effb0   254 FUNC    GLOBAL DEFAULT    4 __dns_query
  1781: 000000004050abf0    33 FUNC    WEAK   DEFAULT    4 _ZNSt12__shared_ptrINSt10filesystem28recursive_directory_iterator10_Dir_stackELN9__gnu_cxx12_Lock_policyE2EE4swapERS5_
  1782: 00000000404e9900   226 FUNC    WEAK   DEFAULT    4 _ZNSt7__cxx1115basic_stringbufIwSt11char_traitsIwESaIwEE7seekposESt4fposI11__mbstate_tESt13_Ios_Openmode
  1783: 0000000040335b20    96 FUNC    WEAK   DEFAULT    4 _Z14unaligned_copyILj3ELj4EEvPvPKvm
  1784: 000000004040c010   421 FUNC    GLOBAL DEFAULT    4 asinl
  1785: 00000000404c20e0   191 FUNC    WEAK   DEFAULT    4 _ZNSt14basic_iostreamIwSt11char_traitsIwEEaSEOS2_
  1786: 00000000403264a0    66 FUNC    WEAK   DEFAULT    4 _Z13do_sse_memcpyILj7E12load_aligned13store_alignedEvPvPKv
  1787: 00000000404dde90   160 FUNC    WEAK   DEFAULT    4 _ZNSoaSEOSo
  1788: 000000004030d020    90 FUNC    WEAK   DEFAULT    4 _ZN9semaphore4postEj
  1789: 000000004046cd10   137 FUNC    GLOBAL DEFAULT    4 _ZNKSt7codecvtIDiDu11__mbstate_tE9do_lengthERS0_PKDuS4_m
  1790: 0000000040489290    14 FUNC    WEAK   DEFAULT    4 _ZN9__gnu_cxxeqIPwSbIwSt11char_traitsIwESaIwEEEEbRKNS_17__normal_iteratorIT_T0_EESB_
  1791: 00000000402e7e40    25 FUNC    GLOBAL DEFAULT    4 _ZN3pci8function9pci_readbEh
  1792: 0000000040364200   128 FUNC    GLOBAL DEFAULT    4 AcpiDsInitCallbacks
  1793: 0000000040456340     5 FUNC    WEAK   DEFAULT    4 _ZN9__gnu_cxx19__function_requiresINS_21_InputIteratorConceptIPKwEEEEvv
  1794: 0000000040292750    13 FUNC    WEAK   DEFAULT    4 _ZN9inpcbinfoD2Ev
  1795: 000000004039e9d0   506 FUNC    WEAK   DEFAULT    4 _ZNSt8__detail8_ScannerIcE18_M_scan_in_bracketEv
  1796: 00000000407fcb40    88 OBJECT  WEAK   DEFAULT   21 _ZTVSt25__codecvt_utf8_utf16_baseIwE
  1797: 00000000404efda0    19 FUNC    WEAK   DEFAULT    4 _ZNSt7__cxx1112basic_stringIcSt11char_traitsIcESaIcEE7replaceEN9__gnu_cxx17__normal_iteratorIPKcS4_EES9_mc
  1798: 00000000404f46a0    83 FUNC    WEAK   DEFAULT    4 _ZNSt10moneypunctIwLb1EEC2EP15__locale_structPKcm
  1799: 00000000404823a0   142 FUNC    GLOBAL DEFAULT    4 _ZGTtNSt12out_of_rangeC2EPKc
  1800: 00000000402f1dc0    18 FUNC    GLOBAL DEFAULT    4 _ZN6virtio24virtio_legacy_pci_device10get_statusEv
  1801: 0000000040419d70   188 FUNC    GLOBAL DEFAULT    4 round
  1802: 00000000402e87f0    75 FUNC    GLOBAL DEFAULT    4 _ZN3pci8functionC1Ehhh
  1803: 0000000040490e40  3768 FUNC    WEAK   DEFAULT    4 _ZNKSt7num_getIcSt19istreambuf_iteratorIcSt11char_traitsIcEEE14_M_extract_intB5cxx11IyEES3_S3_S3_RSt8ios_baseRSt12_Ios_IostateRT_
  1804: 00000000404525b0    12 FUNC    GLOBAL DEFAULT    4 _ZNSt6locale5facet17_S_clone_c_localeERP15__locale_struct
  1805: 00000000402d9b10   206 FUNC    GLOBAL DEFAULT    4 _ZN3elf6object7mlockedEv
  1806: 000000004030e670    85 FUNC    WEAK   DEFAULT    4 _ZThn24_N5boost10wrapexceptINS_9gregorian9bad_monthEED0Ev
  1807: 0000000040324610    55 FUNC    GLOBAL DEFAULT    4 feenableexcept
  1808: 00000000404261c0   131 FUNC    GLOBAL DEFAULT    4 snprintf
  1809: 00000000403a4450   528 FUNC    WEAK   DEFAULT    4 _ZSt4findIN9__gnu_cxx17__normal_iteratorIPKNSt7__cxx1112basic_stringIcSt11char_traitsIcESaIcEEESt6vectorIS7_SaIS7_EEEES7_ET_SE_SE_RKT0_
  1810: 0000000040425c60     9 FUNC    GLOBAL DEFAULT    4 getwc
  1811: 000000004030f410   222 FUNC    GLOBAL DEFAULT    4 _ZN4ahci3hbaD1Ev
  1812: 0000000040669790    23 OBJECT  WEAK   DEFAULT    9 _ZTSSt15messages_bynameIcE
  1813: 0000000040487490    81 FUNC    WEAK   DEFAULT    4 _ZNSbIwSt11char_traitsIwESaIwEE12_M_leak_hardEv
  1814: 0000000040509e00    65 FUNC    WEAK   DEFAULT    4 _ZNSt7__cxx1112basic_stringIwSt11char_traitsIwESaIwEEC2EPKwRKS3_
  1815: 00000000403c65f0   161 FUNC    WEAK   DEFAULT    4 _ZNSt10_HashtableINSt7__cxx1112basic_stringIcSt11char_traitsIcESaIcEEESt4pairIKS5_S5_ESaIS8_ENSt8__detail10_Select1stESt8equal_toIS5_ESt4hashIS5_ENSA_18_Mod_range_hashingENSA_20_Default_ranged_hashENSA_20_Prime_rehash_policyENSA_17_Hashtable_traitsILb1ELb0ELb1EEEEC1EOSL_OSaINSA_10_Hash_nodeIS8_Lb1EEEESt17integral_constantIbLb1EE
  1816: 000000004047dcd0   439 FUNC    WEAK   DEFAULT    4 _ZNSt15basic_stringbufIwSt11char_traitsIwESaIwEEC1ERKSbIwS1_S2_ESt13_Ios_Openmode
  1817: 0000000040406e40    16 FUNC    GLOBAL DEFAULT    4 __isupper_l
  1818: 000000004046f3b0    20 FUNC    GLOBAL DEFAULT    4 _ZNSt18condition_variableC2Ev
  1819: 00000000404b1d00    49 FUNC    GLOBAL DEFAULT    4 _ZN11__gnu_debug25_Safe_local_iterator_base16_M_detach_singleEv
  1820: 000000004039b8a0    57 FUNC    WEAK   DEFAULT    4 _ZNSt17_Function_handlerIFbcENSt8__detail12_CharMatcherINSt7__cxx1112regex_traitsIcEELb1ELb0EEEE10_M_managerERSt9_Any_dataRKS8_St18_Manager_operation
  1821: 0000000040665988     8 OBJECT  UNIQUE DEFAULT    9 _ZNSbIwSt11char_traitsIwESaIwEE4_Rep11_S_max_sizeE
  1822: 0000000040406bb0    10 FUNC    GLOBAL DEFAULT    4 __ctype_get_mb_cur_max
  1823: 00000000404740c0   815 FUNC    WEAK   DEFAULT    4 _ZNSt13__facet_shims23__moneypunct_fill_cacheIcLb1EEEvSt17integral_constantIbLb0EEPKNSt6locale5facetEPSt18__moneypunct_cacheIT_XT0_EE
  1824: 000000004053e990    12 FUNC    GLOBAL DEFAULT    4 _ZNSt10filesystem7__cxx114path5_ListC1Ev
  1825: 0000000040459040   980 FUNC    GLOBAL DEFAULT    4 _ZNSi7getlineEPclc
  1826: 000000004038c510    18 FUNC    GLOBAL DEFAULT    4 _ZN5sched6thread10stack_info15default_deleterES1_
  1827: 00000000404e39c0    20 FUNC    GLOBAL DEFAULT    4 _ZNSt12__sso_stringaSERKS_
  1828: 00000000402d31a0    39 FUNC    GLOBAL DEFAULT    4 _ZN7console12console_initEv
  1829: 0000000040364280   130 FUNC    GLOBAL DEFAULT    4 AcpiDsMethodError
  1830: 00000000402ea580    16 FUNC    GLOBAL DEFAULT    4 _ZN3pci6bridgeD1Ev
  1831: 00000000405ffc67     7 OBJECT  UNIQUE DEFAULT    9 _ZN16signature_helperIJiiiiibEE3sigE
  1832: 00000000403a1fe0   316 FUNC    WEAK   DEFAULT    4 _ZNSt5dequeINSt8__detail9_StateSeqINSt7__cxx1112regex_traitsIcEEEESaIS5_EE12emplace_backIJS5_EEEvDpOT_
  1833: 00000000402b8a60     8 FUNC    GLOBAL DEFAULT    4 _Z19blkfront_from_softcP8xb_softc
  1834: 0000000040482ec0    18 FUNC    WEAK   DEFAULT    4 _ZNKSs7crbeginEv
  1835: 0000000040369d30    54 FUNC    GLOBAL DEFAULT    4 _ZN6rwlock20reader_wait_lockableEv
  1836: 0000000040357050   930 FUNC    GLOBAL DEFAULT    4 AcpiPsParseAml
  1837: 0000000040324e30   173 FUNC    GLOBAL DEFAULT    4 memset_repstos_old
  1838: 000000004024ccd0   613 FUNC    GLOBAL DEFAULT    4 SHA256_Update
  1839: 00000000402d2d20    33 FUNC    WEAK   DEFAULT    4 _ZN7console18isa_serial_consoleD2Ev
  1840: 0000000040664940    17 OBJECT  WEAK   DEFAULT    9 _ZTSSt12strstreambuf
  1841: 00000000409411d8     8 OBJECT  GLOBAL DEFAULT   52 AcpiGbl_GlobalLockMutex
  1842: 00000000404c25e0   138 FUNC    WEAK   DEFAULT    4 _ZNSi7getlineEPcl
  1843: 00000000403b5400   101 FUNC    GLOBAL DEFAULT    4 _ZN3osv7newpoll6pollerC1Ev
  1844: 0000000040406410    87 FUNC    GLOBAL DEFAULT    4 __pread64_chk
  1845: 000000004045a920     5 FUNC    GLOBAL DEFAULT    4 _ZNSt6locale5facetD1Ev
  1846: 0000000040400d60    76 FUNC    GLOBAL DEFAULT    4 _ZN11pipe_buffer11read_eventsEv
  1847: 00000000409847f0     8 OBJECT  GLOBAL DEFAULT   52 rofs_mounts
  1848: 000000004025ef20   169 FUNC    GLOBAL DEFAULT    4 sys_socket
  1849: 0000000040461df0   203 FUNC    GLOBAL DEFAULT    4 _ZNSt7__cxx1110moneypunctIwLb0EED1Ev
  1850: 00000000406690dc     4 OBJECT  GLOBAL DEFAULT    9 _ZNSt14numeric_limitsIsE8digits10E
  1851: 0000000040247d00     0 FUNC    GLOBAL DEFAULT    4 __getpagesize
  1852: 00000000404ee110     9 FUNC    WEAK   DEFAULT    4 _ZNSt15basic_streambufIcSt11char_traitsIcEE12__safe_pbumpEl
  1853: 00000000403b7aa0    25 FUNC    GLOBAL DEFAULT    4 dhcp_renew
  1854: 0000000040313c40   348 FUNC    GLOBAL DEFAULT    4 _ZN3vmw6pvscsi8add_descEP3bio
  1855: 00000000403d7f00   277 FUNC    GLOBAL DEFAULT    4 sys_mknod
  1856: 00000000404ef480    30 FUNC    WEAK   DEFAULT    4 _ZNKSt7__cxx1112basic_stringIcSt11char_traitsIcESaIcEE8capacityEv
  1857: 00000000405fb300    16 OBJECT  WEAK   DEFAULT    9 _ZTIN9randomdev13random_deviceE
  1858: 00000000402d9460   548 FUNC    GLOBAL DEFAULT    4 _ZN3elf6objectD2Ev
  1859: 000000004027ed70   197 FUNC    GLOBAL DEFAULT    4 if_delmulti
  1860: 0000000040458c50   840 FUNC    GLOBAL DEFAULT    4 _ZSt7getlineIwSt11char_traitsIwESaIwEERSt13basic_istreamIT_T0_ES7_RNSt7__cxx1112basic_stringIS4_S5_T1_EES4_
  1861: 00000000404f2da0    23 FUNC    WEAK   DEFAULT    4 _ZNSt15messages_bynameIwED1Ev
  1862: 0000000040481b10    25 FUNC    GLOBAL DEFAULT    4 _ZNSt12__cow_stringC1EOS_
  1863: 00000000405074a0     9 FUNC    WEAK   DEFAULT    4 _ZNKSt7__cxx1112basic_stringIwSt11char_traitsIwESaIwEE6lengthEv
  1864: 0000000040665c40    18 OBJECT  WEAK   DEFAULT    9 _ZTSSt13messages_base
  1865: 000000004024d980   164 FUNC    GLOBAL DEFAULT    4 SHA384_Data
  1866: 00000000404298f0   145 FUNC    WEAK   DEFAULT    4 __isoc99_wscanf
  1867: 0000000040914340    16 OBJECT  UNIQUE DEFAULT   52 _ZZN5boost4asio5error17get_misc_categoryEvE8instance
  1868: 0000000000200000     0 NOTYPE  GLOBAL DEFAULT  ABS OSV_KERNEL_BASE
  1869: 00000000403a8910   827 FUNC    WEAK   DEFAULT    4 _ZNSt17_Function_handlerIFbcENSt8__detail15_BracketMatcherINSt7__cxx1112regex_traitsIcEELb0ELb1EEEE10_M_managerERSt9_Any_dataRKS8_St18_Manager_operation
  1870: 00000000403c1630    13 FUNC    GLOBAL DEFAULT    4 _ZN3osv11application18get_main_thread_idEv
  1871: 000000004052ec40    20 FUNC    WEAK   DEFAULT    4 _ZNSt12__shared_ptrINSt10filesystem7__cxx114_DirELN9__gnu_cxx12_Lock_policyE2EEC1EDn
  1872: 000000004045b240    80 FUNC    GLOBAL DEFAULT    4 _ZNSt6localeD2Ev
  1873: 000000004061e488    16 OBJECT  WEAK   DEFAULT    9 _ZTINSt8__detail12_CharMatcherINSt7__cxx1112regex_traitsIcEELb0ELb1EEE
  1874: 000000004046c6d0    23 FUNC    GLOBAL DEFAULT    4 _ZNSt25__codecvt_utf8_utf16_baseIDsED2Ev
  1875: 000000004044e460    37 FUNC    GLOBAL DEFAULT    4 __cxa_pure_virtual
  1876: 0000000040348240   275 FUNC    GLOBAL DEFAULT    4 AcpiUtCopyIobjectToIobject
  1877: 00000000402b0ba0    15 FUNC    GLOBAL DEFAULT    4 _Z19xenbusb_front_probeP6device
  1878: 000000004038df90    13 FUNC    GLOBAL DEFAULT    4 _ZNK5sched6thread8priorityEv
  1879: 000000004033da70   225 FUNC    WEAK   DEFAULT    4 _Z14unaligned_copyILj9ELj12EEvPvPKvm
  1880: 00000000407ff388    24 OBJECT  WEAK   DEFAULT   21 _ZTISt13basic_fstreamIcSt11char_traitsIcEE
  1881: 0000000040353b60    80 FUNC    GLOBAL DEFAULT    4 AcpiTbSetTableLoadedFlag
  1882: 00000000402a33f0   308 FUNC    GLOBAL DEFAULT    4 tcp_mtudisc
  1883: 00000000403758e0    19 FUNC    GLOBAL DEFAULT    4 malloc_usable_size
  1884: 000000004026da70    83 FUNC    GLOBAL DEFAULT    4 linux_getpeername
  1885: 00000000404807f0   341 FUNC    WEAK   DEFAULT    4 _ZNSt18basic_stringstreamIwSt11char_traitsIwESaIwEEC1ERKSbIwS1_S2_ESt13_Ios_Openmode
  1886: 000000004061ea10    16 OBJECT  WEAK   DEFAULT    9 _ZTIN15tracepoint_base5probeE
  1887: 000000004030cce0   765 FUNC    GLOBAL DEFAULT    4 AcpiOsInstallInterruptHandler
  1888: 00000000405e2230   128 OBJECT  WEAK   DEFAULT    9 _ZTVN5boost2io18basic_altstringbufIcSt11char_traitsIcESaIcEEE
  1889: 00000000403055a0  1748 FUNC    GLOBAL DEFAULT    4 _ZN6virtio2fsC1ERNS_13virtio_deviceE
  1890: 00000000405150a0   686 FUNC    WEAK   DEFAULT    4 _ZSt23__copy_move_backward_a1ILb1EPNSt10filesystem4pathES1_EN9__gnu_cxx11__enable_ifIXsrSt23__is_random_access_iterIT0_NSt15iterator_traitsIS6_E17iterator_categoryEE7__valueESt15_Deque_iteratorIT1_RSC_PSC_EE6__typeES6_S6_SF_
  1891: 0000000040468270   197 FUNC    GLOBAL DEFAULT    4 _ZNSt12strstreambufC1EPFPvmEPFvS0_E
  1892: 0000000040388200  6778 FUNC    WEAK   DEFAULT    4 _ZN3osv7commandC2Ev
  1893: 00000000403d30e0   118 FUNC    GLOBAL DEFAULT    4 _ZN4file10wake_epollEi
  1894: 0000000040370860    42 FUNC    WEAK   DEFAULT    4 _ZN5boost7bad_getD0Ev
  1895: 000000004035c520    21 FUNC    GLOBAL DEFAULT    4 AcpiEvRemoveSciHandler
  1896: 00000000402a4230   215 FUNC    GLOBAL DEFAULT    4 _Z15syncache_lookupP11in_conninfoPP13syncache_head
  1897: 00000000403612a0   124 FUNC    GLOBAL DEFAULT    4 AcpiNsPrintNodePathname
  1898: 00000000404584b0   887 FUNC    GLOBAL DEFAULT    4 _ZStrsIcSt11char_traitsIcESaIcEERSt13basic_istreamIT_T0_ES7_RNSt7__cxx1112basic_stringIS4_S5_T1_EE
  1899: 00000000405304a0   746 FUNC    WEAK   DEFAULT    4 _ZNSt5dequeINSt10filesystem7__cxx114_DirESaIS2_EED1Ev
  1900: 0000000040488460    77 FUNC    WEAK   DEFAULT    4 _ZNSbIwSt11char_traitsIwESaIwEE6resizeEmw
  1901: 0000000040255110    38 FUNC    GLOBAL DEFAULT    4 pffinddomain
  1902: 000000004046c1f0    10 FUNC    GLOBAL DEFAULT    4 _ZNKSt7codecvtIDsDu11__mbstate_tE13do_max_lengthEv
  1903: 00000000404e6260   591 FUNC    WEAK   DEFAULT    4 _ZNSt7__cxx1115basic_stringbufIcSt11char_traitsIcESaIcEEC1EOS4_
  1904: 0000000040404750    16 FUNC    WEAK   DEFAULT    4 _ZN8event_fdD1Ev
  1905: 00000000404f2890    23 FUNC    WEAK   DEFAULT    4 _ZNSt17moneypunct_bynameIwLb1EED2Ev
  1906: 000000004046d8b0   197 FUNC    GLOBAL DEFAULT    4 _ZNKSt19__codecvt_utf8_baseIDsE6do_outER11__mbstate_tPKDsS4_RS4_PcS6_RS6_
  1907: 00000000402a5c30   123 FUNC    WEAK   DEFAULT    4 _ZNSt17_Function_handlerIFvRN5async17serial_timer_taskEESt5_BindIFPFvP13syncache_headS2_ES6_St12_PlaceholderILi1EEEEE10_M_managerERSt9_Any_dataRKSE_St18_Manager_operation
  1908: 00000000402d74b0    26 FUNC    GLOBAL DEFAULT    4 _ZN3elf6object13contains_addrEPKv
  1909: 0000000040306fa0    54 FUNC    GLOBAL DEFAULT    4 _ZN3vmw7vmxnet38read_cmdEj
  1910: 000000004044d680    15 FUNC    GLOBAL DEFAULT    4 _ZSt13get_terminatev
  1911: 0000000040914430     8 OBJECT  UNIQUE DEFAULT   52 _ZGVZN5boost6system6detail15to_std_categoryERKNS0_14error_categoryEE15system_instance
  1912: 0000000040480a80   394 FUNC    WEAK   DEFAULT    4 _ZNSt18basic_stringstreamIwSt11char_traitsIwESaIwEEC2EOS3_
  1913: 0000000040802098    40 OBJECT  WEAK   DEFAULT   21 _ZTVSt15time_put_bynameIwSt19ostreambuf_iteratorIwSt11char_traitsIwEEE
  1914: 0000000040468c10   162 FUNC    GLOBAL DEFAULT    4 _ZNSt12strstreambufC1EPclS0_
  1915: 000000004092e460    64 OBJECT  GLOBAL DEFAULT   52 global_arp_cache
  1916: 00000000404b15d0    95 FUNC    GLOBAL DEFAULT    4 _ZN11__gnu_debug19_Safe_iterator_base9_M_detachEv
  1917: 00000000403fa220    14 FUNC    GLOBAL DEFAULT    4 pthread_rwlock_init
  1918: 000000004062ccb0   184 OBJECT  WEAK   DEFAULT    9 _ZTV9pipe_file
  1919: 00000000402e89b0    55 FUNC    GLOBAL DEFAULT    4 _ZN3pci8function11get_commandEv
  1920: 00000000402c5670   105 FUNC    GLOBAL DEFAULT    4 _ZN3mmu8anon_vmaC1E10addr_rangejj
  1921: 00000000404b2550    28 FUNC    WEAK   DEFAULT    4 _ZN9__gnu_cxx18stdio_sync_filebufIwSt11char_traitsIwEED1Ev
  1922: 00000000403bf890    71 FUNC    GLOBAL DEFAULT    4 _ZSt8distanceI13mbuf_iteratorENSt15iterator_traitsIT_E15difference_typeES2_S2_
  1923: 0000000040302980   179 FUNC    WEAK   DEFAULT    4 _ZN6virtio4scsi14alloc_scsi_reqEP3biotth
  1924: 00000000403f8dc0     7 FUNC    GLOBAL DEFAULT    4 getpgrp
  1925: 000000004046c910    22 FUNC    GLOBAL DEFAULT    4 _ZNSt19__codecvt_utf8_baseIwED0Ev
  1926: 0000000040478fa0   178 FUNC    WEAK   DEFAULT    4 _ZNKSt15basic_stringbufIcSt11char_traitsIcESaIcEE3strEv
  1927: 000000004049b480   190 FUNC    WEAK   DEFAULT    4 _ZNSt7__cxx118messagesIcEC1EP15__locale_structPKcm
  1928: 00000000403bb690   305 FUNC    GLOBAL DEFAULT    4 _ZN10classifier17classify_ipv4_tcpEP4mbuf
  1929: 00000000404074e0    32 FUNC    GLOBAL DEFAULT    4 isxdigit
  1930: 00000000402e8a30    58 FUNC    GLOBAL DEFAULT    4 _ZN3pci8function11set_commandEt
  1931: 00000000404f9aa0    49 FUNC    WEAK   DEFAULT    4 _ZNKSt7num_putIwSt19ostreambuf_iteratorIwSt11char_traitsIwEEE6_M_padEwlRSt8ios_basePwPKwRi
  1932: 0000000040243a30  4146 FUNC    WEAK   DEFAULT    4 _ZNSt6vectorIN5boost2io6detail11format_itemIcSt11char_traitsIcESaIcEEESaIS7_EE14_M_fill_insertEN9__gnu_cxx17__normal_iteratorIPS7_S9_EEmRKS7_
  1933: 00000000403fc220    36 FUNC    GLOBAL DEFAULT    4 cfsetspeed
  1934: 0000000040335510    62 FUNC    WEAK   DEFAULT    4 _Z14unaligned_copyILj1ELj15EEvPvPKvm
  1935: 000000004046c1e0     7 FUNC    GLOBAL DEFAULT    4 _ZNKSt19__codecvt_utf8_baseIwE16do_always_noconvEv
  1936: 00000000404eed70    38 FUNC    WEAK   DEFAULT    4 _ZNSt7__cxx1112basic_stringIcSt11char_traitsIcESaIcEE13_S_copy_charsEPcN9__gnu_cxx17__normal_iteratorIS5_S4_EES8_
  1937: 00000000402c4300     7 FUNC    GLOBAL DEFAULT    4 _ZN3mmu8shm_file8put_pageEPvmNS_7hw_ptepILi1EEE
  1938: 000000004080a5e0   248 OBJECT  GLOBAL DEFAULT   22 AcpiGbl_GetResourceDispatch
  1939: 00000000409515e8     8 OBJECT  GLOBAL DEFAULT   52 _ZN3dbg9free_areaE
  1940: 00000000403fc4b0   203 FUNC    GLOBAL DEFAULT    4 dlclose
  1941: 0000000040406d70    16 FUNC    GLOBAL DEFAULT    4 isprint
  1942: 000000004024ae40  1041 FUNC    GLOBAL DEFAULT    4 rijndaelDecrypt
  1943: 0000000040665998    15 OBJECT  WEAK   DEFAULT    9 _ZTSSt10ctype_base
  1944: 00000000404860d0    57 FUNC    WEAK   DEFAULT    4 _ZNSbIwSt11char_traitsIwESaIwEE13_S_copy_charsEPwS3_S3_
  1945: 000000004039cbb0   574 FUNC    WEAK   DEFAULT    4 _ZNSt6vectorINSt7__cxx1111basic_regexIcNS0_12regex_traitsIcEEEESaIS4_EE17_M_realloc_insertIJRKS4_EEEvN9__gnu_cxx17__normal_iteratorIPS4_S6_EEDpOT_
  1946: 00000000403d0750    13 FUNC    GLOBAL DEFAULT    4 umask
  1947: 00000000405fb8a0    16 OBJECT  WEAK   DEFAULT    9 _ZTIN2hw9hw_deviceE
  1948: 0000000040304cb0    15 FUNC    GLOBAL DEFAULT    4 _ZN6virtio2fs19get_driver_featuresEv
  1949: 000000004049bcc0    78 FUNC    WEAK   DEFAULT    4 _ZSt9has_facetINSt7__cxx1110moneypunctIcLb0EEEEbRKSt6locale
  1950: 0000000040941359     1 OBJECT  GLOBAL DEFAULT   52 AcpiGbl_ReducedHardware
  1951: 000000004046c6b0    23 FUNC    GLOBAL DEFAULT    4 _ZNSt20__codecvt_utf16_baseIDsED1Ev
  1952: 00000000402de1c0   103 FUNC    GLOBAL DEFAULT    4 _ZN3elf19create_main_programEv
  1953: 00000000404f19e0    16 FUNC    WEAK   DEFAULT    4 _ZNSt7__cxx1112basic_stringIcSt11char_traitsIcESaIcEEC1IPcvEET_S7_RKS3_
  1954: 000000004031f490    25 FUNC    GLOBAL DEFAULT    4 machine_check
  1955: 00000000404cbf00    24 FUNC    WEAK   DEFAULT    4 _ZNKSt11__timepunctIcE15_M_date_formatsEPPKc
  1956: 0000000040319870    95 FUNC    GLOBAL DEFAULT    4 _Z17arch_init_premainv
  1957: 000000004061e040   115 OBJECT  WEAK   DEFAULT    9 _ZTSSt23_Sp_counted_ptr_inplaceINSt8__detail4_NFAINSt7__cxx1112regex_traitsIcEEEESaIS5_ELN9__gnu_cxx12_Lock_policyE2EE
  1958: 0000000040941358     1 OBJECT  GLOBAL DEFAULT   52 AcpiGbl_NoResourceDisassembly
  1959: 0000000040355bd0   536 FUNC    GLOBAL DEFAULT    4 AcpiPsGetNextNamepath
  1960: 000000004044d710    23 FUNC    GLOBAL DEFAULT    4 _ZSt10unexpectedv
  1961: 00000000404a0900    36 FUNC    WEAK   DEFAULT    4 _ZNSt7__cxx1115messages_bynameIwED0Ev
  1962: 0000000040424910   231 FUNC    WEAK   DEFAULT    4 fopen64
  1963: 00000000404f4e90    97 FUNC    WEAK   DEFAULT    4 _ZNSt16__numpunct_cacheIwEC2Em
  1964: 00000000403e57d0     7 FUNC    WEAK   DEFAULT    4 _ZNK8pseudofs15pseudo_dir_node4sizeEv
  1965: 00000000402f1350    12 FUNC    GLOBAL DEFAULT    4 _ZN7console23isa_serial_console_base9read_byteEi
  1966: 00000000402a6eb0   528 FUNC    GLOBAL DEFAULT    4 tcp_twclose
  1967: 0000000040372780   877 FUNC    WEAK   DEFAULT    4 _ZNSt10_HashtableIP7arc_bufSt4pairIKS1_PN9pagecache15cached_page_arcEESaIS7_ENSt8__detail10_Select1stESt8equal_toIS1_ESt4hashIS1_ENS9_18_Mod_range_hashingENS9_20_Default_ranged_hashENS9_20_Prime_rehash_policyENS9_17_Hashtable_traitsILb0ELb0ELb0EEEE20_M_insert_multi_nodeEPNS9_10_Hash_nodeIS7_Lb0EEEmSN_
  1968: 0000000040402c60  1266 FUNC    GLOBAL DEFAULT    4 socketpair_af_local
  1969: 00000000404cbf70    24 FUNC    WEAK   DEFAULT    4 _ZNKSt11__timepunctIcE8_M_am_pmEPPKc
  1970: 00000000409410a9     1 OBJECT  GLOBAL DEFAULT   52 AcpiGbl_EventsInitialized
  1971: 0000000040605da0    48 OBJECT  WEAK   DEFAULT    9 _ZTVN8xenfront6xenbusE
  1972: 00000000404c9130    12 FUNC    WEAK   DEFAULT    4 _ZNKSt10moneypunctIcLb1EE14do_frac_digitsEv
  1973: 00000000402c4bd0   176 FUNC    GLOBAL DEFAULT    4 _ZN3mmu13all_vmas_sizeEv
  1974: 0000000040370bb0    86 FUNC    WEAK   DEFAULT    4 _ZThn8_N5boost10wrapexceptINS_7bad_getEED0Ev
  1975: 00000000404aac20   137 FUNC    WEAK   DEFAULT    4 _ZNKSt7__cxx1110moneypunctIwLb0EE13positive_signEv
  1976: 000000004045a450    39 FUNC    GLOBAL DEFAULT    4 _ZNSt15_List_node_base10_M_reverseEv
  1977: 000000004045d4e0  2785 FUNC    GLOBAL DEFAULT    4 _ZNSt6locale5_ImplC2EPKcm
  1978: 00000000404e3bf0    72 FUNC    WEAK   DEFAULT    4 _ZNSt7__cxx1115basic_stringbufIcSt11char_traitsIcESaIcEE9showmanycEv
  1979: 000000004098c8c8     8 OBJECT  UNIQUE DEFAULT   52 _ZNSt8numpunctIcE2idE
  1980: 0000000040513690   673 FUNC    WEAK   DEFAULT    4 _ZNSt5dequeINSt10filesystem4pathESaIS1_EE12emplace_backIJS1_EEERS1_DpOT_
  1981: 00000000403bc2b0     5 FUNC    WEAK   DEFAULT    4 _ZN5boost2io6detail13call_put_headIcSt11char_traitsIcEK7in_addrEEvRSt13basic_ostreamIT_T0_EPKv
  1982: 0000000040984810     8 OBJECT  GLOBAL DEFAULT   52 rofs_block_read_count
  1983: 000000004061e4e8    16 OBJECT  WEAK   DEFAULT    9 _ZTINSt8__detail12_CharMatcherINSt7__cxx1112regex_traitsIcEELb1ELb0EEE
  1984: 000000004030df40    16 FUNC    WEAK   DEFAULT    4 _ZN5boost9gregorian9bad_monthD1Ev
  1985: 0000000040534300   102 FUNC    GLOBAL DEFAULT    4 _ZNSt10filesystem16create_directoryERKNS_7__cxx114pathE
  1986: 00000000403915e0   388 FUNC    GLOBAL DEFAULT    4 _ZN5sched6thread12thread_clockEv
  1987: 0000000040547170    46 FUNC    GLOBAL DEFAULT    4 _ZNSt3pmr15__pool_resourceD1Ev
  1988: 000000004033cd80   284 FUNC    WEAK   DEFAULT    4 _Z14unaligned_copyILj11ELj9EEvPvPKvm
  1989: 00000000402482b0   747 FUNC    GLOBAL DEFAULT    4 _ZN10__cxxabiv114__cxa_finalizeEPv
  1990: 00000000404e30e0    23 FUNC    GLOBAL DEFAULT    4 _ZNSt12bad_weak_ptrD2Ev
  1991: 000000004044e500   326 FUNC    GLOBAL DEFAULT    4 _ZNK10__cxxabiv120__si_class_type_info12__do_dyncastElNS_17__class_type_info10__sub_kindEPKS1_PKvS4_S6_RNS1_16__dyncast_resultE
  1992: 00000000404ee720    76 FUNC    WEAK   DEFAULT    4 _ZNSt15basic_streambufIwSt11char_traitsIwEEC1Ev
  1993: 0000000040668f4d     1 OBJECT  GLOBAL DEFAULT    9 _ZNSt14numeric_limitsIxE15has_denorm_lossE
  1994: 000000004031a170   570 FUNC    GLOBAL DEFAULT    4 call_signal_handler
  1995: 0000000040287b00   274 FUNC    GLOBAL DEFAULT    4 inm_clear_recorded
  1996: 00000000404ab420   250 FUNC    WEAK   DEFAULT    4 _ZNSt7__cxx1117moneypunct_bynameIwLb1EEC1EPKcm
  1997: 000000004034c460   215 FUNC    GLOBAL DEFAULT    4 AcpiExDoMathOp
  1998: 00000000405116c0   618 FUNC    GLOBAL DEFAULT    4 _ZNSt10filesystem12current_pathERSt10error_code
  1999: 0000000040241260    91 FUNC    WEAK   DEFAULT    4 _ZN5boost2io6detail11format_itemIcSt11char_traitsIcESaIcEED2Ev
  2000: 000000004050f700   307 FUNC    GLOBAL DEFAULT    4 _ZNSt10filesystem11permissionsERKNS_4pathENS_5permsENS_12perm_optionsERSt10error_code
  2001: 0000000040605e18    48 OBJECT  WEAK   DEFAULT    9 _ZTVN8xenfront15xenplatform_pciE
  2002: 0000000040318e10    53 FUNC    GLOBAL DEFAULT    4 _ZN3aws3ena11dump_configEv
  2003: 000000004048b0b0    12 FUNC    WEAK   DEFAULT    4 _ZNKSt7__cxx1110moneypunctIcLb1EE13do_pos_formatEv
  2004: 0000000040481550   241 FUNC    GLOBAL DEFAULT    4 _ZNSt11logic_errorC2EPKc
  2005: 00000000402f0b50   119 FUNC    GLOBAL DEFAULT    4 _ZN7console10VGAConsole5probeEPN2hw9hw_deviceE
  2006: 00000000404c2320    71 FUNC    WEAK   DEFAULT    4 _ZTv0_n24_NSiD0Ev
  2007: 0000000040533780    95 FUNC    GLOBAL DEFAULT    4 _ZNSt10filesystem6removeERKNS_7__cxx114pathERSt10error_code
  2008: 000000004050f0b0    78 FUNC    GLOBAL DEFAULT    4 _ZNSt10filesystem6renameERKNS_4pathES2_RSt10error_code
  2009: 0000000040424060    86 FUNC    WEAK   DEFAULT    4 ferror_unlocked
  2010: 00000000402f2bc0   423 FUNC    GLOBAL DEFAULT    4 _ZN6virtio24virtio_modern_pci_device25parse_virtio_capabilitiesERSt6vectorISt4pairIhhESaIS3_EERS1_ISt10unique_ptrINS0_17virtio_capabilityESt14default_deleteIS8_EESaISB_EEh
  2011: 000000004050be70   111 FUNC    GLOBAL DEFAULT    4 _ZNSt10filesystem28recursive_directory_iterator3popEv
  2012: 000000004092ce9c     4 OBJECT  GLOBAL DEFAULT   52 tcp_do_ecn
  2013: 0000000040484260    51 FUNC    WEAK   DEFAULT    4 _ZNSs5eraseEN9__gnu_cxx17__normal_iteratorIPcSsEE
  2014: 00000000403ede10    42 FUNC    WEAK   DEFAULT    4 _ZN9mtab_fileD0Ev
  2015: 00000000404e0ce0   414 FUNC    WEAK   DEFAULT    4 _ZNSt13basic_ostreamIwSt11char_traitsIwEE3putEw
  2016: 00000000404af710    30 FUNC    WEAK   DEFAULT    4 _ZNSt7__cxx1115time_get_bynameIwSt19istreambuf_iteratorIwSt11char_traitsIwEEEC2EPKcm
  2017: 000000004050fcb0   116 FUNC    GLOBAL DEFAULT    4 _ZNSt10filesystem16create_hard_linkERKNS_4pathES2_
  2018: 0000000040266700   166 FUNC    GLOBAL DEFAULT    4 _ZN3osv10if_set_mtuENSt7__cxx1112basic_stringIcSt11char_traitsIcESaIcEEEt
  2019: 0000000040247d20    10 FUNC    GLOBAL DEFAULT    4 posix_fallocate
  2020: 00000000404870d0   121 FUNC    WEAK   DEFAULT    4 _ZNSbIwSt11char_traitsIwESaIwEED2Ev
  2021: 00000000404ee470   231 FUNC    WEAK   DEFAULT    4 _ZNSt15basic_streambufIwSt11char_traitsIwEE6snextcEv
  2022: 00000000404c0860   136 FUNC    WEAK   DEFAULT    4 _ZNSt9basic_iosIwSt11char_traitsIwEE4swapERS2_
  2023: 000000004037aa70    16 FUNC    WEAK   DEFAULT    4 _ZNSt17_Function_handlerIFvvEZN6memory9page_pool2l2C4EvEUlvE_E9_M_invokeERKSt9_Any_data
  2024: 0000000040390b00   164 FUNC    GLOBAL DEFAULT    4 _ZN5sched6thread11unsafe_stopEv
  2025: 0000000040325820    27 FUNC    WEAK   DEFAULT    4 _Z15do_small_memcpyILm7EEPvS0_PKv
  2026: 0000000040807158     4 OBJECT  GLOBAL DEFAULT   22 useloopback
  2027: 0000000040346e30   298 FUNC    GLOBAL DEFAULT    4 AcpiUtOsiImplementation
  2028: 0000000040668c60     4 OBJECT  GLOBAL DEFAULT    9 _ZNSt8ios_base10floatfieldE
  2029: 00000000403cf5c0   388 FUNC    GLOBAL DEFAULT    4 isatty
  2030: 000000004027dd20    16 FUNC    GLOBAL DEFAULT    4 if_maddr_rlock
  2031: 0000000040943ba4     4 OBJECT  GLOBAL DEFAULT   52 debug_buffer_idx
  2032: 00000000404e0b20   437 FUNC    WEAK   DEFAULT    4 _ZNSt13basic_ostreamIwSt11char_traitsIwEElsEPSt15basic_streambufIwS1_E
  2033: 00000000403d3410   143 FUNC    GLOBAL DEFAULT    4 _Z5fdsetiP4file
  2034: 00000000402cb900    48 FUNC    WEAK   DEFAULT    4 _ZN3mmu8anon_vmaD2Ev
  2035: 0000000040352e30   189 FUNC    GLOBAL DEFAULT    4 AcpiExEisaIdToString
  2036: 0000000040314d70    54 FUNC    GLOBAL DEFAULT    4 _ZN8xenclockC2Ev
  2037: 00000000403236d0    25 FUNC    GLOBAL DEFAULT    4 _ZN17interrupt_managerD2Ev
  2038: 0000000040669082     1 OBJECT  GLOBAL DEFAULT    9 _ZNSt14numeric_limitsItE12has_infinityE
  2039: 0000000040669070     4 OBJECT  GLOBAL DEFAULT    9 _ZNSt14numeric_limitsItE11round_styleE
  2040: 00000000402f1c70    21 FUNC    GLOBAL DEFAULT    4 _ZN6virtio24virtio_legacy_pci_device10kick_queueEi
  2041: 00000000402ba540   183 FUNC    GLOBAL DEFAULT    4 ena_com_add_single_rx_desc
  2042: 0000000040613680    16 OBJECT  WEAK   DEFAULT    9 _ZTIN5sched10timer_base6clientE
  2043: 000000004028d9d0   264 FUNC    GLOBAL DEFAULT    4 _Z16ipproto_registers
  2044: 000000004039baa0    56 FUNC    WEAK   DEFAULT    4 _ZNSt17_Function_handlerIFbcENSt8__detail11_AnyMatcherINSt7__cxx1112regex_traitsIcEELb0ELb0ELb1EEEE10_M_managerERSt9_Any_dataRKS8_St18_Manager_operation
  2045: 00000000404caec0    83 FUNC    WEAK   DEFAULT    4 _ZNSt10moneypunctIcLb1EEC1EPSt18__moneypunct_cacheIcLb1EEm
  2046: 00000000403451a0    60 FUNC    GLOBAL DEFAULT    4 AcpiPurgeCachedObjects
  2047: 0000000040486550    16 FUNC    WEAK   DEFAULT    4 _ZNKSbIwSt11char_traitsIwESaIwEE4findERKS2_m
  2048: 0000000040807554     4 OBJECT  GLOBAL DEFAULT   22 tcp_do_rfc3390
  2049: 0000000040610924     3 OBJECT  UNIQUE DEFAULT    9 _ZN16signature_helperIJPN8lockfree5mutexEP11wait_recordEE3sigE
  2050: 00000000402f46a0   199 FUNC    GLOBAL DEFAULT    4 _ZN6virtio11mmio_device12parse_configEv
  2051: 00000000403f14a7     0 FUNC    GLOBAL DEFAULT    4 setcontext
  2052: 0000000040270690    43 FUNC    GLOBAL DEFAULT    4 netlink_init
  2053: 000000004050a840   156 FUNC    WEAK   DEFAULT    4 _ZNSt12__shared_ptrINSt10filesystem4_DirELN9__gnu_cxx12_Lock_policyE2EE5resetEv
  2054: 00000000403cc210   343 FUNC    WEAK   DEFAULT    4 lseek64
  2055: 0000000040406b20    29 FUNC    GLOBAL DEFAULT    4 gnu_dev_major
  2056: 000000004098c8e0     8 OBJECT  UNIQUE DEFAULT   52 _ZNSt9money_putIcSt19ostreambuf_iteratorIcSt11char_traitsIcEEE2idE
  2057: 00000000402713e0    90 FUNC    GLOBAL DEFAULT    4 ether_crc32_le
  2058: 00000000404cb790    85 FUNC    WEAK   DEFAULT    4 _ZNSt8numpunctIcEC2Em
  2059: 00000000404c4ae0   318 FUNC    WEAK   DEFAULT    4 _ZNSi10_M_extractItEERSiRT_
  2060: 000000004030bf30    16 FUNC    WEAK   DEFAULT    4 _ZN11hypervclockD2Ev
  2061: 000000004046a060    13 FUNC    GLOBAL DEFAULT    4 _ZNSt9strstream3strEv
  2062: 000000004066a0f0    29 OBJECT  WEAK   DEFAULT    9 _ZTSSt17moneypunct_bynameIwLb1EE
  2063: 000000004036b6b0  3523 FUNC    GLOBAL DEFAULT    4 _ZN6logger3wrtEPKc17logger_severity_eRKN5boost12basic_formatIcSt11char_traitsIcESaIcEEE
  2064: 0000000040510380   106 FUNC    GLOBAL DEFAULT    4 _ZNSt10filesystem15last_write_timeERKNS_4pathE
  2065: 00000000404b9520    67 FUNC    WEAK   DEFAULT    4 _ZNSt14basic_ofstreamIcSt11char_traitsIcEE4openEPKcSt13_Ios_Openmode
  2066: 0000000040419540   628 FUNC    GLOBAL DEFAULT    4 remquo
  2067: 0000000040467140     5 FUNC    WEAK   DEFAULT    4 _ZN9__gnu_cxx12__pool_allocIcED1Ev
  2068: 00000000402e2390   344 FUNC    WEAK   DEFAULT    4 _ZNSt11_Deque_baseIPN3elf6objectESaIS2_EE17_M_initialize_mapEm
  2069: 000000004097eb40    24 OBJECT  GLOBAL DEFAULT   52 free_list
  2070: 00000000404e55a0   650 FUNC    WEAK   DEFAULT    4 _ZNSt7__cxx1115basic_stringbufIcSt11char_traitsIcESaIcEE8overflowEi
  2071: 0000000040450530     9 FUNC    WEAK   DEFAULT    4 _ZNK9__gnu_cxx8__detail13__mini_vectorISt4pairIPNS_16bitmap_allocatorIwE12_Alloc_blockES6_EE3endEv
  2072: 00000000403f8d30   139 FUNC    GLOBAL DEFAULT    4 setpgid
  2073: 00000000402f49c0    52 FUNC    WEAK   DEFAULT    4 _ZN6virtio11mmio_deviceD0Ev
  2074: 0000000040289810    81 FUNC    GLOBAL DEFAULT    4 in_joingroup
  2075: 00000000402e4670   282 FUNC    WEAK   DEFAULT    4 _ZNSt5dequeIcSaIcEE23_M_new_elements_at_backEm
  2076: 0000000040405010   168 FUNC    GLOBAL DEFAULT    4 _ZNK7timerfd3getERlS0_
  2077: 0000000040669189     1 OBJECT  GLOBAL DEFAULT    9 _ZNSt14numeric_limitsIaE10is_integerE
  2078: 00000000403eb5a0    59 FUNC    GLOBAL DEFAULT    4 bindtextdomain
  2079: 0000000040668ca4     4 OBJECT  GLOBAL DEFAULT    9 _ZNSt8ios_base9boolalphaE
  2080: 00000000409412c0    36 OBJECT  GLOBAL DEFAULT   52 AcpiGbl_OriginalDsdtHeader
  2081: 0000000040468f70   141 FUNC    GLOBAL DEFAULT    4 _ZNSt10istrstreamC2EPKc
  2082: 00000000403e5a00    92 FUNC    WEAK   DEFAULT    4 _ZNSt23_Sp_counted_ptr_inplaceIN8pseudofs15pseudo_dir_nodeESaIS1_ELN9__gnu_cxx12_Lock_policyE2EE14_M_get_deleterERKSt9type_info
  2083: 0000000040668c78     4 OBJECT  GLOBAL DEFAULT    9 _ZNSt8ios_base7showposE
  2084: 000000004039b800    94 FUNC    WEAK   DEFAULT    4 _ZNSt17_Function_handlerIFbcENSt8__detail11_AnyMatcherINSt7__cxx1112regex_traitsIcEELb0ELb0ELb0EEEE9_M_invokeERKSt9_Any_dataOc
  2085: 00000000405225d0    30 FUNC    WEAK   DEFAULT    4 _ZNSbIwSt11char_traitsIwESaIwEE4dataEv
  2086: 0000000040438770    29 FUNC    GLOBAL DEFAULT    4 fesetround
  2087: 000000004046c1e0     7 FUNC    GLOBAL DEFAULT    4 _ZNKSt19__codecvt_utf8_baseIDsE16do_always_noconvEv
  2088: 00000000404dd910   240 FUNC    WEAK   DEFAULT    4 _ZNSo5tellpEv
  2089: 000000004030f640    54 FUNC    GLOBAL DEFAULT    4 _ZN4ahci4port17wait_device_readyEv
  2090: 0000000040326bc0   962 FUNC    WEAK   DEFAULT    4 _Z13do_sse_memcpyILj63E14load_unaligned15store_unalignedEvPvPKv
  2091: 00000000403d6620   118 FUNC    GLOBAL DEFAULT    4 vn_unlock
  2092: 00000000404e4510   130 FUNC    WEAK   DEFAULT    4 _ZNSt7__cxx1119basic_istringstreamIcSt11char_traitsIcESaIcEED1Ev
  2093: 000000004025d940    91 FUNC    GLOBAL DEFAULT    4 so_setsockopt
  2094: 0000000040489ed0    17 FUNC    GLOBAL DEFAULT    4 _ZNKSt5ctypeIcE10do_tolowerEc
  2095: 000000004049b400    30 FUNC    WEAK   DEFAULT    4 _ZNSt7__cxx1115time_get_bynameIcSt19istreambuf_iteratorIcSt11char_traitsIcEEEC2ERKNS_12basic_stringIcS3_SaIcEEEm
  2096: 000000004047d450   408 FUNC    WEAK   DEFAULT    4 _ZNSt15basic_stringbufIwSt11char_traitsIwESaIwEE4swapERS3_
  2097: 00000000403455b0    89 FUNC    GLOBAL DEFAULT    4 AcpiUtDivide
  2098: 000000004038cc70   232 FUNC    GLOBAL DEFAULT    4 _ZN5sched6thread10init_stackEv
  2099: 00000000404b1d40    69 FUNC    GLOBAL DEFAULT    4 _ZN11__gnu_debug25_Safe_local_iterator_base16_M_attach_singleEPNS_19_Safe_sequence_baseEb
  2100: 000000004039a100   348 FUNC    GLOBAL DEFAULT    4 _ZN5trace14get_event_infoEv
  2101: 0000000040324a30   322 FUNC    GLOBAL DEFAULT    4 _ZN3xen8xen_initERN9processor13features_typeEj
  2102: 00000000403c73e0    66 FUNC    GLOBAL DEFAULT    4 osv_cmdline
  2103: 0000000040939160    96 OBJECT  GLOBAL DEFAULT   52 _ZN3mmu19vma_range_set_mutexE
  2104: 0000000040629e00    32 OBJECT  WEAK   DEFAULT    9 _ZTIPFNSt7__cxx1112basic_stringIcSt11char_traitsIcESaIcEEEvE
  2105: 0000000040665fa4     1 OBJECT  UNIQUE DEFAULT    9 _ZNSt7__cxx1110moneypunctIcLb0EE4intlE
  2106: 00000000404e01f0    27 FUNC    WEAK   DEFAULT    4 _ZNSt13basic_ostreamIwSt11char_traitsIwEElsEPFRSt8ios_baseS4_E
  2107: 00000000404ba7b0   150 FUNC    WEAK   DEFAULT    4 _ZNSt14basic_ofstreamIcSt11char_traitsIcEED1Ev
  2108: 0000000040489240    79 FUNC    WEAK   DEFAULT    4 _ZNSbIwSt11char_traitsIwESaIwEE7replaceEN9__gnu_cxx17__normal_iteratorIPwS2_EES6_PKw
  2109: 0000000040266d50    14 FUNC    GLOBAL DEFAULT    4 tvtohz
  2110: 0000000040482aa0   153 FUNC    GLOBAL DEFAULT    4 _ZGTtNSt15underflow_errorC1ERKNSt7__cxx1112basic_stringIcSt11char_traitsIcESaIcEEE
  2111: 0000000040481a70    20 FUNC    GLOBAL DEFAULT    4 _ZNSt12__cow_stringaSERKS_
  2112: 00000000404ef4a0   172 FUNC    WEAK   DEFAULT    4 _ZNSt7__cxx1112basic_stringIcSt11char_traitsIcESaIcEE7reserveEm
  2113: 0000000040544230   315 FUNC    GLOBAL DEFAULT    4 _ZNKSt10filesystem7__cxx114path9root_pathEv
  2114: 0000000040496140   137 FUNC    WEAK   DEFAULT    4 _ZNKSt7__cxx1110moneypunctIcLb0EE13negative_signEv
  2115: 0000000040482bd0    41 FUNC    WEAK   DEFAULT    4 _ZNKSs8_M_checkEmPKc
  2116: 00000000404677c0     9 FUNC    GLOBAL DEFAULT    4 _ZNKSt13runtime_error4whatEv
  2117: 00000000402d60c0    16 FUNC    GLOBAL DEFAULT    4 _ZNK3elf6object11entry_pointEv
  2118: 00000000402e20e0   686 FUNC    WEAK   DEFAULT    4 _ZNSt6vectorIN3elf10Elf64_PhdrESaIS1_EE17_M_default_appendEm
  2119: 00000000402f35d0    13 FUNC    GLOBAL DEFAULT    4 _ZN6virtio5vring13get_desc_addrEv
  2120: 000000004046c230    22 FUNC    GLOBAL DEFAULT    4 _ZNKSt19__codecvt_utf8_baseIDiE13do_max_lengthEv
  2121: 0000000040668ec0     4 OBJECT  GLOBAL DEFAULT    9 _ZNSt14numeric_limitsIoE8digits10E
  2122: 00000000403367a0   368 FUNC    WEAK   DEFAULT    4 _Z14unaligned_copyILj14ELj14EEvPvPKvm
  2123: 00000000403b2530   677 FUNC    WEAK   DEFAULT    4 _ZNSt6vectorI9poll_fileSaIS0_EE17_M_realloc_insertIJN5boost13intrusive_ptrI4fileEERsS8_EEEvN9__gnu_cxx17__normal_iteratorIPS0_S2_EEDpOT_
  2124: 000000004024f620   809 FUNC    GLOBAL DEFAULT    4 mb_free_ext
  2125: 00000000402e6ab0   111 FUNC    GLOBAL DEFAULT    4 zfsdev_init
  2126: 000000004038df80    13 FUNC    GLOBAL DEFAULT    4 _ZN5sched6thread12set_priorityEf
  2127: 00000000406690b0     1 OBJECT  GLOBAL DEFAULT    9 _ZNSt14numeric_limitsIsE15tinyness_beforeE
  2128: 00000000404ef550   434 FUNC    WEAK   DEFAULT    4 _ZNSt7__cxx1112basic_stringIcSt11char_traitsIcESaIcEE7reserveEv
  2129: 00000000404ef120    24 FUNC    WEAK   DEFAULT    4 _ZNSt7__cxx1112basic_stringIcSt11char_traitsIcESaIcEEC1Ev
  2130: 0000000040496230    34 FUNC    WEAK   DEFAULT    4 _ZNKSt7__cxx1110moneypunctIcLb0EE10neg_formatEv
  2131: 0000000040627fec     3 OBJECT  UNIQUE DEFAULT    9 _ZN16signature_helperIJilEE3sigE
  2132: 000000004036ae30   184 FUNC    GLOBAL DEFAULT    4 debug_ll
  2133: 0000000040255140    56 FUNC    GLOBAL DEFAULT    4 pffindtype
  2134: 00000000404876d0    74 FUNC    WEAK   DEFAULT    4 _ZNSbIwSt11char_traitsIwESaIwEE5eraseEmm
  2135: 0000000040425ec0    56 FUNC    WEAK   DEFAULT    4 _IO_putc_unlocked
  2136: 00000000403f1760    43 FUNC    GLOBAL DEFAULT    4 swapcontext
  2137: 00000000405ff700    48 OBJECT  WEAK   DEFAULT    9 _ZTVN4nvme6driverE
  2138: 00000000402d7d10   935 FUNC    GLOBAL DEFAULT    4 _ZN3elf8get_initEPNS_10Elf64_EhdrE
  2139: 00000000404252e0    92 FUNC    WEAK   DEFAULT    4 ftello
  2140: 000000004026dbf0    53 FUNC    GLOBAL DEFAULT    4 linux_recv
  2141: 000000004080ace0    48 OBJECT  GLOBAL DEFAULT   22 AcpiGbl_SleepStateNames
  2142: 0000000040664800    24 OBJECT  WEAK   DEFAULT    9 _ZTSSt16__numpunct_cacheIcE
  2143: 00000000404f2360     5 FUNC    GLOBAL DEFAULT    4 _ZNSt6thread6_StateD2Ev
  2144: 0000000040486e40   182 FUNC    WEAK   DEFAULT    4 _ZNSbIwSt11char_traitsIwESaIwEE4_Rep9_S_createEmmRKS1_
  2145: 000000004034a800    90 FUNC    GLOBAL DEFAULT    4 AcpiHwDisableGpeBlock
  2146: 000000004023d920   642 FUNC    WEAK   DEFAULT    4 _ZN5boost2io18basic_altstringbufIcSt11char_traitsIcESaIcEE8overflowEi
  2147: 000000004039b5e0    33 FUNC    WEAK   DEFAULT    4 _ZN6percpuI9trace_bufED1Ev
  2148: 000000004061ab7e     4 OBJECT  UNIQUE DEFAULT    9 _ZN16signature_helperIJiPKcS1_EE3sigE
  2149: 0000000040507e40   920 FUNC    WEAK   DEFAULT    4 _ZNSt7__cxx1112basic_stringIwSt11char_traitsIwESaIwEE10_M_replaceEmmPKwm
  2150: 00000000404ca6e0    80 FUNC    WEAK   DEFAULT    4 _ZSt9use_facetISt9money_getIcSt19istreambuf_iteratorIcSt11char_traitsIcEEEERKT_RKSt6locale
  2151: 000000004045ec10   131 FUNC    GLOBAL DEFAULT    4 _ZNSt6localeC2ERKS_PKci
  2152: 00000000404cbf40    24 FUNC    WEAK   DEFAULT    4 _ZNKSt11__timepunctIcE20_M_date_time_formatsEPPKc
  2153: 0000000040312470    62 FUNC    GLOBAL DEFAULT    4 _ZN11scsi_common14exec_synccacheEttP3bioh
  2154: 0000000040486280    14 FUNC    WEAK   DEFAULT    4 _ZNKSbIwSt11char_traitsIwESaIwEE5crendEv
  2155: 0000000040603678    24 OBJECT  WEAK   DEFAULT    9 _ZTIN6virtio2fsE
  2156: 00000000403bc420    81 FUNC    WEAK   DEFAULT    4 _ZNSt17_Function_handlerIFvvEN3osv19rcu_dispose_deleterISt6vectorINS1_13rcu_hashtableIN10classifier4itemENS5_9item_hashEE8next_ptrESaIS9_EEEEE9_M_invokeERKSt9_Any_data
  2157: 000000004030ca70   154 FUNC    GLOBAL DEFAULT    4 _ZN4acpi4initEv
  2158: 000000004054a900   496 FUNC    WEAK   DEFAULT    4 _ZNSt7__cxx1118basic_stringstreamIcSt11char_traitsIcESaIcEEC1ESt13_Ios_OpenmodeRKS3_
  2159: 0000000040402780    42 FUNC    WEAK   DEFAULT    4 _ZN9pipe_fileD0Ev
  2160: 0000000040914190     8 OBJECT  GLOBAL DEFAULT   52 elf_size
  2161: 00000000404f3170   227 FUNC    WEAK   DEFAULT    4 _ZNKSt10moneypunctIwLb1EE11do_groupingEv
  2162: 00000000402f30e0   170 FUNC    WEAK   DEFAULT    4 _ZN6virtio24virtio_modern_pci_deviceD0Ev
  2163: 00000000404b1ab0   246 FUNC    GLOBAL DEFAULT    4 _ZN11__gnu_debug30_Safe_unordered_container_base7_M_swapERS0_
  2164: 00000000404de040   112 FUNC    WEAK   DEFAULT    4 _ZNSo6sentryD1Ev
  2165: 00000000404ca830    30 FUNC    WEAK   DEFAULT    4 _ZNSt9money_putIcSt19ostreambuf_iteratorIcSt11char_traitsIcEEEC2Em
  2166: 0000000040467190     5 FUNC    WEAK   DEFAULT    4 _ZN9__gnu_cxx12__pool_allocIcE7destroyEPc
  2167: 00000000404eae50   365 FUNC    WEAK   DEFAULT    4 _ZNSt7__cxx1119basic_istringstreamIwSt11char_traitsIwESaIwEEC1Ev
  2168: 00000000404065a0     5 FUNC    GLOBAL DEFAULT    4 closelog
  2169: 0000000040488c10    65 FUNC    WEAK   DEFAULT    4 _ZNSbIwSt11char_traitsIwESaIwEEC2ERKS2_mRKS1_
  2170: 00000000404bd6e0   175 FUNC    WEAK   DEFAULT    4 _ZTv0_n24_NSt14basic_ifstreamIwSt11char_traitsIwEED0Ev
  2171: 000000004052ea20     5 FUNC    WEAK   DEFAULT    4 _ZNSt23_Sp_counted_ptr_inplaceINSt10filesystem7__cxx1128recursive_directory_iterator10_Dir_stackESaIS3_ELN9__gnu_cxx12_Lock_policyE2EED1Ev
  2172: 00000000403fb7e0   127 FUNC    GLOBAL DEFAULT    4 pthread_cancel
  2173: 0000000040249da0   488 FUNC    GLOBAL DEFAULT    4 _Z8net_initv
  2174: 000000004047ec90   358 FUNC    WEAK   DEFAULT    4 _ZNSt19basic_istringstreamIwSt11char_traitsIwESaIwEEaSEOS3_
  2175: 0000000040308420   925 FUNC    GLOBAL DEFAULT    4 _ZN3vmw7vmxnet3C1ERN3pci6deviceE
  2176: 00000000404bca80   249 FUNC    WEAK   DEFAULT    4 _ZNSt14basic_ifstreamIwSt11char_traitsIwEEC2ERKNSt7__cxx1112basic_stringIcS0_IcESaIcEEESt13_Ios_Openmode
  2177: 00000000402e8880     9 FUNC    GLOBAL DEFAULT    4 _ZN3pci8function13get_device_idEv
  2178: 00000000402a3660   619 FUNC    GLOBAL DEFAULT    4 tcp_ctlinput
  2179: 0000000040361110   399 FUNC    GLOBAL DEFAULT    4 AcpiNsDeleteNamespaceByOwner
  2180: 00000000403102c0   138 FUNC    GLOBAL DEFAULT    4 _ZN4ahci3hba5resetEv
  2181: 0000000040808620   384 OBJECT  GLOBAL DEFAULT   22 tsm_vte_unicode_upper
  2182: 0000000040315200    25 FUNC    GLOBAL DEFAULT    4 _ZN8xenfront15xenfront_driver5probeEv
  2183: 0000000040508e10     8 FUNC    WEAK   DEFAULT    4 _ZNKSt7__cxx1112basic_stringIwSt11char_traitsIwESaIwEE5c_strEv
  2184: 00000000402e7cc0     9 FUNC    GLOBAL DEFAULT    4 _ZN3pci6device16get_subsystem_idEv
  2185: 000000004033ba60   340 FUNC    WEAK   DEFAULT    4 _Z14unaligned_copyILj13ELj9EEvPvPKvm
  2186: 00000000404b2af0   190 FUNC    WEAK   DEFAULT    4 _ZN9__gnu_cxx13stdio_filebufIcSt11char_traitsIcEEC1EiSt13_Ios_Openmodem
  2187: 0000000040543910   185 FUNC    GLOBAL DEFAULT    4 _ZNSt10filesystem7__cxx114path17replace_extensionERKS1_
  2188: 0000000040919c70     8 OBJECT  GLOBAL DEFAULT   52 ripcb
  2189: 0000000040456c20   763 FUNC    GLOBAL DEFAULT    4 _ZSt7getlineIwSt11char_traitsIwESaIwEERSt13basic_istreamIT_T0_ES7_RSbIS4_S5_T1_ES4_
  2190: 00000000404c91b0    13 FUNC    WEAK   DEFAULT    4 _ZNKSt8numpunctIcE16do_thousands_sepEv
  2191: 0000000040957978     8 OBJECT  UNIQUE DEFAULT   52 _ZGVZNKSt8__detail11_AnyMatcherINSt7__cxx1112regex_traitsIcEELb0ELb0ELb1EEclEcE5__nul
  2192: 00000000404855f0   133 FUNC    WEAK   DEFAULT    4 _ZNSs12_S_constructIN9__gnu_cxx17__normal_iteratorIPcSsEEEES2_T_S4_RKSaIcESt20forward_iterator_tag
  2193: 00000000404b8670    13 FUNC    WEAK   DEFAULT    4 _ZNKSt13basic_fstreamIwSt11char_traitsIwEE7is_openEv
  2194: 00000000407fe338    88 OBJECT  WEAK   DEFAULT   21 _ZTVNSt7__cxx118time_getIcSt19istreambuf_iteratorIcSt11char_traitsIcEEEE
  2195: 0000000040393540   300 FUNC    GLOBAL DEFAULT    4 _ZN5sched6thread6reaperC1Ev
  2196: 0000000040333060   928 FUNC    WEAK   DEFAULT    4 _Z13do_sse_memcpyILj61E12load_aligned13store_alignedEvPvPKv
  2197: 00000000403491e0    50 FUNC    GLOBAL DEFAULT    4 AcpiUtGetObjectTypeName
  2198: 00000000407ffd50    16 OBJECT  WEAK   DEFAULT   21 _ZTISt8ios_base
  2199: 0000000040269810    32 FUNC    GLOBAL DEFAULT    4 _ZN8callouts14remove_calloutEP7callout
  2200: 0000000040610927     3 OBJECT  UNIQUE DEFAULT    9 _ZN16signature_helperIJPN8lockfree5mutexEbEE3sigE
  2201: 0000000040424280   269 FUNC    GLOBAL DEFAULT    4 fgetln
  2202: 0000000040484dc0     9 FUNC    WEAK   DEFAULT    4 _ZNSspLESt16initializer_listIcE
  2203: 00000000403cc370   410 FUNC    GLOBAL DEFAULT    4 pread
  2204: 000000004061ac90     5 OBJECT  UNIQUE DEFAULT    9 _ZN16signature_helperIJiijPmEE3sigE
  2205: 00000000403e0710    56 FUNC    WEAK   DEFAULT    4 _ZNSt17_Function_handlerIFvPvEPS1_E10_M_managerERSt9_Any_dataRKS4_St18_Manager_operation
  2206: 00000000404aaaa0    34 FUNC    WEAK   DEFAULT    4 _ZNKSt7__cxx1110moneypunctIwLb0EE13decimal_pointEv
  2207: 000000004045fdd0    97 FUNC    WEAK   DEFAULT    4 _ZNSt7__cxx1112basic_stringIwSt11char_traitsIwESaIwEE5eraseEN9__gnu_cxx17__normal_iteratorIPwS4_EES8_
  2208: 000000004034ddb0   322 FUNC    GLOBAL DEFAULT    4 AcpiExOpcode_2A_2T_1R
  2209: 0000000040325fd0    41 FUNC    WEAK   DEFAULT    4 _Z15do_small_memcpyILm56EEPvS0_PKv
  2210: 0000000040379400    56 FUNC    WEAK   DEFAULT    4 _ZN10c_shrinkerD0Ev
  2211: 00000000402cc930   262 FUNC    WEAK   DEFAULT    4 _ZNSt8_Rb_treeIN3mmu9vma_rangeES1_St9_IdentityIS1_ENS0_17vma_range_compareESaIS1_EE11equal_rangeERKS1_
  2212: 0000000040359790   395 FUNC    GLOBAL DEFAULT    4 AcpiEvDetachRegion
  2213: 000000004039b640     5 FUNC    WEAK   DEFAULT    4 _ZNSt23_Sp_counted_ptr_inplaceINSt8__detail4_NFAINSt7__cxx1112regex_traitsIcEEEESaIS5_ELN9__gnu_cxx12_Lock_policyE2EED2Ev
  2214: 00000000404c5800   318 FUNC    WEAK   DEFAULT    4 _ZNSi10_M_extractIPvEERSiRT_
  2215: 0000000040265740    94 FUNC    GLOBAL DEFAULT    4 bioq_takefirst
  2216: 0000000040545bc0   352 FUNC    GLOBAL DEFAULT    4 _ZNSt10filesystem7__cxx1116filesystem_errorC1ERKNSt7__cxx1112basic_stringIcSt11char_traitsIcESaIcEEERKNS0_4pathESt10error_code
  2217: 000000004080b480    48 OBJECT  GLOBAL DEFAULT   22 zfs_vfsops
  2218: 0000000040248fc0   129 FUNC    GLOBAL DEFAULT    4 fpathconf
  2219: 000000004066bf80    36 OBJECT  UNIQUE DEFAULT    9 _ZZNSt8__detail10__to_charsIjEESt15to_chars_resultPcS2_T_iE8__digits
  2220: 0000000040362b40    97 FUNC    GLOBAL DEFAULT    4 AcpiDsObjStackPopAndDelete
  2221: 00000000404aae30    83 FUNC    WEAK   DEFAULT    4 _ZNSt7__cxx1110moneypunctIwLb1EEC2EPSt18__moneypunct_cacheIwLb1EEm
  2222: 0000000040260150    14 FUNC    GLOBAL DEFAULT    4 sys_recvmsg
  2223: 0000000040956b00    40 OBJECT  GLOBAL DEFAULT   52 _ZN5sched3cpu8notifier4_mtxE
  2224: 000000004068ac92     1 OBJECT  UNIQUE DEFAULT    9 _ZNSt10filesystem7__cxx114path19preferred_separatorE
  2225: 0000000040354480    33 FUNC    GLOBAL DEFAULT    4 AcpiTbChecksum
  2226: 00000000404e6740   281 FUNC    WEAK   DEFAULT    4 _ZNSt7__cxx1119basic_istringstreamIcSt11char_traitsIcESaIcEEC2ESt13_Ios_Openmode
  2227: 00000000402d29d0   399 FUNC    WEAK   DEFAULT    4 _ZN3mmu9map_levelINS_10protectionELi1EEclENS_7hw_ptepILi1EEEm
  2228: 000000004038e7d0   331 FUNC    GLOBAL DEFAULT    4 _ZN5sched10timer_list6resumeERN5boost9intrusive4listINS_10timer_baseEJNS2_11member_hookIS4_NS2_16list_member_hookIJEEEXadL_ZNS4_11client_hookEEEEEEEE
  2229: 00000000405f99a0    24 OBJECT  WEAK   DEFAULT    9 _ZTIN7console12console_fileE
  2230: 0000000040406c10    40 FUNC    GLOBAL DEFAULT    4 __isalnum_l
  2231: 0000000040485850    79 FUNC    WEAK   DEFAULT    4 _ZNSsC1ERKSsmmRKSaIcE
  2232: 000000004038cbd0   145 FUNC    GLOBAL DEFAULT    4 _ZN5sched6thread15switch_to_firstEv
  2233: 0000000040668eb4     4 OBJECT  GLOBAL DEFAULT    9 _ZNSt14numeric_limitsIoE5radixE
  2234: 0000000040622285     3 OBJECT  UNIQUE DEFAULT    9 _ZN16signature_helperIJPN3osv11applicationEPKcEE3sigE
  2235: 0000000040325d10    40 FUNC    WEAK   DEFAULT    4 _Z15do_small_memcpyILm42EEPvS0_PKv
  2236: 0000000040387390     9 FUNC    WEAK   DEFAULT    4 _ZN5boost6detail17sp_counted_impl_pINS_6spirit2qi3tstIKcS5_EEED0Ev
  2237: 0000000040362bb0    19 FUNC    GLOBAL DEFAULT    4 AcpiDsGetCurrentWalkState
  2238: 00000000403b5e40   556 FUNC    GLOBAL DEFAULT    4 _ZN7workman12call_of_dutyEv
  2239: 00000000404506f0    58 FUNC    WEAK   DEFAULT    4 _ZN9__gnu_cxx8__detail13__mini_vectorISt4pairIPNS_16bitmap_allocatorIwE12_Alloc_blockES6_EE5eraseEPS7_
  2240: 00000000409410c2     1 OBJECT  GLOBAL DEFAULT   52 AcpiGbl_LastOwnerIdIndex
  2241: 000000004098c820     8 OBJECT  UNIQUE DEFAULT   52 _ZNSt7__cxx119money_putIwSt19ostreambuf_iteratorIwSt11char_traitsIwEEE2idE
  2242: 00000000404bb8d0   356 FUNC    WEAK   DEFAULT    4 _ZNSt13basic_fstreamIwSt11char_traitsIwEEC1Ev
  2243: 00000000402c4540   147 FUNC    GLOBAL DEFAULT    4 _ZN3mmu8shm_file5closeEv
  2244: 00000000404ee1c0   206 FUNC    WEAK   DEFAULT    4 _ZNSt15basic_streambufIcSt11char_traitsIcEE4swapERS2_
  2245: 00000000406694c0    22 OBJECT  WEAK   DEFAULT    9 _ZTSSt10moneypunctIcLb1EE
  2246: 00000000403088d0    34 FUNC    WEAK   DEFAULT    4 _ZNSt17_Function_handlerIFbvEZN3vmw15vmxnet3_txqueueC4EvEUlvE_E10_M_managerERSt9_Any_dataRKS5_St18_Manager_operation
  2247: 00000000404f03f0   108 FUNC    WEAK   DEFAULT    4 _ZNSt7__cxx1112basic_stringIcSt11char_traitsIcESaIcEE7replaceEmmPKc
  2248: 0000000040473e60   304 FUNC    WEAK   DEFAULT    4 _ZNSt13__facet_shims19__collate_transformIcEEvSt17integral_constantIbLb0EEPKNSt6locale5facetERNS_12__any_stringEPKT_SB_
  2249: 000000004047ca30   289 FUNC    WEAK   DEFAULT    4 _ZNSt18basic_stringstreamIcSt11char_traitsIcESaIcEED2Ev
  2250: 00000000404a0810    36 FUNC    WEAK   DEFAULT    4 _ZNSt7__cxx1115time_get_bynameIwSt19istreambuf_iteratorIwSt11char_traitsIwEEED0Ev
  2251: 00000000402aba20   743 FUNC    GLOBAL DEFAULT    4 _Z23bind_virq_to_irqhandlerjjPKcPvPFvS1_ES1_mPj
  2252: 000000004029d570    25 FUNC    WEAK   DEFAULT    4 _ZNSt17_Function_handlerIFvvEN3osv19rcu_dispose_deleterINS1_13rcu_hashtableI9epoll_ptrSt4hashIS4_EE7elementEEEE9_M_invokeERKSt9_Any_data
  2253: 0000000040452d60    80 FUNC    GLOBAL DEFAULT    4 _ZNSt7codecvtIcc11__mbstate_tED2Ev
  2254: 0000000040914338     8 OBJECT  UNIQUE DEFAULT   52 _ZGVZN5boost4asio5error17get_misc_categoryEvE8instance
  2255: 00000000404f2220     5 FUNC    GLOBAL DEFAULT    4 _ZNSt3_V214error_categoryD2Ev
  2256: 000000004030d6d0    16 FUNC    WEAK   DEFAULT    4 _ZN16hpet_32bit_clockD1Ev
  2257: 00000000406127d8     4 OBJECT  UNIQUE DEFAULT    9 _ZN16signature_helperIJPvmS0_EE3sigE
  2258: 000000004062cf38   184 OBJECT  WEAK   DEFAULT    9 _ZTV8event_fd
  2259: 00000000402ea8a0   157 FUNC    GLOBAL DEFAULT    4 _ZN2hw14driver_manager15register_driverESt8functionIFPNS_9hw_driverEPNS_9hw_deviceEEE
  2260: 0000000040608248    48 OBJECT  WEAK   DEFAULT    9 _ZTV17apic_clock_events
  2261: 00000000403d3170   117 FUNC    GLOBAL DEFAULT    4 _ZN4fileD2Ev
  2262: 0000000040408a60    10 FUNC    GLOBAL DEFAULT    4 localeconv
  2263: 000000004035f800   622 FUNC    GLOBAL DEFAULT    4 AcpiNsCheckPredefinedNames
  2264: 00000000403cfb80   360 FUNC    GLOBAL DEFAULT    4 fallocate
  2265: 0000000040364980   112 FUNC    GLOBAL DEFAULT    4 AcpiDsMethodDataDeleteAll
  2266: 0000000040364310   571 FUNC    GLOBAL DEFAULT    4 AcpiDsBeginMethodExecution
  2267: 00000000404019e0  1452 FUNC    WEAK   DEFAULT    4 _ZNSt5dequeIcSaIcEE8_M_eraseESt15_Deque_iteratorIcRcPcES5_
  2268: 0000000040669084     4 OBJECT  GLOBAL DEFAULT    9 _ZNSt14numeric_limitsItE14max_exponent10E
  2269: 00000000404cc670     8 FUNC    WEAK   DEFAULT    4 _ZNKSt8messagesIcE18_M_convert_to_charERKSs
  2270: 0000000040487530    53 FUNC    WEAK   DEFAULT    4 _ZNSbIwSt11char_traitsIwESaIwEE4rendEv
  2271: 00000000402bc660   112 FUNC    GLOBAL DEFAULT    4 ena_com_get_dev_basic_stats
  2272: 000000004045f650   196 FUNC    WEAK   DEFAULT    4 _ZNSbIwSt11char_traitsIwESaIwEE12_S_constructIPwEES4_T_S5_RKS1_St20forward_iterator_tag
  2273: 00000000403353d0    62 FUNC    WEAK   DEFAULT    4 _Z14unaligned_copyILj1ELj10EEvPvPKvm
  2274: 00000000404f6120   188 FUNC    WEAK   DEFAULT    4 _ZNSt14collate_bynameIwEC1EPKcm
  2275: 00000000403d01e0    11 FUNC    GLOBAL DEFAULT    4 utimes
  2276: 0000000040314200   867 FUNC    GLOBAL DEFAULT    4 _ZN3vmw6pvscsiC1ERN3pci6deviceE
  2277: 0000000040320270    37 FUNC    WEAK   DEFAULT    4 _ZN26interrupt_descriptor_tableD2Ev
  2278: 00000000402cf640   679 FUNC    WEAK   DEFAULT    4 _ZN3mmu9map_levelINS_8populateILNS_11account_optE1EEELi2EEclENS_7hw_ptepILi2EEEm
  2279: 00000000409411a8     8 OBJECT  GLOBAL DEFAULT   52 AcpiGbl_OsiMutex
  2280: 00000000406117c0    32 OBJECT  WEAK   DEFAULT    9 _ZTSN9pagecache17cached_page_writeE
  2281: 00000000403d75e0   375 FUNC    GLOBAL DEFAULT    4 sys_read
  2282: 00000000407faa50    40 OBJECT  WEAK   DEFAULT   21 _ZTVN9__gnu_cxx26__concurrence_unlock_errorE
  2283: 0000000040379790    88 FUNC    WEAK   DEFAULT    4 _ZN6memory9reclaimerD1Ev
  2284: 000000004030bde0    55 FUNC    WEAK   DEFAULT    4 _ZN8kvmclockD0Ev
  2285: 0000000040274a60   117 FUNC    GLOBAL DEFAULT    4 _Z13rt_maskedcopyP12bsd_sockaddrS0_S0_
  2286: 000000004036c9e0   862 FUNC    WEAK   DEFAULT    4 _ZNSt8_Rb_treeINSt7__cxx1112basic_stringIcSt11char_traitsIcESaIcEEESt4pairIKS5_17logger_severity_eESt10_Select1stIS9_ESt4lessIS5_ESaIS9_EE17_M_emplace_uniqueIJS6_IPKcS8_EEEES6_ISt17_Rb_tree_iteratorIS9_EbEDpOT_
  2287: 0000000040807614     4 OBJECT  GLOBAL DEFAULT   22 tcp_keepcnt
  2288: 00000000404f4010    13 FUNC    WEAK   DEFAULT    4 _ZNKSt9money_putIwSt19ostreambuf_iteratorIwSt11char_traitsIwEEE3putES3_bRSt8ios_basewe
  2289: 00000000402d60f0    54 FUNC    GLOBAL DEFAULT    4 _ZN3elf6object33has_non_writable_text_relocationsEv
  2290: 00000000402fa400   201 FUNC    WEAK   DEFAULT    4 _ZN4nvme10queue_pair15advance_sq_tailEv
  2291: 0000000040423e60    47 FUNC    GLOBAL DEFAULT    4 __fpurge
  2292: 000000004098cd88     8 OBJECT  UNIQUE DEFAULT   52 _ZGVNSt9money_getIwSt19istreambuf_iteratorIwSt11char_traitsIwEEE2idE
  2293: 0000000040409260    82 FUNC    GLOBAL DEFAULT    4 __fpclassify
  2294: 000000004035c110   251 FUNC    GLOBAL DEFAULT    4 AcpiEvUpdateGpes
  2295: 00000000403fbe40   189 FUNC    WEAK   DEFAULT    4 getrlimit64
  2296: 00000000402bee70   143 FUNC    GLOBAL DEFAULT    4 _Z21ena_deferred_mq_startP8ena_ring
  2297: 00000000404c91a0    13 FUNC    WEAK   DEFAULT    4 _ZNKSt8numpunctIcE16do_decimal_pointEv
  2298: 0000000040548a10   371 FUNC    GLOBAL DEFAULT    4 _ZNSt3pmr28unsynchronized_pool_resource11do_allocateEmm
  2299: 00000000407ffbc0    24 OBJECT  WEAK   DEFAULT   21 _ZTISt17bad_function_call
  2300: 0000000040475b40   418 FUNC    WEAK   DEFAULT    4 _ZNSt13__facet_shims11__money_putIcEESt19ostreambuf_iteratorIT_St11char_traitsIS2_EESt17integral_constantIbLb0EEPKNSt6locale5facetES5_bRSt8ios_baseS2_ePKNS_12__any_stringE
  2301: 000000004092dc88     4 OBJECT  GLOBAL DEFAULT   52 tcp_fast_finwait2_recycle
  2302: 0000000040668d8c     1 OBJECT  GLOBAL DEFAULT    9 _ZNSt14numeric_limitsIDsE8is_exactE
  2303: 000000004044deb0   100 FUNC    GLOBAL DEFAULT    4 _ZnwmSt11align_val_t
  2304: 00000000404c0000    12 FUNC    WEAK   DEFAULT    4 _ZNKSt9basic_iosIwSt11char_traitsIwEEcvbEv
  2305: 00000000405ea1d8    16 OBJECT  WEAK   DEFAULT    9 _ZTI10synch_port
  2306: 00000000404b71c0   120 FUNC    WEAK   DEFAULT    4 _ZNSt13basic_filebufIwSt11char_traitsIwEE14_M_get_ext_posER11__mbstate_t
  2307: 000000004046c1e0     7 FUNC    GLOBAL DEFAULT    4 _ZNKSt25__codecvt_utf8_utf16_baseIDiE16do_always_noconvEv
  2308: 0000000040547d10   235 FUNC    GLOBAL DEFAULT    4 _ZNSt3pmr26synchronized_pool_resourceC1ERKNS_12pool_optionsEPNS_15memory_resourceE
  2309: 0000000040540070   390 FUNC    GLOBAL DEFAULT    4 _ZNSt10filesystem7__cxx114path15remove_filenameEv
  2310: 00000000403d6910   107 FUNC    GLOBAL DEFAULT    4 vref
  2311: 00000000403edc70    20 FUNC    GLOBAL DEFAULT    4 endmntent
  2312: 000000004044c6d0    27 FUNC    GLOBAL DEFAULT    4 _ZN10__cxxabiv115__forced_unwindD0Ev
  2313: 000000004044fbd0     5 FUNC    WEAK   DEFAULT    4 _ZNSaIwED2Ev
  2314: 000000004036ab00    25 FUNC    GLOBAL DEFAULT    4 _ZN6logger17loggable_severityE17logger_severity_e
  2315: 00000000404a6b90    30 FUNC    WEAK   DEFAULT    4 _ZNSt7__cxx119money_putIwSt19ostreambuf_iteratorIwSt11char_traitsIwEEEC2Em
  2316: 000000004044d550    90 FUNC    GLOBAL DEFAULT    4 _ZSt17current_exceptionv
  2317: 00000000404b82a0    13 FUNC    WEAK   DEFAULT    4 _ZNKSt14basic_ofstreamIwSt11char_traitsIwEE7is_openEv
  2318: 0000000040802518    24 OBJECT  WEAK   DEFAULT   21 _ZTINSt3pmr28unsynchronized_pool_resourceE
  2319: 0000000040465840     5 FUNC    WEAK   DEFAULT    4 _ZN9__gnu_cxx10__mt_allocIwNS_20__common_pool_policyINS_6__poolELb1EEEEC1ERKS4_
  2320: 0000000040507710    36 FUNC    WEAK   DEFAULT    4 _ZNKSt7__cxx1112basic_stringIwSt11char_traitsIwESaIwEE2atEm
  2321: 000000004023e460   151 FUNC    WEAK   DEFAULT    4 _ZN5boost2io22basic_oaltstringstreamIcSt11char_traitsIcESaIcEED0Ev
  2322: 0000000040269880    26 FUNC    WEAK   DEFAULT    4 _ZN9trace_log5writeEP12trace_record
  2323: 0000000040335dc0    96 FUNC    WEAK   DEFAULT    4 _Z14unaligned_copyILj3ELj11EEvPvPKvm
  2324: 00000000406114a0    16 OBJECT  WEAK   DEFAULT    9 _ZTIN3osv3rcu12cpu_notifierMUlvE_E
  2325: 000000004036df30    25 FUNC    WEAK   DEFAULT    4 _ZNSt10unique_ptrIN5sched6threadESt14default_deleteIS1_EED2Ev
  2326: 000000004033d320   284 FUNC    WEAK   DEFAULT    4 _Z14unaligned_copyILj11ELj4EEvPvPKvm
  2327: 0000000040273770   145 FUNC    GLOBAL DEFAULT    4 _Z13rn_detachheadPPv
  2328: 000000004033fa80    16 FUNC    GLOBAL DEFAULT    4 _ZN6ioapic8data_regEv
  2329: 0000000040536260   497 FUNC    WEAK   DEFAULT    4 _ZNSt5dequeINSt10filesystem7__cxx114pathESaIS2_EED1Ev
  2330: 0000000040467150     8 FUNC    WEAK   DEFAULT    4 _ZNK9__gnu_cxx12__pool_allocIcE7addressERc
  2331: 00000000404b9d30   338 FUNC    WEAK   DEFAULT    4 _ZNSt14basic_ofstreamIcSt11char_traitsIcEEC1ERKNSt7__cxx1112basic_stringIcS1_SaIcEEESt13_Ios_Openmode
  2332: 00000000404da240   295 FUNC    WEAK   DEFAULT    4 _ZNKSt8time_getIcSt19istreambuf_iteratorIcSt11char_traitsIcEEE11do_get_dateES3_S3_RSt8ios_baseRSt12_Ios_IostateP2tm
  2333: 000000004061b120   418 OBJECT  WEAK   DEFAULT    9 _ZTSN5boost6spirit2qi6detail13parser_binderINS1_16lexeme_directiveINS1_8sequenceINS_6fusion4consINS1_12literal_charINS0_13char_encoding8standardELb1ELb0EEENS7_INS1_6kleeneINS1_11alternativeINS7_INS1_9referenceINS1_7symbolsIKcSG_NS1_3tstISG_SG_EENS1_16tst_pass_throughEEEEENS7_INS1_10differenceINS1_10char_classINS0_3tag9char_codeINSO_5char_ENS9_5asciiEEEEESB_EENS6_4nil_EEEEEEEEENS7_ISB_SV_EEEEEEEEEEN4mpl_5bool_ILb1EEEEE
  2334: 00000000404262e0   131 FUNC    GLOBAL DEFAULT    4 swprintf
  2335: 000000004028bcf0     9 FUNC    GLOBAL DEFAULT    4 in_rtalloc_ign
  2336: 00000000403c51e0    23 FUNC    GLOBAL DEFAULT    4 io_submit
  2337: 00000000404a0600    12 FUNC    WEAK   DEFAULT    4 _ZNKSt7__cxx118numpunctIwE16do_thousands_sepEv
  2338: 0000000040549af0   126 FUNC    WEAK   DEFAULT    4 _ZNSt7__cxx1115basic_stringbufIwSt11char_traitsIwESaIwEEC2ERKS3_
  2339: 00000000407fd980    80 OBJECT  WEAK   DEFAULT   21 _ZTTSt18basic_stringstreamIwSt11char_traitsIwESaIwEE
  2340: 00000000404eb250   191 FUNC    WEAK   DEFAULT    4 _ZNSt7__cxx1119basic_istringstreamIwSt11char_traitsIwESaIwEEC2ERKNS_12basic_stringIwS2_S3_EESt13_Ios_Openmode
  2341: 0000000040451800     5 FUNC    WEAK   DEFAULT    4 _ZN9__gnu_cxx16bitmap_allocatorIcEC2Ev
  2342: 00000000403d6de0    70 FUNC    GLOBAL DEFAULT    4 vn_add_name
  2343: 00000000404c98a0   142 FUNC    WEAK   DEFAULT    4 _ZNKSt10moneypunctIcLb0EE16do_positive_signEv
  2344: 00000000404a0440    29 FUNC    GLOBAL DEFAULT    4 _ZNSt12out_of_rangeC1ERKNSt7__cxx1112basic_stringIcSt11char_traitsIcESaIcEEE
  2345: 0000000040608d50     4 OBJECT  GLOBAL DEFAULT    9 AcpiGbl_ResourceStructSerialBusSizes
  2346: 0000000040246d50  1169 FUNC    WEAK   DEFAULT    4 _ZN3osv7sprintfIJPKcEEENSt7__cxx1112basic_stringIcSt11char_traitsIcESaIcEEES2_DpT_
  2347: 00000000404b8ae0   273 FUNC    WEAK   DEFAULT    4 _ZNSt14basic_ifstreamIcSt11char_traitsIcEEC1Ev
  2348: 00000000404f43f0   165 FUNC    WEAK   DEFAULT    4 _ZNKSt10moneypunctIwLb0EE13positive_signEv
  2349: 0000000040941010     8 OBJECT  GLOBAL DEFAULT   52 AcpiGbl_GlobalEventHandlerContext
  2350: 00000000402fd960    94 FUNC    WEAK   DEFAULT    4 _ZN6virtio17interrupt_factoryD1Ev
  2351: 00000000404fb760   202 FUNC    WEAK   DEFAULT    4 _ZNKSt19istreambuf_iteratorIwSt11char_traitsIwEE5equalERKS2_
  2352: 0000000040468a60   271 FUNC    GLOBAL DEFAULT    4 _ZNSt12strstreambuf8overflowEi
  2353: 0000000040668f9c     4 OBJECT  GLOBAL DEFAULT    9 _ZNSt14numeric_limitsImE14min_exponent10E
  2354: 000000004047ce90   360 FUNC    WEAK   DEFAULT    4 _ZNSt18basic_stringstreamIcSt11char_traitsIcESaIcEEaSEOS3_
  2355: 00000000403fcf40    15 FUNC    GLOBAL DEFAULT    4 clock
  2356: 0000000040608d80    20 OBJECT  GLOBAL DEFAULT    9 AcpiGbl_AmlResourceSizes
  2357: 000000004044c3b0    53 FUNC    GLOBAL DEFAULT    4 __cxa_free_dependent_exception
  2358: 00000000402f5160   159 FUNC    GLOBAL DEFAULT    4 _ZN4nvme6driver24set_interrupt_coalescingEhh
  2359: 00000000407fabd0    64 OBJECT  WEAK   DEFAULT   21 _ZTVN10__cxxabiv120__function_type_infoE
  2360: 00000000404f3ef0    78 FUNC    WEAK   DEFAULT    4 _ZSt9has_facetISt9money_putIwSt19ostreambuf_iteratorIwSt11char_traitsIwEEEEbRKSt6locale
  2361: 0000000040358cc0   266 FUNC    GLOBAL DEFAULT    4 AcpiRemoveGpeHandler
  2362: 000000004049a7e0   695 FUNC    WEAK   DEFAULT    4 _ZNKSt7__cxx118time_getIcSt19istreambuf_iteratorIcSt11char_traitsIcEEE3getES4_S4_RSt8ios_baseRSt12_Ios_IostateP2tmcc
  2363: 00000000402fb0b0    35 FUNC    GLOBAL DEFAULT    4 _ZN6virtio3netD0Ev
  2364: 00000000403baf30   123 FUNC    GLOBAL DEFAULT    4 _ZN15boot_time_chart7to_msecEm
  2365: 00000000403b0340    16 FUNC    GLOBAL DEFAULT    4 _ZN19callstack_collector17trace_object_sizeEv
  2366: 00000000402d7100   207 FUNC    GLOBAL DEFAULT    4 _ZN3elf6object10symtab_lenEv
  2367: 00000000405f8e30    24 OBJECT  WEAK   DEFAULT    9 _ZTIN3mmu8file_vmaE
  2368: 0000000040377ef0   446 FUNC    GLOBAL DEFAULT    4 _ZN6memory4pool8add_pageEv
  2369: 00000000404f0f90    16 FUNC    WEAK   DEFAULT    4 _ZNKSt7__cxx1112basic_stringIcSt11char_traitsIcESaIcEE13find_first_ofERKS4_m
  2370: 00000000402bafc0    64 FUNC    GLOBAL DEFAULT    4 ena_com_abort_admin_commands
  2371: 000000004052f960    12 FUNC    GLOBAL DEFAULT    4 _ZNKSt10filesystem7__cxx1118directory_iteratordeEv
  2372: 0000000040464f10     5 FUNC    GLOBAL DEFAULT    4 _ZN9__gnu_cxx6__poolILb1EE21_M_destroy_thread_keyEPv
  2373: 000000004029d550    25 FUNC    GLOBAL DEFAULT    4 tcp_flush_net_channel
  2374: 0000000040989410     8 OBJECT  GLOBAL DEFAULT   52 __after_morecore_hook
  2375: 00000000404ceca0    78 FUNC    WEAK   DEFAULT    4 _ZSt9has_facetISt7codecvtIcc11__mbstate_tEEbRKSt6locale
  2376: 00000000403236b0    32 FUNC    GLOBAL DEFAULT    4 _ZN17interrupt_managerC1EPN3pci8functionE
  2377: 00000000403f0b20   402 FUNC    GLOBAL DEFAULT    4 __ipparse
  2378: 00000000402f1c90    21 FUNC    GLOBAL DEFAULT    4 _ZN6virtio24virtio_legacy_pci_device12select_queueEi
  2379: 000000004028d4c0    17 FUNC    GLOBAL DEFAULT    4 _Z15kmod_ipstat_inci
  2380: 0000000040457690    57 FUNC    GLOBAL DEFAULT    4 _ZSt24__is_ios_failure_handlerPKN10__cxxabiv117__class_type_infoE
  2381: 000000004023cf10    56 FUNC    WEAK   DEFAULT    4 _ZN5boost6system12system_errorD1Ev
  2382: 0000000040482440   153 FUNC    GLOBAL DEFAULT    4 _ZGTtNSt12out_of_rangeC1ERKNSt7__cxx1112basic_stringIcSt11char_traitsIcESaIcEEE
  2383: 00000000402bb120    60 FUNC    GLOBAL DEFAULT    4 ena_com_set_admin_running_state
  2384: 00000000403f05f0    16 FUNC    WEAK   DEFAULT    4 _ZN5boost4asio2ip16bad_address_castD1Ev
  2385: 000000004061b0f8    16 OBJECT  WEAK   DEFAULT    9 _ZTIN5boost6spirit2qi6detail13parser_binderINS1_17no_skip_directiveINS1_4plusINS1_11alternativeINS_6fusion4consINS1_9referenceINS1_7symbolsIKcSB_NS1_3tstISB_SB_EENS1_16tst_pass_throughEEEEENS8_INS1_10differenceINSH_INSH_INSH_INS1_10char_classINS0_3tag9char_codeINSJ_5char_ENS0_13char_encoding5asciiEEEEENS1_12literal_charINSM_8standardELb1ELb0EEEEESS_EESS_EESS_EENS7_4nil_EEEEEEEEEEEN4mpl_5bool_ILb1EEEEE
  2386: 0000000040396bb0    83 FUNC    GLOBAL DEFAULT    4 _ZN15tracepoint_base6enableEb
  2387: 0000000040485790   127 FUNC    WEAK   DEFAULT    4 _ZNSsC2ERKSsmm
  2388: 00000000404678d0    23 FUNC    GLOBAL DEFAULT    4 _ZNSt16invalid_argumentD2Ev
  2389: 00000000404681f0    24 FUNC    GLOBAL DEFAULT    4 _ZNSt12strstreambuf3strEv
  2390: 000000004049b730    12 FUNC    GLOBAL DEFAULT    4 _ZNSt12ctype_bynameIcEC2ERKNSt7__cxx1112basic_stringIcSt11char_traitsIcESaIcEEEm
  2391: 00000000404050c0   184 FUNC    GLOBAL DEFAULT    4 timerfd_create
  2392: 00000000403130a0   329 FUNC    GLOBAL DEFAULT    4 _ZN3ide9ide_driveC1ERN3pci6deviceE
  2393: 00000000402b9c20    21 FUNC    GLOBAL DEFAULT    4 _Z17hyperv_tc64_rdmsrv
  2394: 00000000409381c0     4 OBJECT  GLOBAL DEFAULT   52 hyperv_recommends
  2395: 00000000403755c0    49 FUNC    GLOBAL DEFAULT    4 _ZN6memory5stats12get_l1_statsEjRNS0_10pool_statsE
  2396: 00000000403e5810     5 FUNC    WEAK   DEFAULT    4 _ZNSt23_Sp_counted_ptr_inplaceIN8pseudofs19pseudo_symlink_nodeESaIS1_ELN9__gnu_cxx12_Lock_policyE2EED1Ev
  2397: 0000000040410730    88 FUNC    GLOBAL DEFAULT    4 fmaxf
  2398: 000000004033f180   128 FUNC    WEAK   DEFAULT    4 _Z14unaligned_copyILj5ELj12EEvPvPKvm
  2399: 00000000404b7f50    13 FUNC    WEAK   DEFAULT    4 _ZNSt14basic_ifstreamIwSt11char_traitsIwEE7is_openEv
  2400: 00000000402d6220    97 FUNC    GLOBAL DEFAULT    4 _ZN3elf6object13load_segmentsEv
  2401: 0000000040276480    42 FUNC    GLOBAL DEFAULT    4 _Z6rtinitP10bsd_ifaddrii
  2402: 00000000404c8230    23 FUNC    WEAK   DEFAULT    4 _ZStrsIwSt11char_traitsIwEERSt13basic_istreamIT_T0_ES6_St5_Setw
  2403: 00000000402e7b90   169 FUNC    GLOBAL DEFAULT    4 _ZN3pci17pci_devices_printEv
  2404: 0000000040611800    30 OBJECT  WEAK   DEFAULT    9 _ZTSN9pagecache15cached_page_arcE
  2405: 00000000403846c0    88 FUNC    GLOBAL DEFAULT    4 _ZN3osv19expand_environ_varsERSt6vectorIS0_INSt7__cxx1112basic_stringIcSt11char_traitsIcESaIcEEESaIS6_EESaIS8_EE
  2406: 0000000040410790   147 FUNC    GLOBAL DEFAULT    4 fmaxl
  2407: 00000000404211a0   886 FUNC    GLOBAL DEFAULT    4 inet_pton
  2408: 0000000040360440    94 FUNC    GLOBAL DEFAULT    4 AcpiNsGetAttachedObject
  2409: 000000004050aa10    20 FUNC    WEAK   DEFAULT    4 _ZNSt12__shared_ptrINSt10filesystem28recursive_directory_iterator10_Dir_stackELN9__gnu_cxx12_Lock_policyE2EEC1EDn
  2410: 0000000040534840    99 FUNC    GLOBAL DEFAULT    4 _ZNSt10filesystem14symlink_statusERKNS_7__cxx114pathE
  2411: 0000000040286080   284 FUNC    GLOBAL DEFAULT    4 in_pcbpurgeif0
  2412: 00000000403de590   378 FUNC    WEAK   DEFAULT    4 _ZNSt6vectorIN4rofs25cache_segment_transactionESaIS1_EE17_M_realloc_insertIJRKS1_EEEvN9__gnu_cxx17__normal_iteratorIPS1_S3_EEDpOT_
  2413: 00000000403e08f0   229 FUNC    GLOBAL DEFAULT    4 _ZN8virtiofs15dax_window_impl5unmapEmm
  2414: 0000000040266db0    20 FUNC    GLOBAL DEFAULT    4 osv_curtid
  2415: 00000000403da350   111 FUNC    GLOBAL DEFAULT    4 _ZN8vfs_file5closeEv
  2416: 0000000040383a00   125 FUNC    WEAK   DEFAULT    4 _ZNSt13unordered_mapIPv9waitqueueSt4hashIS0_ESt8equal_toIS0_ESaISt4pairIKS0_S1_EEED1Ev
  2417: 000000004025f1e0  1259 FUNC    GLOBAL DEFAULT    4 kern_accept
  2418: 0000000040800420    24 OBJECT  WEAK   DEFAULT   21 _ZTISt15time_get_bynameIcSt19istreambuf_iteratorIcSt11char_traitsIcEEE
  2419: 0000000040919d60   184 OBJECT  GLOBAL DEFAULT   52 udp_usrreqs
  2420: 00000000402ce2b0   387 FUNC    WEAK   DEFAULT    4 _ZN3mmu9map_levelINS_18linear_page_mapperELi3EEclENS_7hw_ptepILi3EEEm
  2421: 00000000402cb970   231 FUNC    WEAK   DEFAULT    4 _ZN3mmu37uninitialized_anonymous_page_provider3mapEmNS_7hw_ptepILi0EEENS_10pt_elementILi0EEEb
  2422: 000000004040e830   373 FUNC    GLOBAL DEFAULT    4 erfcf
  2423: 00000000405f8ec8    16 OBJECT  WEAK   DEFAULT    9 _ZTIN3mmu14page_allocatorE
  2424: 000000004046c670    23 FUNC    GLOBAL DEFAULT    4 _ZNSt7codecvtIDsc11__mbstate_tED2Ev
  2425: 0000000040667d00    49 OBJECT  WEAK   DEFAULT    9 _ZTSN9__gnu_cxx13stdio_filebufIwSt11char_traitsIwEEE
  2426: 00000000407ffaf8    80 OBJECT  WEAK   DEFAULT   21 _ZTTSt13basic_fstreamIwSt11char_traitsIwEE
  2427: 00000000404b6130     9 FUNC    WEAK   DEFAULT    4 _ZNKSt14basic_ifstreamIcSt11char_traitsIcEE5rdbufEv
  2428: 0000000040669400    58 OBJECT  WEAK   DEFAULT    9 _ZTSSt7num_getIcSt19istreambuf_iteratorIcSt11char_traitsIcEEE
  2429: 00000000407fc088    32 OBJECT  WEAK   DEFAULT   21 _ZTTSt10istrstream
  2430: 000000004047d350   118 FUNC    WEAK   DEFAULT    4 _ZNSt15basic_stringbufIwSt11char_traitsIwESaIwEEC1Ev
  2431: 00000000404cc0d0   140 FUNC    WEAK   DEFAULT    4 _ZNKSt11__timepunctIcE21_M_months_abbreviatedEPPKc
  2432: 00000000404f82b0    78 FUNC    WEAK   DEFAULT    4 _ZSt9has_facetISt7collateIwEEbRKSt6locale
  2433: 00000000404a6a90    78 FUNC    WEAK   DEFAULT    4 _ZSt9has_facetINSt7__cxx119money_putIwSt19ostreambuf_iteratorIwSt11char_traitsIwEEEEEbRKSt6locale
  2434: 000000004040ee20   372 FUNC    GLOBAL DEFAULT    4 erfcl
  2435: 0000000040485fb0    41 FUNC    WEAK   DEFAULT    4 _ZNSbIwSt11char_traitsIwESaIwEE7_M_copyEPwPKwm
  2436: 0000000040322fc0   113 FUNC    GLOBAL DEFAULT    4 _ZN11msix_vectorD0Ev
  2437: 0000000040391810    98 FUNC    GLOBAL DEFAULT    4 _ZN5sched13osv_run_statsEv
  2438: 000000004052edc0     8 FUNC    WEAK   DEFAULT    4 _ZNKSt12__shared_ptrINSt10filesystem7__cxx114_DirELN9__gnu_cxx12_Lock_policyE2EE3getEv
  2439: 0000000040509cd0    61 FUNC    WEAK   DEFAULT    4 _ZNSt7__cxx1112basic_stringIwSt11char_traitsIwESaIwEEC2ERKS4_mRKS3_
  2440: 000000004053e4f0    73 FUNC    WEAK   DEFAULT    4 _ZNSt23_Sp_counted_ptr_inplaceINSt10filesystem7__cxx1116filesystem_error5_ImplESaIS3_ELN9__gnu_cxx12_Lock_policyE2EE14_M_get_deleterERKSt9type_info
  2441: 00000000402bb330   116 FUNC    GLOBAL DEFAULT    4 ena_com_admin_destroy
  2442: 00000000404ee030     9 FUNC    WEAK   DEFAULT    4 _ZNKSt15basic_streambufIcSt11char_traitsIcEE5pbaseEv
  2443: 000000004051b3e0   168 FUNC    GLOBAL DEFAULT    4 _ZNKSt10filesystem4path17has_relative_pathEv
  2444: 00000000402785d0   117 FUNC    GLOBAL DEFAULT    4 _Z10rt_missmsgiP11rt_addrinfoii
  2445: 0000000040424390    44 FUNC    GLOBAL DEFAULT    4 fgetpos
  2446: 00000000404677d0   153 FUNC    GLOBAL DEFAULT    4 _ZNSt11logic_errorD1Ev
  2447: 0000000040265600   158 FUNC    GLOBAL DEFAULT    4 bioq_flush
  2448: 0000000040548220   520 FUNC    WEAK   DEFAULT    4 _ZNSt6vectorINSt3pmr15__pool_resource9_BigBlockENS0_21polymorphic_allocatorIS2_EEE17_M_realloc_insertIIRmS7_EEEvN9__gnu_cxx17__normal_iteratorIPS2_S5_EEDpOT_
  2449: 0000000040369730    23 FUNC    GLOBAL DEFAULT    4 lockfree_mutex_owned
  2450: 00000000402b7de0    61 FUNC    GLOBAL DEFAULT    4 _ZN13indirect_page11set_segmentEijhh
  2451: 000000004054e010   147 FUNC    WEAK   DEFAULT    4 _ZNKRSt7__cxx1115basic_stringbufIwSt11char_traitsIwESaIwEE3strEv
  2452: 00000000404ccaa0   188 FUNC    WEAK   DEFAULT    4 _ZNSt14collate_bynameIcEC2ERKSsm
  2453: 00000000402611b0    66 FUNC    GLOBAL DEFAULT    4 sendto
  2454: 00000000406230f0    24 OBJECT  WEAK   DEFAULT    9 _ZTI12special_file
  2455: 0000000040668c68     4 OBJECT  GLOBAL DEFAULT    9 _ZNSt8ios_base11adjustfieldE
  2456: 000000004035a610    81 FUNC    GLOBAL DEFAULT    4 AcpiDisable
  2457: 00000000404a05f0    12 FUNC    WEAK   DEFAULT    4 _ZNKSt7__cxx118numpunctIwE16do_decimal_pointEv
  2458: 0000000040491e40    30 FUNC    WEAK   DEFAULT    4 _ZNSt7__cxx119money_getIcSt19istreambuf_iteratorIcSt11char_traitsIcEEEC1Em
  2459: 000000004066981a     1 OBJECT  GLOBAL DEFAULT    9 _ZNSt12placeholders3_10E
  2460: 0000000040669f10    15 OBJECT  WEAK   DEFAULT    9 _ZTSSt8numpunctIwE
  2461: 00000000402862f0   654 FUNC    GLOBAL DEFAULT    4 in_pcb_lport
  2462: 0000000040240b50   818 FUNC    WEAK   DEFAULT    4 _ZNK5boost6system6detail12std_category10equivalentERKSt10error_codei
  2463: 00000000404af870    10 FUNC    WEAK   DEFAULT    4 _ZNKSt7__cxx118messagesIwE4openERKNS_12basic_stringIcSt11char_traitsIcESaIcEEERKSt6locale
  2464: 00000000404f4280    34 FUNC    WEAK   DEFAULT    4 _ZNKSt10moneypunctIwLb0EE13thousands_sepEv
  2465: 0000000040956a80     1 OBJECT  GLOBAL DEFAULT   52 irq_lock
  2466: 0000000040405180   506 FUNC    GLOBAL DEFAULT    4 timerfd_settime
  2467: 000000004098c8d8     8 OBJECT  UNIQUE DEFAULT   52 _ZNSt10moneypunctIcLb0EE2idE
  2468: 000000004033e710   174 FUNC    WEAK   DEFAULT    4 _Z14unaligned_copyILj7ELj13EEvPvPKvm
  2469: 0000000040387750   226 FUNC    WEAK   DEFAULT    4 _ZN5boost6detail8function15functor_managerINS_6spirit2qi6detail13parser_binderINS4_16lexeme_directiveINS4_8sequenceINS_6fusion4consINS4_12literal_charINS3_13char_encoding8standardELb1ELb0EEENSA_INS4_6kleeneINS4_11alternativeINSA_INS4_9referenceINS4_7symbolsIKcSJ_NS4_3tstISJ_SJ_EENS4_16tst_pass_throughEEEEENSA_INS4_10differenceINS4_10char_classINS3_3tag9char_codeINSR_5char_ENSC_5asciiEEEEESE_EENS9_4nil_EEEEEEEEENSA_ISE_SY_EEEEEEEEEEN4mpl_5bool_ILb1EEEEEE6manageERKNS1_15function_bufferERS1D_NS1_30functor_manager_operation_typeE
  2470: 0000000040506c00    19 FUNC    WEAK   DEFAULT    4 _ZNKSt7__cxx1112basic_stringIwSt11char_traitsIwESaIwEE8_M_limitEmm
  2471: 000000004023ed90   403 FUNC    WEAK   DEFAULT    4 _ZNK5boost4asio5error6detail14netdb_category7messageB5cxx11Ei
  2472: 00000000402e80c0   160 FUNC    GLOBAL DEFAULT    4 _ZN3pci8functionD1Ev
  2473: 0000000040914d08     4 OBJECT  GLOBAL DEFAULT   52 max_hdr
  2474: 0000000040486fd0     9 FUNC    WEAK   DEFAULT    4 _ZNSbIwSt11char_traitsIwESaIwEE18_S_construct_aux_2EmwRKS1_
  2475: 0000000040325940    15 FUNC    WEAK   DEFAULT    4 _Z15do_small_memcpyILm16EEPvS0_PKv
  2476: 000000004098cd58     8 OBJECT  UNIQUE DEFAULT   52 _ZGVNSt8time_putIwSt19ostreambuf_iteratorIwSt11char_traitsIwEEE2idE
  2477: 00000000404536e0    46 FUNC    GLOBAL DEFAULT    4 _ZNKSt7__cxx117collateIwE10_M_compareEPKwS3_
  2478: 00000000404afa70   137 FUNC    WEAK   DEFAULT    4 _ZNSt14codecvt_bynameIwc11__mbstate_tEC2ERKNSt7__cxx1112basic_stringIcSt11char_traitsIcESaIcEEEm
  2479: 00000000403f59d0   139 FUNC    GLOBAL DEFAULT    4 vsnprintf
  2480: 0000000040305c80   406 FUNC    GLOBAL DEFAULT    4 _ZN6virtio2fs8req_doneEv
  2481: 00000000407fae38    16 OBJECT  WEAK   DEFAULT   21 _ZTIDd
  2482: 0000000040450740    17 FUNC    WEAK   DEFAULT    4 _ZNK9__gnu_cxx8__detail13__mini_vectorIPmE13_M_space_leftEv
  2483: 00000000408076e0    24 OBJECT  GLOBAL DEFAULT   22 netfront_driver
  2484: 0000000040549ca0     8 FUNC    WEAK   DEFAULT    4 _ZNKSt7__cxx1115basic_stringbufIwSt11char_traitsIwESaIwEE13get_allocatorEv
  2485: 00000000404aadd0    87 FUNC    WEAK   DEFAULT    4 _ZNSt7__cxx1110moneypunctIwLb1EEC1Em
  2486: 00000000407fade8    16 OBJECT  WEAK   DEFAULT   21 _ZTIDe
  2487: 00000000407fae88    16 OBJECT  WEAK   DEFAULT   21 _ZTIDf
  2488: 0000000040484210    74 FUNC    WEAK   DEFAULT    4 _ZNSs5eraseEmm
  2489: 00000000404bc0a0    67 FUNC    WEAK   DEFAULT    4 _ZNSt14basic_ifstreamIwSt11char_traitsIwEE4openEPKcSt13_Ios_Openmode
  2490: 00000000405f9560    72 OBJECT  WEAK   DEFAULT    9 _ZTVN3mmu3vmaE
  2491: 00000000404f8490    78 FUNC    WEAK   DEFAULT    4 _ZSt9has_facetISt8messagesIwEEbRKSt6locale
  2492: 0000000040484700     9 FUNC    WEAK   DEFAULT    4 _ZNSs6assignESt16initializer_listIcE
  2493: 00000000407fb338    16 OBJECT  WEAK   DEFAULT   21 _ZTIDi
  2494: 000000004047d800   229 FUNC    WEAK   DEFAULT    4 _ZNSt15basic_stringbufIwSt11char_traitsIwESaIwEEaSEOS3_
  2495: 000000004037a0c0   240 FUNC    WEAK   DEFAULT    4 _ZN5boost8lockfree5stackIPN6memory9page_pool10page_batchEJNS0_11fixed_sizedILb1EEEEE7do_pushILb0EEEbRKS5_
  2496: 00000000405477b0    30 FUNC    GLOBAL DEFAULT    4 _ZNSt3pmr26synchronized_pool_resource24_M_thread_specific_poolsEv
  2497: 00000000405e1760    31 OBJECT  WEAK   DEFAULT    9 _ZTSN5boost2io17bad_format_stringE
  2498: 00000000407fad98    16 OBJECT  WEAK   DEFAULT   21 _ZTIDn
  2499: 00000000404573d0   166 FUNC    GLOBAL DEFAULT    4 _ZNSt8ios_base7failureC1ERKSs
  2500: 0000000040261300    90 FUNC    GLOBAL DEFAULT    4 shutdown
  2501: 00000000405e1a90    24 OBJECT  WEAK   DEFAULT    9 _ZTIN5boost4asio5error6detail17addrinfo_categoryE
  2502: 0000000040488130   220 FUNC    WEAK   DEFAULT    4 _ZNSbIwSt11char_traitsIwESaIwEE6appendERKS2_mm
  2503: 00000000404cb300    34 FUNC    WEAK   DEFAULT    4 _ZNKSt10moneypunctIcLb1EE10neg_formatEv
  2504: 00000000403c6860   179 FUNC    WEAK   DEFAULT    4 _ZNSt10_HashtableIlSt4pairIKl18application_statusESaIS3_ENSt8__detail10_Select1stESt8equal_toIlESt4hashIlENS5_18_Mod_range_hashingENS5_20_Default_ranged_hashENS5_20_Prime_rehash_policyENS5_17_Hashtable_traitsILb0ELb0ELb1EEEE5eraseENS5_20_Node_const_iteratorIS3_Lb0ELb0EEE
  2505: 00000000407fb388    16 OBJECT  WEAK   DEFAULT   21 _ZTIDs
  2506: 000000004080ac80    32 OBJECT  GLOBAL DEFAULT   22 AcpiGbl_HighestDstateNames
  2507: 000000004061abec     4 OBJECT  UNIQUE DEFAULT    9 _ZN16signature_helperIJiPK8timespecPS0_EE3sigE
  2508: 0000000040511c00   119 FUNC    GLOBAL DEFAULT    4 _ZNSt10filesystem8absoluteERKNS_4pathE
  2509: 00000000407fb3d8    16 OBJECT  WEAK   DEFAULT   21 _ZTIDu
  2510: 00000000407fbbf8    24 OBJECT  WEAK   DEFAULT   21 _ZTISt18__moneypunct_cacheIwLb1EE
  2511: 00000000404b68d0   398 FUNC    WEAK   DEFAULT    4 _ZNSt13basic_filebufIwSt11char_traitsIwEEC2Ev
  2512: 000000004098c7d8     8 OBJECT  UNIQUE DEFAULT   52 _ZGVNSt7__cxx1110moneypunctIwLb0EE2idE
  2513: 000000004062b5e8   120 OBJECT  WEAK   DEFAULT    9 _ZTVN5boost10wrapexceptINS_4asio2ip16bad_address_castEEE
  2514: 00000000406690b5     1 OBJECT  GLOBAL DEFAULT    9 _ZNSt14numeric_limitsIsE15has_denorm_lossE
  2515: 0000000040352700   553 FUNC    GLOBAL DEFAULT    4 AcpiExWriteDataToField
  2516: 000000004029d610   312 FUNC    WEAK   DEFAULT    4 _ZN3osv13rcu_hashtableI9epoll_ptrSt4hashIS1_EED2Ev
  2517: 0000000040426160    24 FUNC    GLOBAL DEFAULT    4 setbuf
  2518: 000000004049b5f0    27 FUNC    WEAK   DEFAULT    4 _ZNKSt7__cxx118messagesIcE20_M_convert_from_charEPc
  2519: 000000004033c140   340 FUNC    WEAK   DEFAULT    4 _Z14unaligned_copyILj13ELj4EEvPvPKvm
  2520: 0000000040669819     1 OBJECT  GLOBAL DEFAULT    9 _ZNSt12placeholders3_11E
  2521: 00000000402e1900   125 FUNC    WEAK   DEFAULT    4 _ZNSt10_HashtableIPN3elf6objectES2_SaIS2_ENSt8__detail9_IdentityESt8equal_toIS2_ESt4hashIS2_ENS4_18_Mod_range_hashingENS4_20_Default_ranged_hashENS4_20_Prime_rehash_policyENS4_17_Hashtable_traitsILb0ELb1ELb1EEEED1Ev
  2522: 00000000403d3570   192 FUNC    GLOBAL DEFAULT    4 _Z7fdallocP4filePi
  2523: 00000000405fb770    14 OBJECT  WEAK   DEFAULT    9 _ZTSN3pci6deviceE
  2524: 00000000404ceb60    80 FUNC    WEAK   DEFAULT    4 _ZSt9use_facetISt8time_putIcSt19ostreambuf_iteratorIcSt11char_traitsIcEEEERKT_RKSt6locale
  2525: 00000000402aace0    13 FUNC    WEAK   DEFAULT    4 _ZN9arp_cacheD1Ev
  2526: 00000000404a07a0    23 FUNC    WEAK   DEFAULT    4 _ZNSt7__cxx118time_getIwSt19istreambuf_iteratorIwSt11char_traitsIwEEED2Ev
  2527: 0000000040808128     4 OBJECT  GLOBAL DEFAULT   22 _ZN3mmu13nr_page_sizesE
  2528: 00000000402fd4c0    34 FUNC    WEAK   DEFAULT    4 _ZN14dynamic_percpuIN3osv7xmitterIN6virtio3net3txqELj4096ESt8functionIFbvEEN5boost9iterators24function_output_iteratorINS0_15xmitter_functorIS4_EEEEE11worker_infoELm8EE9constructEv
  2529: 0000000040319200    39 FUNC    GLOBAL DEFAULT    4 _Z13parse_cmdlineR19multiboot_info_type
  2530: 0000000040989450     4 OBJECT  GLOBAL DEFAULT   52 __signgam
  2531: 000000004029c400  3652 FUNC    GLOBAL DEFAULT    4 tcp_input
  2532: 0000000040547250   358 FUNC    GLOBAL DEFAULT    4 _ZNSt3pmr15__pool_resource14_M_alloc_poolsEv
  2533: 00000000403262f0    75 FUNC    WEAK   DEFAULT    4 _Z13do_sse_memcpyILj8E14load_unaligned15store_unalignedEvPvPKv
  2534: 00000000405e93d0    14 OBJECT  WEAK   DEFAULT    9 _ZTS11socket_file
  2535: 00000000404c8a30   318 FUNC    WEAK   DEFAULT    4 _ZNSt13basic_istreamIwSt11char_traitsIwEE10_M_extractIyEERS2_RT_
  2536: 000000004024b2f0   221 FUNC    GLOBAL DEFAULT    4 rijndael_makeKey
  2537: 0000000040322da0    59 FUNC    GLOBAL DEFAULT    4 _ZN3pci20read_pci_config_byteEhhhh
  2538: 0000000040530210   111 FUNC    GLOBAL DEFAULT    4 _ZNSt10filesystem7__cxx1128recursive_directory_iterator3popEv
  2539: 00000000403459b0   243 FUNC    GLOBAL DEFAULT    4 AcpiUtCreateInternalObjectDbg
  2540: 000000004049f5b0   323 FUNC    WEAK   DEFAULT    4 _ZNSt13__facet_shims11__money_putIwEESt19ostreambuf_iteratorIT_St11char_traitsIS2_EESt17integral_constantIbLb1EEPKNSt6locale5facetES5_bRSt8ios_baseS2_ePKNS_12__any_stringE
  2541: 00000000404e5d30    43 FUNC    WEAK   DEFAULT    4 _ZNKSt7__cxx1115basic_stringbufIcSt11char_traitsIcESaIcEE12_M_high_markEv
  2542: 00000000402b9c40    85 FUNC    GLOBAL DEFAULT    4 _Z15hyperv_identifyv
  2543: 0000000040406f60     9 FUNC    GLOBAL DEFAULT    4 __iswblank_l
  2544: 000000004061eff8    40 OBJECT  WEAK   DEFAULT    9 _ZTI19callstack_collector
  2545: 00000000407fdcc8    24 OBJECT  WEAK   DEFAULT   21 _ZTISt13__ios_failure
  2546: 000000004066903b     1 OBJECT  GLOBAL DEFAULT    9 _ZNSt14numeric_limitsIiE10is_boundedE
  2547: 000000004030bf90     7 FUNC    GLOBAL DEFAULT    4 AcpiOsInitialize
  2548: 00000000404e8660   377 FUNC    WEAK   DEFAULT    4 _ZNSt7__cxx1118basic_stringstreamIcSt11char_traitsIcESaIcEEC2ESt13_Ios_Openmode
  2549: 000000004049ef40    10 FUNC    WEAK   DEFAULT    4 _ZNSt13__facet_shims16__messages_closeIcEEvSt17integral_constantIbLb1EEPKNSt6locale5facetEi
  2550: 0000000040628001     3 OBJECT  UNIQUE DEFAULT    9 _ZN16signature_helperIJPKcS1_EE3sigE
  2551: 000000004030de60    10 FUNC    WEAK   DEFAULT    4 _ZNK5boost7numeric16bad_numeric_cast4whatEv
  2552: 000000004042d0d0    13 FUNC    GLOBAL DEFAULT    4 mkstemp
  2553: 00000000403c7a80   413 FUNC    WEAK   DEFAULT    4 _ZNSt6vectorI10osv_threadSaIS0_EE17_M_realloc_insertIJRKS0_EEEvN9__gnu_cxx17__normal_iteratorIPS0_S2_EEDpOT_
  2554: 0000000040475610    10 FUNC    WEAK   DEFAULT    4 _ZNSt13__facet_shims20__time_get_dateorderIwEENSt9time_base9dateorderESt17integral_constantIbLb0EEPKNSt6locale5facetE
  2555: 00000000404ca990    87 FUNC    WEAK   DEFAULT    4 _ZNSt10moneypunctIcLb0EEC2Em
  2556: 000000004046d5f0   352 FUNC    GLOBAL DEFAULT    4 _ZNKSt25__codecvt_utf8_utf16_baseIDiE6do_outER11__mbstate_tPKDiS4_RS4_PcS6_RS6_
  2557: 000000004032fc40   587 FUNC    WEAK   DEFAULT    4 _Z13do_sse_memcpyILj40E14load_unaligned15store_unalignedEvPvPKv
  2558: 0000000040607048    11 OBJECT  WEAK   DEFAULT    9 _ZTS9interrupt
  2559: 00000000407fb620    72 OBJECT  WEAK   DEFAULT   21 _ZTVN10__cxxabiv119__pointer_type_infoE
  2560: 0000000040468d90   143 FUNC    GLOBAL DEFAULT    4 _ZNSt10istrstreamC2EPc
  2561: 000000004098c878     8 OBJECT  UNIQUE DEFAULT   52 _ZGVNSt10moneypunctIcLb0EE2idE
  2562: 000000004042eea0   798 FUNC    WEAK   DEFAULT    4 wcsftime_l
  2563: 000000004030c410   111 FUNC    GLOBAL DEFAULT    4 AcpiOsSleep
  2564: 0000000040464c70   221 FUNC    GLOBAL DEFAULT    4 _ZN9__gnu_cxx6__poolILb1EE16_M_get_thread_idEv
  2565: 000000004047af70   255 FUNC    WEAK   DEFAULT    4 _ZNSt19basic_ostringstreamIcSt11char_traitsIcESaIcEEC2ESt13_Ios_Openmode
  2566: 00000000403875a0   121 FUNC    WEAK   DEFAULT    4 _ZN5boost6detail8function21function_obj_invoker4INS_6spirit2qi6detail13parser_binderINS4_17no_skip_directiveINS4_4plusINS4_11alternativeINS_6fusion4consINS4_9referenceINS4_7symbolsIKcSE_NS4_3tstISE_SE_EENS4_16tst_pass_throughEEEEENSB_INS4_10differenceINSK_INSK_INSK_INS4_10char_classINS3_3tag9char_codeINSM_5char_ENS3_13char_encoding5asciiEEEEENS4_12literal_charINSP_8standardELb1ELb0EEEEESV_EESV_EESV_EENSA_4nil_EEEEEEEEEEEN4mpl_5bool_ILb1EEEEEbRN9__gnu_cxx17__normal_iteratorIPSE_NSt7__cxx1112basic_stringIcSt11char_traitsIcESaIcEEEEERKS1J_RNS3_7contextINSB_IRS1I_S10_EENSA_6vectorIJEEEEERKNSL_INSN_INSM_5spaceESQ_EEEEE6invokeERNS1_15function_bufferES1K_S1M_S1T_S1Y_
  2567: 000000004032d040   783 FUNC    WEAK   DEFAULT    4 _Z13do_sse_memcpyILj52E12load_aligned13store_alignedEvPvPKv
  2568: 0000000040508b70    41 FUNC    WEAK   DEFAULT    4 _ZNSt7__cxx1112basic_stringIwSt11char_traitsIwESaIwEEpLESt16initializer_listIwE
  2569: 00000000403f1dd0   134 FUNC    GLOBAL DEFAULT    4 __asprintf_chk
  2570: 00000000404bdf38    88 FUNC    GLOBAL DEFAULT    4 _ZSt19__throw_logic_errorPKc
  2571: 00000000403e0750    89 FUNC    WEAK   DEFAULT    4 _ZNSt10unique_ptrIvSt8functionIFvPvEEED2Ev
  2572: 0000000040468680    97 FUNC    GLOBAL DEFAULT    4 _ZNSt10ostrstreamD1Ev
  2573: 00000000404c90c0    13 FUNC    WEAK   DEFAULT    4 _ZNKSt10moneypunctIcLb0EE16do_decimal_pointEv
  2574: 00000000407fbdd8    24 OBJECT  WEAK   DEFAULT   21 _ZTISt15underflow_error
  2575: 0000000040665f20    77 OBJECT  WEAK   DEFAULT    9 _ZTSNSt7__cxx1115time_get_bynameIcSt19istreambuf_iteratorIcSt11char_traitsIcEEEE
  2576: 00000000404ecf10   181 FUNC    WEAK   DEFAULT    4 _ZNSt7__cxx1118basic_stringstreamIwSt11char_traitsIwESaIwEED2Ev
  2577: 00000000402c4c80    50 FUNC    GLOBAL DEFAULT    4 _ZN3mmu5clampERmS0_mmm
  2578: 00000000404f41f0    83 FUNC    WEAK   DEFAULT    4 _ZNSt10moneypunctIwLb0EEC1EP15__locale_structPKcm
  2579: 00000000404563a0     5 FUNC    WEAK   DEFAULT    4 _ZN9__gnu_cxx19__function_requiresINS_26_LessThanComparableConceptIjEEEEvv
  2580: 00000000404f4250    34 FUNC    WEAK   DEFAULT    4 _ZNKSt10moneypunctIwLb0EE13decimal_pointEv
  2581: 000000004044da00    10 FUNC    GLOBAL DEFAULT    4 _ZNK10__cxxabiv120__function_type_info15__is_function_pEv
  2582: 0000000040669818     1 OBJECT  GLOBAL DEFAULT    9 _ZNSt12placeholders3_12E
  2583: 000000004034b670    97 FUNC    GLOBAL DEFAULT    4 AcpiEnterSleepState
  2584: 0000000040481de0   153 FUNC    GLOBAL DEFAULT    4 _ZGTtNSt11logic_errorC2ERKNSt7__cxx1112basic_stringIcSt11char_traitsIcESaIcEEE
  2585: 000000004049bc70    78 FUNC    WEAK   DEFAULT    4 _ZSt9has_facetINSt7__cxx118numpunctIcEEEbRKSt6locale
  2586: 0000000040507db0    53 FUNC    WEAK   DEFAULT    4 _ZNSt7__cxx1112basic_stringIwSt11char_traitsIwESaIwEE6insertEN9__gnu_cxx17__normal_iteratorIPKwS4_EEmw
  2587: 0000000040629dc0    57 OBJECT  WEAK   DEFAULT    9 _ZTSPFNSt7__cxx1112basic_stringIcSt11char_traitsIcESaIcEEEvE
  2588: 00000000404ee2d0   113 FUNC    WEAK   DEFAULT    4 _ZNSt15basic_streambufIwSt11char_traitsIwEE8pubimbueERKSt6locale
  2589: 00000000403dad90    32 FUNC    GLOBAL DEFAULT    4 _Z10ramfs_openP4file
  2590: 000000004051c850    25 FUNC    WEAK   DEFAULT    4 _ZNKSt12__shared_ptrIKNSt10filesystem16filesystem_error5_ImplELN9__gnu_cxx12_Lock_policyE2EE6uniqueEv
  2591: 00000000405fb8e0    24 OBJECT  WEAK   DEFAULT    9 _ZTIN3pci8functionE
  2592: 000000004080a920    48 OBJECT  GLOBAL DEFAULT   22 AcpiGbl_ExceptionNames_Tbl
  2593: 0000000040314570   410 FUNC    GLOBAL DEFAULT    4 _ZN3vmw6pvscsi8req_doneEv
  2594: 0000000040268750     9 FUNC    GLOBAL DEFAULT    4 sx_xlock
  2595: 00000000402d3710    73 FUNC    GLOBAL DEFAULT    4 _ZN7console19console_multiplexer13drivers_writeEPKcm
  2596: 0000000040914d00     4 OBJECT  GLOBAL DEFAULT   52 MSFail
  2597: 0000000040549cb0    73 FUNC    WEAK   DEFAULT    4 _ZNKSt7__cxx1115basic_stringbufIwSt11char_traitsIwESaIwEE4viewEv
  2598: 000000004033fbb0    58 FUNC    GLOBAL DEFAULT    4 _ZN9processor11apic_driver15software_enableEv
  2599: 000000004045bfe0  4262 FUNC    GLOBAL DEFAULT    4 _ZNSt6locale5_ImplC1Em
  2600: 000000004061fb5c     3 OBJECT  UNIQUE DEFAULT    9 _ZN16signature_helperIJP11worker_itemjEE3sigE
  2601: 00000000405fdd40    36 OBJECT  WEAK   DEFAULT    9 _ZTSN6virtio24virtio_legacy_pci_deviceE
  2602: 00000000403a3600  1706 FUNC    WEAK   DEFAULT    4 _ZNSt8__detail9_ExecutorIN9__gnu_cxx17__normal_iteratorIPKcNSt7__cxx1112basic_stringIcSt11char_traitsIcESaIcEEEEESaINS5_9sub_matchISB_EEENS5_12regex_traitsIcEELb1EE6_M_dfsENSH_11_Match_modeEl
  2603: 000000004045d0d0    57 FUNC    GLOBAL DEFAULT    4 _ZNSt6locale13_S_initializeEv
  2604: 00000000403798a0    68 FUNC    WEAK   DEFAULT    4 _ZN5boost10wrapexceptISt13runtime_errorED2Ev
  2605: 00000000403bd520   539 FUNC    GLOBAL DEFAULT    4 _ZN5async10timer_taskD2Ev
  2606: 00000000405093d0    16 FUNC    WEAK   DEFAULT    4 _ZNKSt7__cxx1112basic_stringIwSt11char_traitsIwESaIwEE16find_last_not_ofERKS4_m
  2607: 000000004037a550   387 FUNC    WEAK   DEFAULT    4 _ZN6memory20page_range_allocator6removeERNS_10page_rangeE
  2608: 0000000040950938     8 OBJECT  GLOBAL DEFAULT   52 arc_buf_get_hashkey_fun
  2609: 00000000404c92a0    23 FUNC    WEAK   DEFAULT    4 _ZNSt17__timepunct_cacheIcED2Ev
  2610: 00000000405092e0    16 FUNC    WEAK   DEFAULT    4 _ZNKSt7__cxx1112basic_stringIwSt11char_traitsIwESaIwEE17find_first_not_ofERKS4_m
  2611: 00000000405215b0   537 FUNC    GLOBAL DEFAULT    4 _ZNSt10filesystem16filesystem_errorC2ERKSsSt10error_code
  2612: 000000004033aec0   144 FUNC    WEAK   DEFAULT    4 _Z14unaligned_copyILj6ELj6EEvPvPKvm
  2613: 00000000402f2f50    10 FUNC    WEAK   DEFAULT    4 _ZN6virtio17virtio_pci_device19get_vring_alignmentEv
  2614: 00000000407ff3a0    24 OBJECT  WEAK   DEFAULT   21 _ZTISt13basic_filebufIwSt11char_traitsIwEE
  2615: 0000000040613288     8 OBJECT  GLOBAL DEFAULT    9 _ZN6memory4pool15max_object_sizeE
  2616: 0000000040915860     8 OBJECT  GLOBAL DEFAULT   52 _ZN10synch_port9_instanceE
  2617: 000000004025e5b0     7 FUNC    GLOBAL DEFAULT    4 pru_sense_null
  2618: 0000000040669230     4 OBJECT  GLOBAL DEFAULT    9 _ZNSt21__numeric_limits_base14min_exponent10E
  2619: 0000000040254a40   237 FUNC    GLOBAL DEFAULT    4 m_tag_copy_chain
  2620: 0000000040483cd0   193 FUNC    WEAK   DEFAULT    4 _ZNSs5clearEv
  2621: 0000000040266130   768 FUNC    GLOBAL DEFAULT    4 osv_route_arp_add
  2622: 0000000040395710     8 FUNC    GLOBAL DEFAULT    4 _Z9mmio_setqPVvm
  2623: 00000000404cb430   250 FUNC    WEAK   DEFAULT    4 _ZNSt17moneypunct_bynameIcLb0EEC1ERKSsm
  2624: 0000000040807440     8 OBJECT  GLOBAL DEFAULT   22 rip_recvspace
  2625: 000000004080b4b8     4 OBJECT  GLOBAL DEFAULT   22 opterr
  2626: 000000004030d810   130 FUNC    WEAK   DEFAULT    4 _ZN16hpet_32bit_clock6uptimeEv
  2627: 00000000402684f0   153 FUNC    GLOBAL DEFAULT    4 uma_zdestroy
  2628: 0000000040319300    48 FUNC    GLOBAL DEFAULT    4 _Z14truncate_below7e820entm
  2629: 0000000040668ed0     1 OBJECT  GLOBAL DEFAULT    9 _ZNSt14numeric_limitsInE15tinyness_beforeE
  2630: 0000000040506d20    57 FUNC    WEAK   DEFAULT    4 _ZNSt7__cxx1112basic_stringIwSt11char_traitsIwESaIwEE13_S_copy_charsEPwN9__gnu_cxx17__normal_iteratorIPKwS4_EESA_
  2631: 000000004031a760    56 FUNC    GLOBAL DEFAULT    4 _Z10ap_bringupPN5sched3cpuE
  2632: 00000000403df980    25 FUNC    WEAK   DEFAULT    4 _ZNSt23_Sp_counted_ptr_inplaceIN8virtiofs11dax_managerINS0_15dax_window_implEEESaIS3_ELN9__gnu_cxx12_Lock_policyE2EE10_M_disposeEv
  2633: 00000000403dcd40   109 FUNC    GLOBAL DEFAULT    4 device_close
  2634: 00000000402dc440  1064 FUNC    GLOBAL DEFAULT    4 _ZN3elf6object24collect_dependencies_bfsEv
  2635: 00000000403d8430   435 FUNC    GLOBAL DEFAULT    4 sys_symlink
  2636: 00000000403ec550  1413 FUNC    GLOBAL DEFAULT    4 realpath
  2637: 000000004042f3d0    13 FUNC    GLOBAL DEFAULT    4 setpgrp
  2638: 0000000040406f50     9 FUNC    GLOBAL DEFAULT    4 iswblank
  2639: 00000000408d90a8     8 OBJECT  GLOBAL DEFAULT   48 _ZN16hpet_32bit_clock20_upper_32bit_counterE
  2640: 0000000040669817     1 OBJECT  GLOBAL DEFAULT    9 _ZNSt12placeholders3_13E
  2641: 00000000402f8c50   119 FUNC    GLOBAL DEFAULT    4 _ZNK4nvme10queue_pair26completion_queue_not_emptyEv
  2642: 0000000040481820    29 FUNC    GLOBAL DEFAULT    4 _ZNSt15underflow_errorC1EPKc
  2643: 00000000408015e0   128 OBJECT  WEAK   DEFAULT   21 _ZTVSt15basic_streambufIwSt11char_traitsIwEE
  2644: 000000004036afd0   106 FUNC    GLOBAL DEFAULT    4 _ZN6loggerD0Ev
  2645: 0000000040338f80   253 FUNC    WEAK   DEFAULT    4 _Z14unaligned_copyILj10ELj14EEvPvPKvm
  2646: 0000000040487e80    16 FUNC    WEAK   DEFAULT    4 _ZNSbIwSt11char_traitsIwESaIwEE6insertEmRKS2_
  2647: 0000000040509eb0    14 FUNC    WEAK   DEFAULT    4 _ZN9__gnu_cxxeqIPwNSt7__cxx1112basic_stringIwSt11char_traitsIwESaIwEEEEEbRKNS_17__normal_iteratorIT_T0_EESD_
  2648: 00000000402e13a0     5 FUNC    WEAK   DEFAULT    4 _ZNSt23_Sp_counted_ptr_inplaceIN3elf12memory_imageESaIS1_ELN9__gnu_cxx12_Lock_policyE2EED2Ev
  2649: 00000000403e5850    20 FUNC    WEAK   DEFAULT    4 _ZNSt23_Sp_counted_ptr_inplaceIN8pseudofs15pseudo_dir_nodeESaIS1_ELN9__gnu_cxx12_Lock_policyE2EE10_M_disposeEv
  2650: 0000000040482cf0    38 FUNC    WEAK   DEFAULT    4 _ZNSs13_S_copy_charsEPcN9__gnu_cxx17__normal_iteratorIS_SsEES2_
  2651: 00000000404522f0   177 FUNC    GLOBAL DEFAULT    4 _ZSt14__convert_to_vIfEvPKcRT_RSt12_Ios_IostateRKP15__locale_struct
  2652: 00000000407fc720    88 OBJECT  WEAK   DEFAULT   21 _ZTVSt7codecvtIDsc11__mbstate_tE
  2653: 0000000040303ca0    16 FUNC    GLOBAL DEFAULT    4 _ZThn544_N6virtio3rng16get_random_bytesEPcm
  2654: 00000000402c2c70     9 FUNC    GLOBAL DEFAULT    4 randomdev_hash_init
  2655: 0000000040984808     8 OBJECT  GLOBAL DEFAULT   52 rofs_block_allocated
  2656: 0000000040628080    35 OBJECT  WEAK   DEFAULT    9 _ZTSN3osv19rcu_dispose_deleterI4fileEE
  2657: 00000000402b9320   778 FUNC    GLOBAL DEFAULT    4 _ZN29blkfront_indirect_descriptorsC1ERP6devicej
  2658: 0000000040668de4     1 OBJECT  GLOBAL DEFAULT    9 _ZNSt14numeric_limitsIeE9is_iec559E
  2659: 000000004036a410   850 FUNC    GLOBAL DEFAULT    4 _ZN7condvar4waitEPN8lockfree5mutexEPN5sched5timerE
  2660: 00000000402d60e0    12 FUNC    GLOBAL DEFAULT    4 _ZNK3elf6object3endEv
  2661: 00000000409410ae     2 OBJECT  GLOBAL DEFAULT   52 AcpiGbl_Pm1EnableRegisterSave
  2662: 0000000040669240     4 OBJECT  GLOBAL DEFAULT    9 _ZNSt21__numeric_limits_base12max_digits10E
  2663: 00000000403483b0    61 FUNC    GLOBAL DEFAULT    4 AcpiUtDeleteRwLock
  2664: 000000004061b750    16 OBJECT  UNIQUE DEFAULT    9 _ZZN5boost9function4IbRN9__gnu_cxx17__normal_iteratorIPKcNSt7__cxx1112basic_stringIcSt11char_traitsIcESaIcEEEEERKSB_RNS_6spirit7contextINS_6fusion4consIRSt6vectorISJ_ISA_SaISA_EESaISL_EENSH_4nil_EEENSH_6vectorIJEEEEERKNSF_2qi10char_classINSF_3tag9char_codeINSX_5spaceENSF_13char_encoding5asciiEEEEEE9assign_toINSV_6detail13parser_binderINSV_4listINSV_9referenceIKNSV_4ruleISB_FSL_vENS_5proto7exprns_4exprINS1E_6tagns_3tag8terminalENS1E_7argsns_4termIS12_EELl0EEENSF_11unused_typeES1O_EEEENSV_6kleeneIS13_EEEEN4mpl_5bool_ILb1EEEEEEEvT_E13stored_vtable
  2665: 0000000040400cd0    36 FUNC    GLOBAL DEFAULT    4 _ZN11pipe_buffer20read_events_unlockedEv
  2666: 000000004080b380    48 OBJECT  GLOBAL DEFAULT   22 sysfs_vfsops
  2667: 0000000040318460   152 FUNC    WEAK   DEFAULT    4 _ZN8xenfront6xenbusD0Ev
  2668: 00000000405ed220    16 OBJECT  WEAK   DEFAULT    9 _ZTIN3osv19rcu_dispose_deleterINS_13rcu_hashtableIN10classifier4itemENS2_9item_hashEE7elementEEE
  2669: 00000000404f0dc0    73 FUNC    WEAK   DEFAULT    4 _ZNKSt7__cxx1112basic_stringIcSt11char_traitsIcESaIcEE4findEcm
  2670: 000000004027f550   209 FUNC    GLOBAL DEFAULT    4 if_deregister_com_alloc
  2671: 00000000403adb40  1306 FUNC    WEAK   DEFAULT    4 _ZNSt8__detail9_CompilerINSt7__cxx1112regex_traitsIcEEE14_M_disjunctionEv
  2672: 000000004035a360   286 FUNC    GLOBAL DEFAULT    4 AcpiInstallGpeBlock
  2673: 00000000403ba160   145 FUNC    WEAK   DEFAULT    4 _ZNSt8_Rb_treeIN4dhcp17dhcp_message_typeESt4pairIKS1_PKcESt10_Select1stIS6_ESt4lessIS1_ESaIS6_EE24_M_get_insert_unique_posERS3_
  2674: 000000004030e6d0    86 FUNC    WEAK   DEFAULT    4 _ZThn8_N5boost10wrapexceptINS_9gregorian9bad_monthEED0Ev
  2675: 00000000409897f8     8 OBJECT  UNIQUE DEFAULT   52 _ZGVN9__gnu_cxx16bitmap_allocatorIwE15_S_last_requestE
  2676: 0000000040605070    40 OBJECT  WEAK   DEFAULT    9 _ZTVN5boost7numeric16bad_numeric_castE
  2677: 00000000402e15f0   130 FUNC    WEAK   DEFAULT    4 _ZN3osv17invalid_elf_errorC2ENSt7__cxx1112basic_stringIcSt11char_traitsIcESaIcEEE
  2678: 00000000404848b0    12 FUNC    WEAK   DEFAULT    4 _ZNSs6insertEN9__gnu_cxx17__normal_iteratorIPcSsEESt16initializer_listIcE
  2679: 0000000040668fa8     1 OBJECT  GLOBAL DEFAULT    9 _ZNSt14numeric_limitsImE8is_exactE
  2680: 00000000404cc5d0    10 FUNC    WEAK   DEFAULT    4 _ZNKSt8messagesIcE4openERKSsRKSt6locale
  2681: 000000004045fcf0    74 FUNC    WEAK   DEFAULT    4 _ZNSt7__cxx1112basic_stringIcSt11char_traitsIcESaIcEE7replaceEN9__gnu_cxx17__normal_iteratorIPcS4_EES8_S8_S8_
  2682: 000000004034b460    73 FUNC    GLOBAL DEFAULT    4 AcpiHwGetMode
  2683: 0000000040260050   251 FUNC    GLOBAL DEFAULT    4 sys_recvfrom
  2684: 000000004041b480   349 FUNC    GLOBAL DEFAULT    4 tanf
  2685: 000000004053f740    52 FUNC    GLOBAL DEFAULT    4 _ZNKSt10filesystem7__cxx114path15has_parent_pathEv
  2686: 0000000040669816     1 OBJECT  GLOBAL DEFAULT    9 _ZNSt12placeholders3_14E
  2687: 00000000403ce220   320 FUNC    GLOBAL DEFAULT    4 symlink
  2688: 00000000402d4ba0   269 FUNC    WEAK   DEFAULT    4 _ZNSt11_Deque_baseIcSaIcEEC1Ev
  2689: 000000004041b5e0   250 FUNC    GLOBAL DEFAULT    4 tanh
  2690: 00000000403fc0c0   148 FUNC    GLOBAL DEFAULT    4 tcsetattr
  2691: 0000000040379a80    41 FUNC    WEAK   DEFAULT    4 _ZN11worker_itemD2Ev
  2692: 00000000404cc510   190 FUNC    WEAK   DEFAULT    4 _ZNSt8messagesIcEC1EP15__locale_structPKcm
  2693: 00000000403bb930   586 FUNC    GLOBAL DEFAULT    4 _ZN11net_channel10del_pollerER7pollreq
  2694: 000000004051ca70   377 FUNC    WEAK   DEFAULT    4 _ZNKSt10filesystem4path5_List5_Impl4copyEv
  2695: 00000000406681c0  2440 OBJECT  GLOBAL DEFAULT    9 _ZNSt8__detail12__prime_listE
  2696: 00000000402e1510    56 FUNC    WEAK   DEFAULT    4 _ZNSt17_Function_handlerIFvvEN3osv19rcu_dispose_deleterISt6vectorIPN3elf6objectESaIS6_EEEEE10_M_managerERSt9_Any_dataRKSB_St18_Manager_operation
  2697: 0000000040664740    30 OBJECT  WEAK   DEFAULT    9 _ZTSSt18__moneypunct_cacheIcLb0EE
  2698: 000000004030de90    16 FUNC    WEAK   DEFAULT    4 _ZN5boost7numeric17positive_overflowD1Ev
  2699: 000000004042d010   191 FUNC    GLOBAL DEFAULT    4 mkdtemp
  2700: 000000004041b8e0   183 FUNC    GLOBAL DEFAULT    4 tanl
  2701: 00000000403d4830   147 FUNC    GLOBAL DEFAULT    4 bio_init
  2702: 0000000040337bc0   312 FUNC    WEAK   DEFAULT    4 _Z14unaligned_copyILj12ELj15EEvPvPKvm
  2703: 00000000403ffe30    82 FUNC    GLOBAL DEFAULT    4 brk
  2704: 0000000040508f40    48 FUNC    WEAK   DEFAULT    4 _ZNKSt7__cxx1112basic_stringIwSt11char_traitsIwESaIwEE4findEPKwm
  2705: 000000004042da00   126 FUNC    WEAK   DEFAULT    4 localtime_r
  2706: 00000000404c1cf0   161 FUNC    WEAK   DEFAULT    4 _ZNSt14basic_iostreamIwSt11char_traitsIwEEC2Ev
  2707: 0000000040410890    92 FUNC    GLOBAL DEFAULT    4 fminf
  2708: 0000000040941120     8 OBJECT  GLOBAL DEFAULT   52 AcpiGbl_InitHandler
  2709: 0000000040482870   142 FUNC    GLOBAL DEFAULT    4 _ZGTtNSt14overflow_errorC1EPKc
  2710: 0000000040461f60    57 FUNC    WEAK   DEFAULT    4 _ZNSt18__moneypunct_cacheIcLb1EED0Ev
  2711: 0000000040504410  4018 FUNC    WEAK   DEFAULT    4 _ZNKSt9money_getIwSt19istreambuf_iteratorIwSt11char_traitsIwEEE10_M_extractILb1EEES3_S3_S3_RSt8ios_baseRSt12_Ios_IostateRSs
  2712: 0000000040481670    29 FUNC    GLOBAL DEFAULT    4 _ZNSt16invalid_argumentC1EPKc
  2713: 000000004030de70    10 FUNC    WEAK   DEFAULT    4 _ZNK5boost7numeric17positive_overflow4whatEv
  2714: 0000000040359640    49 FUNC    GLOBAL DEFAULT    4 AcpiEvAttachRegion
  2715: 00000000402bb420   107 FUNC    GLOBAL DEFAULT    4 ena_com_mmio_reg_read_request_destroy
  2716: 000000004038f210    45 FUNC    GLOBAL DEFAULT    4 _ZN5sched14thread_runtime14export_runtimeEv
  2717: 000000004044eff0    23 FUNC    GLOBAL DEFAULT    4 _ZN10__cxxabiv121__vmi_class_type_infoD2Ev
  2718: 00000000405e99a0    24 OBJECT  WEAK   DEFAULT    9 _ZTISt17_Weak_result_typeIM14dynamic_percpuI19autoconstructed_ptrIN8uma_zone5cacheEELm8EEFvvEE
  2719: 00000000402dc870   259 FUNC    GLOBAL DEFAULT    4 _ZN3elf6object18lookup_symbol_deepEPKc
  2720: 00000000404cc470    30 FUNC    WEAK   DEFAULT    4 _ZNSt15time_get_bynameIcSt19istreambuf_iteratorIcSt11char_traitsIcEEEC1EPKcm
  2721: 0000000040940000  3112 OBJECT  GLOBAL DEFAULT   52 _ZN3xen15xen_shared_infoE
  2722: 00000000409160a0     8 OBJECT  GLOBAL DEFAULT   52 ef_outputp
  2723: 0000000040319f40    56 FUNC    WEAK   DEFAULT    4 _ZNSt17_Function_handlerIFPN2hw9hw_driverEPNS0_9hw_deviceEEPS5_E10_M_managerERSt9_Any_dataRKS8_St18_Manager_operation
  2724: 00000000404a9420   393 FUNC    WEAK   DEFAULT    4 _ZNKSt7__cxx119money_getIwSt19istreambuf_iteratorIwSt11char_traitsIwEEE6do_getES4_S4_bRSt8ios_baseRSt12_Ios_IostateRNS_12basic_stringIwS3_SaIwEEE
  2725: 0000000040268bb0   152 FUNC    GLOBAL DEFAULT    4 callout_init_rw
  2726: 0000000040506a50    96 FUNC    WEAK   DEFAULT    4 _ZNSt7__cxx1112basic_stringIwSt11char_traitsIwESaIwEE9_M_createERmm
  2727: 00000000404108f0   147 FUNC    GLOBAL DEFAULT    4 fminl
  2728: 0000000040513980  2813 FUNC    GLOBAL DEFAULT    4 _ZNSt10filesystem18create_directoriesERKNS_4pathERSt10error_code
  2729: 00000000402fb710   578 FUNC    GLOBAL DEFAULT    4 _ZN6virtio3net11read_configEv
  2730: 000000004047dcd0   439 FUNC    WEAK   DEFAULT    4 _ZNSt15basic_stringbufIwSt11char_traitsIwESaIwEEC2ERKSbIwS1_S2_ESt13_Ios_Openmode
  2731: 00000000403433c0   106 FUNC    GLOBAL DEFAULT    4 AcpiRsMoveData
  2732: 00000000405e15a0    16 OBJECT  WEAK   DEFAULT    9 _ZTIFvvE
  2733: 0000000040406fb0    54 FUNC    WEAK   DEFAULT    4 iswcntrl_l
  2734: 00000000402d3360    33 FUNC    WEAK   DEFAULT    4 _ZN5boost13intrusive_ptrI4fileED2Ev
  2735: 00000000407fdf68    24 OBJECT  WEAK   DEFAULT   21 _ZTINSt7__cxx119money_getIcSt19istreambuf_iteratorIcSt11char_traitsIcEEEE
  2736: 00000000404cae30    34 FUNC    WEAK   DEFAULT    4 _ZNKSt10moneypunctIcLb0EE10neg_formatEv
  2737: 00000000404af880    54 FUNC    WEAK   DEFAULT    4 _ZNKSt7__cxx118messagesIwE4openERKNS_12basic_stringIcSt11char_traitsIcESaIcEEERKSt6localePKc
  2738: 00000000404858a0    27 FUNC    WEAK   DEFAULT    4 _ZNSsC1IPcEET_S1_RKSaIcE
  2739: 00000000404d0580   186 FUNC    WEAK   DEFAULT    4 _ZSt13__int_to_charIcmEiPT_T0_PKS0_St13_Ios_Fmtflagsb
  2740: 00000000407fba80    72 OBJECT  GLOBAL DEFAULT   21 _ZNSt6locale5_Impl14_S_id_monetaryE
  2741: 0000000040408f60   131 FUNC    WEAK   DEFAULT    4 wcsxfrm_l
  2742: 000000004098ab18     4 OBJECT  GLOBAL DEFAULT   52 _ZNSt6locale2id11_S_refcountE
  2743: 0000000040547fb0    45 FUNC    GLOBAL DEFAULT    4 _ZNSt3pmr28unsynchronized_pool_resourceD1Ev
  2744: 00000000402b9fd0   906 FUNC    GLOBAL DEFAULT    4 ena_com_prepare_tx
  2745: 0000000040801888    24 OBJECT  WEAK   DEFAULT   21 _ZTISt15numpunct_bynameIwE
  2746: 000000004092ce98     4 OBJECT  GLOBAL DEFAULT   52 tcp_insecure_rst
  2747: 00000000402639c0    13 FUNC    GLOBAL DEFAULT    4 sbuf_done
  2748: 00000000403d7a40   149 FUNC    GLOBAL DEFAULT    4 sys_readdir
  2749: 00000000402ace40    47 FUNC    GLOBAL DEFAULT    4 _Z31gnttab_grant_foreign_access_refjtmi
  2750: 000000004051c990     9 FUNC    GLOBAL DEFAULT    4 _ZNKSt10filesystem16filesystem_error5path1Ev
  2751: 00000000403f7800    77 FUNC    GLOBAL DEFAULT    4 __wmemset_chk
  2752: 0000000040800cc0    24 OBJECT  WEAK   DEFAULT   21 _ZTINSt7__cxx1115basic_stringbufIcSt11char_traitsIcESaIcEEE
  2753: 000000004030f840   353 FUNC    GLOBAL DEFAULT    4 _ZN4ahci4port13wait_cmd_pollEh
  2754: 00000000403beb30   876 FUNC    WEAK   DEFAULT    4 _ZN9timer_setIN5async17percpu_timer_taskEXadL_ZNS1_4hookEEEN3osv5clock6uptimeEE6expireENSt6chrono10time_pointIS4_NS6_8durationIlSt5ratioILl1ELl1000000000EEEEEE
  2755: 0000000040608a50    20 OBJECT  GLOBAL DEFAULT    9 AcpiRsConvertExtAddress64
  2756: 0000000040360fe0   121 FUNC    GLOBAL DEFAULT    4 AcpiNsDeleteChildren
  2757: 0000000040522480    12 FUNC    WEAK   DEFAULT    4 _ZNSs12__sv_wrapperC1ESt17basic_string_viewIcSt11char_traitsIcEE
  2758: 000000004098c7e8     8 OBJECT  UNIQUE DEFAULT   52 _ZGVNSt7__cxx119money_getIwSt19istreambuf_iteratorIwSt11char_traitsIwEEE2idE
  2759: 00000000403015e0    73 FUNC    GLOBAL DEFAULT    4 _ZN6virtio4scsiD1Ev
  2760: 0000000040387620   133 FUNC    WEAK   DEFAULT    4 _ZN5boost6detail8function15functor_managerINS_6spirit2qi6detail13parser_binderINS4_4listINS4_9referenceIKNS4_4ruleIN9__gnu_cxx17__normal_iteratorIPKcNSt7__cxx1112basic_stringIcSt11char_traitsIcESaIcEEEEEFSt6vectorISJ_SaISJ_EEvENS_5proto7exprns_4exprINSP_6tagns_3tag8terminalENSP_7argsns_4termINS3_3tag9char_codeINSX_5spaceENS3_13char_encoding5asciiEEEEELl0EEENS3_11unused_typeES15_EEEENS4_6kleeneINS4_10char_classIS12_EEEEEEN4mpl_5bool_ILb1EEEEEE6manageERKNS1_15function_bufferERS1J_NS1_30functor_manager_operation_typeE
  2761: 0000000040669815     1 OBJECT  GLOBAL DEFAULT    9 _ZNSt12placeholders3_15E
  2762: 00000000402e6a40   111 FUNC    GLOBAL DEFAULT    4 _ZN6zfsdev11zfsdev_initEv
  2763: 00000000402cb880    54 FUNC    WEAK   DEFAULT    4 _ZNSt3setIPN3mmu10linear_vmaENS0_18linear_vma_compareESaIS2_EED2Ev
  2764: 00000000405333e0   240 FUNC    GLOBAL DEFAULT    4 _ZNSt10filesystem15last_write_timeERKNS_7__cxx114pathERSt10error_code
  2765: 0000000040325840    14 FUNC    WEAK   DEFAULT    4 _Z15do_small_memcpyILm8EEPvS0_PKv
  2766: 00000000404f2c50    36 FUNC    WEAK   DEFAULT    4 _ZNSt15time_get_bynameIwSt19istreambuf_iteratorIwSt11char_traitsIwEEED0Ev
  2767: 0000000040940f90     4 OBJECT  GLOBAL DEFAULT   52 AcpiGbl_TraceDbgLayer
  2768: 00000000403b7860   122 FUNC    GLOBAL DEFAULT    4 _ZN4dhcp11dhcp_workerC2Ev
  2769: 000000004041c400   105 FUNC    GLOBAL DEFAULT    4 trunc
  2770: 000000004030dc50   524 FUNC    GLOBAL DEFAULT    4 _ZN3rtc12wallclock_nsEv
  2771: 0000000040423d90    11 FUNC    GLOBAL DEFAULT    4 _flushlbf
  2772: 00000000403c1a00    88 FUNC    GLOBAL DEFAULT    4 _ZN3osv20with_all_app_threadsESt8functionIFvRN5sched6threadEEES3_
  2773: 00000000404f5fa0   137 FUNC    WEAK   DEFAULT    4 _ZNSt14codecvt_bynameIwc11__mbstate_tEC1ERKSsm
  2774: 00000000404ee070    17 FUNC    WEAK   DEFAULT    4 _ZNSt15basic_streambufIcSt11char_traitsIcEE4setpEPcS3_
  2775: 00000000405369f0    83 FUNC    GLOBAL DEFAULT    4 _ZNSt10filesystem10remove_allERKNS_7__cxx114pathE
  2776: 0000000040669b40    60 OBJECT  WEAK   DEFAULT    9 _ZTSNSt7__cxx1119basic_istringstreamIwSt11char_traitsIwESaIwEEE
  2777: 0000000040510970   119 FUNC    GLOBAL DEFAULT    4 _ZNSt10filesystem5spaceERKNS_4pathE
  2778: 00000000406042c8    24 OBJECT  WEAK   DEFAULT    9 _ZTISt5_BindIFM14dynamic_percpuIN3osv7xmitterIN3vmw15vmxnet3_txqueueELj4096ESt8functionIFbvEEN5boost9iterators24function_output_iteratorINS1_15xmitter_functorIS4_EEEEE11worker_infoELm8EEFvvEPSG_EE
  2779: 00000000403956e0     8 FUNC    GLOBAL DEFAULT    4 _Z9mmio_setbPVvh
  2780: 00000000404de6d0    23 FUNC    WEAK   DEFAULT    4 _ZStlsIcSt11char_traitsIcEERSt13basic_ostreamIT_T0_ES6_St14_Resetiosflags
  2781: 0000000040466360   105 FUNC    GLOBAL DEFAULT    4 _ZNSt7__cxx118numpunctIwED1Ev
  2782: 00000000404f5f10   137 FUNC    WEAK   DEFAULT    4 _ZNSt14codecvt_bynameIwc11__mbstate_tEC2EPKcm
  2783: 00000000405ffca0    20 OBJECT  WEAK   DEFAULT    9 _ZTSN4nvme10queue_pairE
  2784: 0000000040314720   122 FUNC    GLOBAL DEFAULT    4 _ZN3vmw6pvscsi5probeEPN2hw9hw_deviceE
  2785: 00000000402794f0  1209 FUNC    GLOBAL DEFAULT    4 netisr_register
  2786: 000000004093d940     8 OBJECT  GLOBAL DEFAULT   52 osv_multiboot_info
  2787: 000000004045f3c0    23 FUNC    GLOBAL DEFAULT    4 _ZNKSt8messagesIwE8do_closeEi
  2788: 0000000040394980    14 FUNC    WEAK   DEFAULT    4 _ZN5sched3cpu7currentEv
  2789: 0000000040668e74     4 OBJECT  GLOBAL DEFAULT    9 _ZNSt14numeric_limitsIfE12min_exponentE
  2790: 00000000404c21a0   188 FUNC    WEAK   DEFAULT    4 _ZNSt14basic_iostreamIwSt11char_traitsIwEE4swapERS2_
  2791: 00000000405408c0    20 FUNC    WEAK   DEFAULT    4 _ZNKSt12__shared_ptrIKNSt10filesystem7__cxx1116filesystem_error5_ImplELN9__gnu_cxx12_Lock_policyE2EE9use_countEv
  2792: 00000000407ff8b0    32 OBJECT  WEAK   DEFAULT   21 _ZTTSt14basic_ifstreamIwSt11char_traitsIwEE
  2793: 0000000040295b80  1779 FUNC    GLOBAL DEFAULT    4 _Z17igmp_change_stateP8in_multi
  2794: 0000000040467bd0    29 FUNC    GLOBAL DEFAULT    4 _ZNSt12domain_errorC2ERKSs
  2795: 000000004023d880   148 FUNC    WEAK   DEFAULT    4 _ZTv0_n24_N5boost2io22basic_oaltstringstreamIcSt11char_traitsIcESaIcEED1Ev
  2796: 00000000404cbb20   248 FUNC    WEAK   DEFAULT    4 _ZNSt15numpunct_bynameIcEC2EPKcm
  2797: 00000000402c2df0    41 FUNC    GLOBAL DEFAULT    4 _Z14randomdev_initv
  2798: 0000000040957958     8 OBJECT  UNIQUE DEFAULT   52 _ZGVZNKSt8__detail11_AnyMatcherINSt7__cxx1112regex_traitsIcEELb0ELb1ELb1EEclEcE5__nul
  2799: 00000000408d82f0     8 OBJECT  GLOBAL DEFAULT   28 _ZN10__cxxabiv119__terminate_handlerE
  2800: 000000004066919c     4 OBJECT  GLOBAL DEFAULT    9 _ZNSt14numeric_limitsIcE11round_styleE
  2801: 00000000404b7cf0   364 FUNC    WEAK   DEFAULT    4 _ZNSt14basic_ifstreamIwSt11char_traitsIwEEC1EOS2_
  2802: 00000000402f53e0    66 FUNC    GLOBAL DEFAULT    4 _ZN4nvme6driver22init_controller_configEv
  2803: 000000004033a4d0   193 FUNC    WEAK   DEFAULT    4 _Z14unaligned_copyILj8ELj6EEvPvPKvm
  2804: 00000000404e1a70   500 FUNC    WEAK   DEFAULT    4 _ZNSt13basic_ostreamIwSt11char_traitsIwEE9_M_insertImEERS2_T_
  2805: 000000004035b130   298 FUNC    GLOBAL DEFAULT    4 AcpiEvGpeDetect
  2806: 0000000040299400   538 FUNC    GLOBAL DEFAULT    4 tcp_mss_update
  2807: 0000000040342030    97 FUNC    GLOBAL DEFAULT    4 _Z10arch_prctlim
  2808: 00000000403edeb0    87 FUNC    GLOBAL DEFAULT    4 __mbsrtowcs_chk
  2809: 00000000404b24f0     5 FUNC    WEAK   DEFAULT    4 _ZNK11__gnu_debug16_Error_formatter14_M_format_wordIPKcEEvPciS3_T_
  2810: 000000004040d710    41 FUNC    GLOBAL DEFAULT    4 copysign
  2811: 00000000404eb0e0   365 FUNC    WEAK   DEFAULT    4 _ZNSt7__cxx1119basic_istringstreamIwSt11char_traitsIwESaIwEEC1ESt13_Ios_Openmode
  2812: 00000000404891c0    30 FUNC    WEAK   DEFAULT    4 _ZNSbIwSt11char_traitsIwESaIwEE7replaceEN9__gnu_cxx17__normal_iteratorIPwS2_EES6_S6_S6_
  2813: 00000000402cafc0     5 FUNC    WEAK   DEFAULT    4 _ZN3mmu18map_file_page_readD2Ev
  2814: 000000004032daa0   542 FUNC    WEAK   DEFAULT    4 _Z13do_sse_memcpyILj37E14load_unaligned15store_unalignedEvPvPKv
  2815: 0000000040263fc0   261 FUNC    GLOBAL DEFAULT    4 phashinit
  2816: 00000000409411c1     1 OBJECT  GLOBAL DEFAULT   52 AcpiGbl_GlobalLockPresent
  2817: 00000000404b1090   246 FUNC    GLOBAL DEFAULT    4 _ZN11__gnu_debug19_Safe_sequence_base7_M_swapERS0_
  2818: 000000004033fd20    19 FUNC    GLOBAL DEFAULT    4 _ZN9processor6x2apic14nmi_allbutselfEv
  2819: 00000000404b14e0    42 FUNC    GLOBAL DEFAULT    4 _ZN11__gnu_debug19_Safe_iterator_base16_M_detach_singleEv
  2820: 0000000040669814     1 OBJECT  GLOBAL DEFAULT    9 _ZNSt12placeholders3_16E
  2821: 00000000406690bc     1 OBJECT  GLOBAL DEFAULT    9 _ZNSt14numeric_limitsIsE17has_signaling_NaNE
  2822: 00000000403d12c0   185 FUNC    GLOBAL DEFAULT    4 _Z8vfs_exitv
  2823: 000000004035a270   104 FUNC    GLOBAL DEFAULT    4 AcpiFinishGpe
  2824: 0000000040548760   682 FUNC    GLOBAL DEFAULT    4 _ZNSt3pmr26synchronized_pool_resource11do_allocateEmm
  2825: 00000000405ea1c1     4 OBJECT  UNIQUE DEFAULT    9 _ZN16signature_helperIJPvS0_iEE3sigE
  2826: 000000004042b310   109 FUNC    GLOBAL DEFAULT    4 strcasestr
  2827: 0000000040669520    45 OBJECT  WEAK   DEFAULT    9 _ZTSSt23__codecvt_abstract_baseIcc11__mbstate_tE
  2828: 0000000040375ae0   184 FUNC    GLOBAL DEFAULT    4 _ZN6memory8shrinkerC1ENSt7__cxx1112basic_stringIcSt11char_traitsIcESaIcEEE
  2829: 0000000040424750    92 FUNC    GLOBAL DEFAULT    4 fgetwc
  2830: 00000000404e4070   131 FUNC    WEAK   DEFAULT    4 _ZNSt7__cxx1119basic_ostringstreamIcSt11char_traitsIcESaIcEED0Ev
  2831: 000000004035be40   232 FUNC    GLOBAL DEFAULT    4 AcpiEvMatchGpeMethod
  2832: 00000000406690e4     1 OBJECT  GLOBAL DEFAULT    9 _ZNSt14numeric_limitsIsE14is_specializedE
  2833: 00000000403fa730   138 FUNC    GLOBAL DEFAULT    4 pthread_cond_signal
  2834: 0000000040387f50   519 FUNC    WEAK   DEFAULT    4 _ZN3osv8commandsD1Ev
  2835: 000000004080756c     4 OBJECT  GLOBAL DEFAULT   22 tcp_do_tso
  2836: 00000000404821e0    22 FUNC    GLOBAL DEFAULT    4 _ZGTtNSt16invalid_argumentD0Ev
  2837: 00000000405e1f70    72 OBJECT  WEAK   DEFAULT    9 _ZTIN5boost10wrapexceptINS_2io13too_many_argsEEE
  2838: 00000000404f0d90    48 FUNC    WEAK   DEFAULT    4 _ZNKSt7__cxx1112basic_stringIcSt11char_traitsIcESaIcEE4findEPKcm
  2839: 0000000040297da0   364 FUNC    GLOBAL DEFAULT    4 _Z13udp_ctloutputP6socketP7sockopt
  2840: 0000000040379ab0   221 FUNC    WEAK   DEFAULT    4 _ZN6memory20page_range_allocator8set_bitsERNS_10page_rangeEbb
  2841: 0000000040802300    56 OBJECT  WEAK   DEFAULT   21 _ZTVSt23_Sp_counted_ptr_inplaceINSt10filesystem16filesystem_error5_ImplESaIS2_ELN9__gnu_cxx12_Lock_policyE2EE
  2842: 00000000402f4950     5 FUNC    WEAK   DEFAULT    4 _ZN6virtio11mmio_device5printEv
  2843: 00000000403501d0   128 FUNC    GLOBAL DEFAULT    4 AcpiExOpcode_0A_0T_1R
  2844: 0000000040256370    73 FUNC    GLOBAL DEFAULT    4 soreserve
  2845: 00000000404b3d80   323 FUNC    WEAK   DEFAULT    4 _ZNSt13basic_filebufIcSt11char_traitsIcEE6xsputnEPKcl
  2846: 00000000404f0e10   121 FUNC    WEAK   DEFAULT    4 _ZNKSt7__cxx1112basic_stringIcSt11char_traitsIcESaIcEE5rfindEPKcmm
  2847: 00000000404cb850    83 FUNC    WEAK   DEFAULT    4 _ZNSt8numpunctIcEC2EP15__locale_structm
  2848: 00000000404b2bb0   190 FUNC    WEAK   DEFAULT    4 _ZN9__gnu_cxx13stdio_filebufIcSt11char_traitsIcEEC2EP8_IO_FILESt13_Ios_Openmodem
  2849: 0000000040318c20   134 FUNC    GLOBAL DEFAULT    4 _ZN8xenfront15xenplatform_pci5probeEPN2hw9hw_deviceE
  2850: 00000000403d3bf0   269 FUNC    GLOBAL DEFAULT    4 multiplex_strategy
  2851: 0000000040668ec8     1 OBJECT  GLOBAL DEFAULT    9 _ZNSt14numeric_limitsIoE14is_specializedE
  2852: 00000000402bb400    12 FUNC    GLOBAL DEFAULT    4 ena_com_set_admin_auto_polling_mode
  2853: 00000000403feff0  1233 FUNC    WEAK   DEFAULT    4 _ZN3osv7sprintfIJiPcEEENSt7__cxx1112basic_stringIcSt11char_traitsIcESaIcEEEPKcDpT_
  2854: 00000000404cf0a0   172 FUNC    WEAK   DEFAULT    4 _ZNKSt7num_putIcSt19ostreambuf_iteratorIcSt11char_traitsIcEEE14_M_group_floatEPKcmcS6_PcS7_Ri
  2855: 0000000040429d50   244 FUNC    GLOBAL DEFAULT    4 fcvt
  2856: 00000000404cbd20   105 FUNC    WEAK   DEFAULT    4 _ZNSt11__timepunctIcEC1Em
  2857: 00000000409163c0    40 OBJECT  GLOBAL DEFAULT   52 rtsock_mtx
  2858: 00000000404247b0   233 FUNC    GLOBAL DEFAULT    4 fgetws
  2859: 00000000402f0ed0   117 FUNC    WEAK   DEFAULT    4 _ZN7console10VGAConsoleD0Ev
  2860: 00000000404b2500    28 FUNC    WEAK   DEFAULT    4 _ZN9__gnu_cxx18stdio_sync_filebufIcSt11char_traitsIcEED2Ev
  2861: 0000000040426180    23 FUNC    GLOBAL DEFAULT    4 setbuffer
  2862: 00000000404e00f0   174 FUNC    WEAK   DEFAULT    4 _ZNSt13basic_ostreamIwSt11char_traitsIwEEC1EPSt15basic_streambufIwS1_E
  2863: 00000000403c2550   391 FUNC    GLOBAL DEFAULT    4 _ZN3osv11application22on_termination_requestESt8functionIFvvEE
  2864: 00000000404c9220    23 FUNC    WEAK   DEFAULT    4 _ZNSt7num_getIcSt19istreambuf_iteratorIcSt11char_traitsIcEEED2Ev
  2865: 00000000402812d0   589 FUNC    GLOBAL DEFAULT    4 _Z13pfil_add_hookPFiPvPP4mbufP5ifnetiP5inpcbES_iP9pfil_head
  2866: 0000000040669ce0    17 OBJECT  WEAK   DEFAULT    9 _ZTSSt12system_error
  2867: 00000000403baab0   104 FUNC    GLOBAL DEFAULT    4 _ZN3osv7versionB5cxx11Ev
  2868: 00000000404f58b0   512 FUNC    WEAK   DEFAULT    4 _ZNSt17__timepunct_cacheIwEC1Em
  2869: 000000004046cf20   351 FUNC    GLOBAL DEFAULT    4 _ZNKSt7codecvtIDsDu11__mbstate_tE6do_outERS0_PKDsS4_RS4_PDuS6_RS6_
  2870: 000000004038c4d0    22 FUNC    GLOBAL DEFAULT    4 _ZN5sched14set_fsbase_msrEm
  2871: 0000000040467a50    23 FUNC    GLOBAL DEFAULT    4 _ZNSt11range_errorD2Ev
  2872: 000000004049b870    64 FUNC    WEAK   DEFAULT    4 _ZNKSt7__cxx117collateIcE9transformEPKcS3_
  2873: 00000000407ff0f8    24 OBJECT  WEAK   DEFAULT   21 _ZTIN9__gnu_cxx18stdio_sync_filebufIwSt11char_traitsIwEEE
  2874: 0000000040503a70   495 FUNC    WEAK   DEFAULT    4 _ZNKSt8time_getIwSt19istreambuf_iteratorIwSt11char_traitsIwEEE3getES3_S3_RSt8ios_baseRSt12_Ios_IostateP2tmcc
  2875: 00000000402c54f0    48 FUNC    GLOBAL DEFAULT    4 _ZN3mmu3vmaD2Ev
  2876: 00000000403d6dc0    23 FUNC    GLOBAL DEFAULT    4 vnode_init
  2877: 00000000404edba0    24 FUNC    WEAK   DEFAULT    4 _ZNKSt15basic_streambufIcSt11char_traitsIcEE6getlocEv
  2878: 00000000405e2448    72 OBJECT  WEAK   DEFAULT    9 _ZTVN5boost4asio5error6detail17addrinfo_categoryE
  2879: 00000000404c8250   318 FUNC    WEAK   DEFAULT    4 _ZNSt13basic_istreamIwSt11char_traitsIwEE10_M_extractItEERS2_RT_
  2880: 00000000405f0300    43 OBJECT  WEAK   DEFAULT    9 _ZTSN3osv19rcu_dispose_deleterI11net_channelEE
  2881: 00000000402bb490    93 FUNC    GLOBAL DEFAULT    4 ena_com_mmio_reg_read_request_write_dev_addr
  2882: 0000000040669813     1 OBJECT  GLOBAL DEFAULT    9 _ZNSt12placeholders3_17E
  2883: 00000000403592a0   255 FUNC    GLOBAL DEFAULT    4 AcpiEvInitializeGpeBlock
  2884: 00000000404d8410  1259 FUNC    WEAK   DEFAULT    4 _ZNKSt8time_getIcSt19istreambuf_iteratorIcSt11char_traitsIcEEE24_M_extract_wday_or_monthES3_S3_RiPPKcmRSt8ios_baseRSt12_Ios_Iostate
  2885: 0000000040604ff8    40 OBJECT  WEAK   DEFAULT    9 _ZTVN5boost9gregorian16bad_day_of_monthE
  2886: 000000004046ce70   169 FUNC    GLOBAL DEFAULT    4 _ZNKSt7codecvtIDsDu11__mbstate_tE9do_lengthERS0_PKDuS4_m
  2887: 000000004047a480   217 FUNC    WEAK   DEFAULT    4 _ZNSt19basic_istringstreamIcSt11char_traitsIcESaIcEED2Ev
  2888: 00000000403a4280    70 FUNC    WEAK   DEFAULT    4 _ZNSt4pairINSt7__cxx1112basic_stringIcSt11char_traitsIcESaIcEEES5_ED2Ev
  2889: 0000000040668e6c     4 OBJECT  GLOBAL DEFAULT    9 _ZNSt14numeric_limitsIfE12max_exponentE
  2890: 0000000040477350   233 FUNC    WEAK   DEFAULT    4 _ZTv0_n24_NSt19basic_ostringstreamIwSt11char_traitsIwESaIwEED0Ev
  2891: 0000000040984ff0     4 OBJECT  GLOBAL DEFAULT   52 __optreset
  2892: 00000000403d46e0   142 FUNC    GLOBAL DEFAULT    4 binval
  2893: 00000000405e17a0    27 OBJECT  WEAK   DEFAULT    9 _ZTSN5boost2io13too_many_argsE
  2894: 00000000403c9e60   384 FUNC    WEAK   DEFAULT    4 _ZNSt8_Rb_treeINSt7__cxx1112basic_stringIcSt11char_traitsIcESaIcEEESt4pairIKS5_St6vectorIS5_SaIS5_EEESt10_Select1stISB_ESt4lessIS5_ESaISB_EE24_M_get_insert_unique_posERS7_
  2895: 00000000404b82b0   314 FUNC    WEAK   DEFAULT    4 _ZNSt13basic_fstreamIwSt11char_traitsIwEEC2EOS2_
  2896: 0000000040604428   120 OBJECT  WEAK   DEFAULT    9 _ZTVN5boost10wrapexceptINS_2io12too_few_argsEEE
  2897: 00000000404856a0   161 FUNC    WEAK   DEFAULT    4 _ZNSs12_S_constructIPcEES0_T_S1_RKSaIcESt20forward_iterator_tag
  2898: 0000000040802160    56 OBJECT  WEAK   DEFAULT   21 _ZTVSt15messages_bynameIwE
  2899: 000000004030d120    51 FUNC    WEAK   DEFAULT    4 _ZN9semaphoreD1Ev
  2900: 00000000402e6e00    47 FUNC    GLOBAL DEFAULT    4 _ZN2hw14device_managerC1Ev
  2901: 00000000405e99c0    84 OBJECT  WEAK   DEFAULT    9 _ZTSSt5_BindIFM14dynamic_percpuI19autoconstructed_ptrIN8uma_zone5cacheEELm8EEFvvEPS5_EE
  2902: 00000000403e5880    20 FUNC    WEAK   DEFAULT    4 _ZNSt23_Sp_counted_ptr_inplaceIN8pseudofs16pseudo_file_nodeESaIS1_ELN9__gnu_cxx12_Lock_policyE2EE10_M_disposeEv
  2903: 0000000040488c60   134 FUNC    WEAK   DEFAULT    4 _ZNSbIwSt11char_traitsIwESaIwEEC1ERKS2_mm
  2904: 000000004066921d     1 OBJECT  GLOBAL DEFAULT    9 _ZNSt21__numeric_limits_base15has_denorm_lossE
  2905: 00000000406059a8   128 OBJECT  WEAK   DEFAULT    9 _ZTVN3vmw6pvscsiE
  2906: 0000000040379440    25 FUNC    WEAK   DEFAULT    4 _ZNSt6vectorIN6memory5stats10pool_statsESaIS2_EED1Ev
  2907: 000000004041780c    38 FUNC    GLOBAL DEFAULT    4 lround
  2908: 000000004027ac10    16 FUNC    GLOBAL DEFAULT    4 _Z18vnet_if_clone_initv
  2909: 0000000040335780    80 FUNC    WEAK   DEFAULT    4 _Z14unaligned_copyILj2ELj8EEvPvPKvm
  2910: 000000004038c070  1105 FUNC    WEAK   DEFAULT    4 _ZN5boost6detail8function21function_obj_invoker4INS_6spirit2qi6detail13parser_binderINS4_8sequenceINS_6fusion4consINS4_4listINS4_11alternativeINS9_INS4_9referenceIKNS4_4ruleIN9__gnu_cxx17__normal_iteratorIPKcNSt7__cxx1112basic_stringIcSt11char_traitsIcESaIcEEEEEFSN_vENS_5proto7exprns_4exprINSQ_6tagns_3tag8terminalENSQ_7argsns_4termINS3_3tag9char_codeINSY_5spaceENS3_13char_encoding5asciiEEEEELl0EEENS3_11unused_typeES16_EEEENS9_IS19_NS8_4nil_EEEEEEENS4_6kleeneINS4_10char_classIS13_EEEEEENS9_INSB_INS9_INS4_12literal_charIS12_Lb0ELb0EEENS9_INS4_14literal_stringIRA3_SG_Lb0EEENS9_IS1K_NS9_IS1K_NS9_INS4_10eoi_parserES1A_EEEEEEEEEEEES1A_EEEEEEN4mpl_5bool_ILb1EEEEEbRSO_RKSO_RNS3_7contextINS9_IRSt6vectorISN_SaISN_EES1A_EENS8_6vectorIJEEEEERKS1G_E6invokeERNS1_15function_bufferES23_S25_S2F_S2H_
  2911: 0000000040669620    60 OBJECT  WEAK   DEFAULT    9 _ZTSSt9money_putIcSt19ostreambuf_iteratorIcSt11char_traitsIcEEE
  2912: 0000000040668e59     1 OBJECT  GLOBAL DEFAULT    9 _ZNSt14numeric_limitsIfE5trapsE
  2913: 00000000405fd4a0    16 OBJECT  WEAK   DEFAULT    9 _ZTIN2hw9hw_driverE
  2914: 0000000040496fe0    30 FUNC    WEAK   DEFAULT    4 _ZNSt15time_put_bynameIcSt19ostreambuf_iteratorIcSt11char_traitsIcEEEC1ERKNSt7__cxx1112basic_stringIcS2_SaIcEEEm
  2915: 00000000402f4250    90 FUNC    GLOBAL DEFAULT    4 _ZN6virtio11mmio_device22get_available_featuresEv
  2916: 00000000404f42b0   137 FUNC    WEAK   DEFAULT    4 _ZNKSt10moneypunctIwLb0EE8groupingEv
  2917: 00000000404cebb0    80 FUNC    WEAK   DEFAULT    4 _ZSt9use_facetISt8time_getIcSt19istreambuf_iteratorIcSt11char_traitsIcEEEERKT_RKSt6locale
  2918: 0000000040916340   112 OBJECT  GLOBAL DEFAULT   52 routedomain
  2919: 00000000404961d0    34 FUNC    WEAK   DEFAULT    4 _ZNKSt7__cxx1110moneypunctIcLb0EE11frac_digitsEv
  2920: 000000004028bba0   156 FUNC    GLOBAL DEFAULT    4 _Z11in_initheadPPvi
  2921: 00000000403b31b0   171 FUNC    GLOBAL DEFAULT    4 _Z10epoll_wakeRK9epoll_ptr
  2922: 000000004061e980    16 OBJECT  WEAK   DEFAULT    9 _ZTISt24_Weak_result_type_memfunIM14dynamic_percpuImLm8EEFvvELb1EE
  2923: 0000000040669823     1 OBJECT  GLOBAL DEFAULT    9 _ZNSt12placeholders2_1E
  2924: 000000004036b040   257 FUNC    GLOBAL DEFAULT    4 _ZN6logger7get_tagEPKc
  2925: 0000000040468c10   162 FUNC    GLOBAL DEFAULT    4 _ZNSt12strstreambufC1EPalS0_
  2926: 000000004044dd70    41 FUNC    GLOBAL DEFAULT    4 _ZNSt16nested_exceptionD2Ev
  2927: 00000000405fb118    56 OBJECT  WEAK   DEFAULT    9 _ZTVN3elf4fileE
  2928: 00000000403716c0  2006 FUNC    WEAK   DEFAULT    4 _ZN9pagecache14access_scanner3runEv
  2929: 00000000402e3850   424 FUNC    WEAK   DEFAULT    4 _ZNSt6vectorINSt7__cxx1112basic_stringIcSt11char_traitsIcESaIcEEESaIS5_EEC2ERKS7_
  2930: 000000004025e610    51 FUNC    GLOBAL DEFAULT    4 soisconnecting
  2931: 00000000402c32f0    14 FUNC    GLOBAL DEFAULT    4 _Z24random_yarrow_deinit_algv
  2932: 0000000040354fe0   196 FUNC    GLOBAL DEFAULT    4 AcpiGetTableByIndex
  2933: 0000000040302630   788 FUNC    GLOBAL DEFAULT    4 _ZN6virtio4scsi7add_lunEtt
  2934: 0000000040326000    48 FUNC    WEAK   DEFAULT    4 _Z15do_small_memcpyILm57EEPvS0_PKv
  2935: 00000000403138d0    86 FUNC    GLOBAL DEFAULT    4 _ZN3vmw6pvscsiD1Ev
  2936: 0000000040801758    80 OBJECT  WEAK   DEFAULT   21 _ZTVNSt3_V214error_categoryE
  2937: 00000000407fed30    72 OBJECT  WEAK   DEFAULT   21 _ZTVNSt7__cxx118numpunctIwEE
  2938: 00000000404245f0   341 FUNC    WEAK   DEFAULT    4 getwc_unlocked
  2939: 0000000040604fb0    72 OBJECT  WEAK   DEFAULT    9 _ZTIN5boost10wrapexceptINS_9gregorian9bad_monthEEE
  2940: 00000000406691a2     1 OBJECT  GLOBAL DEFAULT    9 _ZNSt14numeric_limitsIcE9is_moduloE
  2941: 00000000404edf70    10 FUNC    WEAK   DEFAULT    4 _ZNSt15basic_streambufIcSt11char_traitsIcEE5sputnEPKcl
  2942: 00000000404b37e0  1433 FUNC    WEAK   DEFAULT    4 _ZNSt13basic_filebufIcSt11char_traitsIcEE9underflowEv
  2943: 000000004050c740  1270 FUNC    GLOBAL DEFAULT    4 _ZNSt10filesystem18directory_iteratorC2ERKNS_4pathENS_17directory_optionsEPSt10error_code
  2944: 000000004054d390   600 FUNC    WEAK   DEFAULT    4 _ZNSt7__cxx1119basic_istringstreamIwSt11char_traitsIwESaIwEEC1EONS_12basic_stringIwS2_S3_EESt13_Ios_Openmode
  2945: 0000000040322b10   528 FUNC    GLOBAL DEFAULT    4 _Z12clone_threadmPvm
  2946: 00000000402652b6    39 FUNC    WEAK   DEFAULT    4 _ZN4file8put_pageEPvmN3mmu7hw_ptepILi1EEE
  2947: 0000000040426400   467 FUNC    GLOBAL DEFAULT    4 tempnam
  2948: 000000004039c9c0    70 FUNC    WEAK   DEFAULT    4 _ZN5trace10event_infoD1Ev
  2949: 00000000404b6f60   115 FUNC    WEAK   DEFAULT    4 _ZNSt13basic_filebufIwSt11char_traitsIwEE26_M_destroy_internal_bufferEv
  2950: 00000000403fa3f0   127 FUNC    GLOBAL DEFAULT    4 pthread_rwlock_tryrdlock
  2951: 0000000040669812     1 OBJECT  GLOBAL DEFAULT    9 _ZNSt12placeholders3_18E
  2952: 00000000404a4d40  3731 FUNC    WEAK   DEFAULT    4 _ZNKSt7num_getIwSt19istreambuf_iteratorIwSt11char_traitsIwEEE14_M_extract_intB5cxx11IxEES3_S3_S3_RSt8ios_baseRSt12_Ios_IostateRT_
  2953: 00000000404edf80    76 FUNC    WEAK   DEFAULT    4 _ZNSt15basic_streambufIcSt11char_traitsIcEEC2Ev
  2954: 000000004098c778     8 OBJECT  UNIQUE DEFAULT   52 _ZNSt7__cxx118messagesIcE2idE
  2955: 0000000040331820   638 FUNC    WEAK   DEFAULT    4 _Z13do_sse_memcpyILj43E12load_aligned13store_alignedEvPvPKv
  2956: 0000000040668dcc     4 OBJECT  GLOBAL DEFAULT    9 _ZNSt14numeric_limitsIDuE12max_digits10E
  2957: 00000000402e4a90   302 FUNC    WEAK   DEFAULT    4 _ZSt23__copy_move_backward_a1ILb1EPccEN9__gnu_cxx11__enable_ifIXsrSt23__is_random_access_iterIT0_NSt15iterator_traitsIS4_E17iterator_categoryEE7__valueESt15_Deque_iteratorIT1_RSA_PSA_EE6__typeES4_S4_SD_
  2958: 000000004050c130  1299 FUNC    WEAK   DEFAULT    4 _ZNSt5dequeINSt10filesystem4_DirESaIS1_EED1Ev
  2959: 0000000040478ac0   273 FUNC    WEAK   DEFAULT    4 _ZThn16_NSt18basic_stringstreamIcSt11char_traitsIcESaIcEED0Ev
  2960: 0000000040489200    31 FUNC    WEAK   DEFAULT    4 _ZNSbIwSt11char_traitsIwESaIwEE7replaceEN9__gnu_cxx17__normal_iteratorIPwS2_EES6_St16initializer_listIwE
  2961: 0000000040366dc0   288 FUNC    GLOBAL DEFAULT    4 AcpiDsCreateBankField
  2962: 0000000040914c20     8 OBJECT  GLOBAL DEFAULT   52 zone_ext_refcnt
  2963: 000000004033b190   144 FUNC    WEAK   DEFAULT    4 _Z14unaligned_copyILj6ELj1EEvPvPKvm
  2964: 00000000407fc448    56 OBJECT  WEAK   DEFAULT   21 _ZTISt23__codecvt_abstract_baseIDsDu11__mbstate_tE
  2965: 0000000040325d40    47 FUNC    WEAK   DEFAULT    4 _Z15do_small_memcpyILm43EEPvS0_PKv
  2966: 0000000040343ee0   265 FUNC    GLOBAL DEFAULT    4 AcpiRsConvertAmlToResources
  2967: 00000000404861f0     8 FUNC    WEAK   DEFAULT    4 _ZNKSbIwSt11char_traitsIwESaIwEE5beginEv
  2968: 00000000403d9f10   101 FUNC    GLOBAL DEFAULT    4 sys_chmod
  2969: 0000000040256750   356 FUNC    GLOBAL DEFAULT    4 sbappendrecord_locked
  2970: 0000000040807154     4 OBJECT  GLOBAL DEFAULT   22 tick
  2971: 000000004023dca0    76 FUNC    WEAK   DEFAULT    4 _ZThn24_N5boost10wrapexceptINS_17bad_function_callEED1Ev
  2972: 000000004066905c     1 OBJECT  GLOBAL DEFAULT    9 _ZNSt14numeric_limitsIiE8is_exactE
  2973: 00000000405fae90    14 OBJECT  WEAK   DEFAULT    9 _ZTSN3elf6objectE
  2974: 0000000040919b20     8 OBJECT  GLOBAL DEFAULT   52 ip_mrouter_set
  2975: 0000000040402030    78 FUNC    GLOBAL DEFAULT    4 _ZN9pipe_file4pollEi
  2976: 00000000403c5950  2613 FUNC    GLOBAL DEFAULT    4 osv_execve
  2977: 0000000040286ef0    11 FUNC    GLOBAL DEFAULT    4 in_pcbconnect
  2978: 0000000040377500   484 FUNC    GLOBAL DEFAULT    4 _ZN6memory9page_pool2l26refillEv
  2979: 00000000402fdee0   420 FUNC    WEAK   DEFAULT    4 _ZN3osv7xmitterIN6virtio3net3txqELj4096ESt8functionIFbvEEN5boost9iterators24function_output_iteratorINS_15xmitter_functorIS3_EEEEE4xmitEP4mbuf
  2980: 0000000040423353     0 FUNC    GLOBAL DEFAULT    4 setjmp
  2981: 00000000404aad40    34 FUNC    WEAK   DEFAULT    4 _ZNKSt7__cxx1110moneypunctIwLb0EE11frac_digitsEv
  2982: 0000000040941180     8 OBJECT  GLOBAL DEFAULT   52 AcpiGbl_NamespaceCache
  2983: 000000004045af00    42 FUNC    GLOBAL DEFAULT    4 _ZNSt6locale5facet15_S_get_c_localeEv
  2984: 00000000403b1a70  1114 FUNC    GLOBAL DEFAULT    4 _Z7do_pollRSt6vectorI9poll_fileSaIS0_EEN5boost8optionalINSt6chrono10time_pointIN3osv5clock6uptimeENS6_8durationIlSt5ratioILl1ELl1000000000EEEEEEEE
  2985: 00000000402fa310     5 FUNC    WEAK   DEFAULT    4 _ZN4nvme10queue_pair8req_doneEv
  2986: 0000000040365a80    24 FUNC    GLOBAL DEFAULT    4 AcpiDsInitializeRegion
  2987: 00000000402678e0  1169 FUNC    WEAK   DEFAULT    4 _ZN3osv7sprintfIJP17eventhandler_listEEENSt7__cxx1112basic_stringIcSt11char_traitsIcESaIcEEEPKcDpT_
  2988: 000000004041e290   172 FUNC    GLOBAL DEFAULT    4 gethostbyaddr
  2989: 000000004098cda8     8 OBJECT  UNIQUE DEFAULT   52 _ZNSt8messagesIwE2idE
  2990: 0000000040807580     4 OBJECT  GLOBAL DEFAULT   22 tcp_sack_maxholes
  2991: 0000000040669822     1 OBJECT  GLOBAL DEFAULT    9 _ZNSt12placeholders2_2E
  2992: 000000004046c2f0    22 FUNC    GLOBAL DEFAULT    4 _ZNKSt25__codecvt_utf8_utf16_baseIDiE13do_max_lengthEv
  2993: 00000000402cb120     9 FUNC    WEAK   DEFAULT    4 _ZN3mmu18map_file_page_mmapD0Ev
  2994: 000000004046c200    13 FUNC    GLOBAL DEFAULT    4 _ZNKSt7codecvtIDsDu11__mbstate_tE10do_unshiftERS0_PDuS3_RS3_
  2995: 0000000040361910   262 FUNC    GLOBAL DEFAULT    4 AcpiNsGetNode
  2996: 00000000409852d0    24 OBJECT  GLOBAL DEFAULT   52 _ZN3osv11nameserversE
  2997: 00000000403d6da0    10 FUNC    GLOBAL DEFAULT    4 vop_eperm
  2998: 00000000404cc7d0   137 FUNC    WEAK   DEFAULT    4 _ZNSt14codecvt_bynameIcc11__mbstate_tEC1EPKcm
  2999: 000000004062800a     3 OBJECT  UNIQUE DEFAULT    9 _ZN16signature_helperIJiP4statEE3sigE
  3000: 00000000402bb3b0    62 FUNC    GLOBAL DEFAULT    4 ena_com_set_admin_polling_mode
  3001: 00000000404f4640    83 FUNC    WEAK   DEFAULT    4 _ZNSt10moneypunctIwLb1EEC1EPSt18__moneypunct_cacheIwLb1EEm
  3002: 00000000405e9708    24 OBJECT  WEAK   DEFAULT    9 _ZTI12bsd_shrinker
  3003: 00000000403f6b00    16 FUNC    GLOBAL DEFAULT    4 strtoumax
  3004: 00000000403236b0    32 FUNC    GLOBAL DEFAULT    4 _ZN17interrupt_managerC2EPN3pci8functionE
  3005: 0000000040324580   130 FUNC    GLOBAL DEFAULT    4 _ZN3osv8poweroffEv
  3006: 000000004061ac63     5 OBJECT  UNIQUE DEFAULT    9 _ZN16signature_helperIJiPvmPhEE3sigE
  3007: 0000000040669811     1 OBJECT  GLOBAL DEFAULT    9 _ZNSt12placeholders3_19E
  3008: 00000000403c3ec0   528 FUNC    WEAK   DEFAULT    4 _ZNSt7__cxx119to_stringEi
  3009: 00000000404ca530    78 FUNC    WEAK   DEFAULT    4 _ZSt9has_facetISt7num_putIcSt19ostreambuf_iteratorIcSt11char_traitsIcEEEEbRKSt6locale
  3010: 000000004062b738     8 OBJECT  GLOBAL DEFAULT    9 stdin
  3011: 00000000403ceef0   136 FUNC    GLOBAL DEFAULT    4 fstatvfs
  3012: 00000000402a2d10   449 FUNC    GLOBAL DEFAULT    4 tcp_discardcb
  3013: 00000000407fb900   272 OBJECT  GLOBAL DEFAULT   21 _ZNSt6locale17_S_twinned_facetsE
  3014: 00000000404a9e50  2196 FUNC    WEAK   DEFAULT    4 _ZNKSt7__cxx119money_putIwSt19ostreambuf_iteratorIwSt11char_traitsIwEEE9_M_insertILb0EEES4_S4_RSt8ios_basewRKNS_12basic_stringIwS3_SaIwEEE
  3015: 000000004066a2d0    23 OBJECT  WEAK   DEFAULT    9 _ZTSSt15messages_bynameIwE
  3016: 0000000040289920   190 FUNC    GLOBAL DEFAULT    4 in_leavegroup_locked
  3017: 00000000402bca80    51 FUNC    GLOBAL DEFAULT    4 ena_com_get_hash_key
  3018: 000000004098c7c8     8 OBJECT  UNIQUE DEFAULT   52 _ZGVNSt7__cxx118numpunctIwE2idE
  3019: 00000000404b9060   215 FUNC    WEAK   DEFAULT    4 _ZNSt14basic_ifstreamIcSt11char_traitsIcEEaSEOS2_
  3020: 000000004066901c     4 OBJECT  GLOBAL DEFAULT    9 _ZNSt14numeric_limitsIjE5radixE
  3021: 00000000408001b8    24 OBJECT  WEAK   DEFAULT   21 _ZTISt14collate_bynameIcE
  3022: 0000000040801a70    24 OBJECT  WEAK   DEFAULT   21 _ZTISt15time_put_bynameIwSt19ostreambuf_iteratorIwSt11char_traitsIwEEE
  3023: 000000004061abe2     4 OBJECT  UNIQUE DEFAULT    9 _ZN16signature_helperIJlPcmEE3sigE
  3024: 00000000403da4a0    42 FUNC    WEAK   DEFAULT    4 _ZN8vfs_fileD0Ev
  3025: 0000000040482030    25 FUNC    GLOBAL DEFAULT    4 _ZGTtNSt12domain_errorD2Ev
  3026: 0000000040481ef0   142 FUNC    GLOBAL DEFAULT    4 _ZGTtNSt12domain_errorC1EPKc
  3027: 000000004023dfa0    87 FUNC    WEAK   DEFAULT    4 _ZN5boost10wrapexceptINS_2io17bad_format_stringEED0Ev
  3028: 00000000403f5bc0   227 FUNC    GLOBAL DEFAULT    4 vswprintf
  3029: 000000004040f1e0   146 FUNC    WEAK   DEFAULT    4 pow10
  3030: 0000000040266910   184 FUNC    GLOBAL DEFAULT    4 _ZN3osv7stop_ifENSt7__cxx1112basic_stringIcSt11char_traitsIcESaIcEEES5_
  3031: 000000004031dbe0    25 FUNC    WEAK   DEFAULT    4 _ZNSt6vectorIPN5sched3cpuESaIS2_EED1Ev
  3032: 000000004068ad40    36 OBJECT  WEAK   DEFAULT    9 _ZTSNSt3pmr25monotonic_buffer_resourceE
  3033: 00000000404502c0    15 FUNC    WEAK   DEFAULT    4 _ZNK9__gnu_cxx8__detail13__mini_vectorISt4pairIPNS_16bitmap_allocatorIcE12_Alloc_blockES6_EEixEm
  3034: 00000000406697d0     1 OBJECT  UNIQUE DEFAULT    9 _ZNSt10moneypunctIcLb0EE4intlE
  3035: 0000000040668ed5     1 OBJECT  GLOBAL DEFAULT    9 _ZNSt14numeric_limitsInE15has_denorm_lossE
  3036: 000000004030b290   620 FUNC    WEAK   DEFAULT    4 _ZN3osv11nway_mergerINSt7__cxx114listIPNS_9cpu_queueILj4096EEESaIS5_EEENS_24std_ptr_front_comparatorIS5_EEE3popIN5boost9iterators24function_output_iteratorINS_15xmitter_functorIN3vmw15vmxnet3_txqueueEEEEEEEbT_
  3037: 00000000404e3040    51 FUNC    GLOBAL DEFAULT    4 _ZNSt11regex_errorC2ENSt15regex_constants10error_typeE
  3038: 00000000404ee3d0    34 FUNC    WEAK   DEFAULT    4 _ZNSt15basic_streambufIwSt11char_traitsIwEE10pubseekposESt4fposI11__mbstate_tESt13_Ios_Openmode
  3039: 00000000404eb900   150 FUNC    WEAK   DEFAULT    4 _ZNKSt7__cxx1119basic_istringstreamIwSt11char_traitsIwESaIwEE3strEv
  3040: 000000004049b820    62 FUNC    WEAK   DEFAULT    4 _ZNSt7__cxx117collateIcEC2EP15__locale_structm
  3041: 00000000403fe1c0   155 FUNC    GLOBAL DEFAULT    4 _ZN6itimer3getEP9itimerval
  3042: 000000004030d740    43 FUNC    WEAK   DEFAULT    4 _ZN16hpet_64bit_clock6uptimeEv
  3043: 000000004052ea60    14 FUNC    WEAK   DEFAULT    4 _ZNSt23_Sp_counted_ptr_inplaceINSt10filesystem7__cxx114_DirESaIS2_ELN9__gnu_cxx12_Lock_policyE2EE10_M_destroyEv
  3044: 00000000404ca5a0    10 FUNC    WEAK   DEFAULT    4 _ZNKSt7num_getIcSt19istreambuf_iteratorIcSt11char_traitsIcEEE3getES3_S3_RSt8ios_baseRSt12_Ios_IostateRb
  3045: 000000004049b420    88 FUNC    WEAK   DEFAULT    4 _ZNSt7__cxx118messagesIcEC2Em
  3046: 00000000404ca5c0    10 FUNC    WEAK   DEFAULT    4 _ZNKSt7num_getIcSt19istreambuf_iteratorIcSt11char_traitsIcEEE3getES3_S3_RSt8ios_baseRSt12_Ios_IostateRd
  3047: 00000000404ca5d0    10 FUNC    WEAK   DEFAULT    4 _ZNKSt7num_getIcSt19istreambuf_iteratorIcSt11char_traitsIcEEE3getES3_S3_RSt8ios_baseRSt12_Ios_IostateRe
  3048: 00000000404ca5b0    10 FUNC    WEAK   DEFAULT    4 _ZNKSt7num_getIcSt19istreambuf_iteratorIcSt11char_traitsIcEEE3getES3_S3_RSt8ios_baseRSt12_Ios_IostateRf
  3049: 0000000040669821     1 OBJECT  GLOBAL DEFAULT    9 _ZNSt12placeholders2_3E
  3050: 0000000040369c80    25 FUNC    GLOBAL DEFAULT    4 _ZN6rwlock13read_lockableEv
  3051: 0000000040914470     8 OBJECT  UNIQUE DEFAULT   52 _ZGVZN5boost6system15system_categoryEvE24system_category_instance
  3052: 0000000040509190     9 FUNC    WEAK   DEFAULT    4 _ZNKSt7__cxx1112basic_stringIwSt11char_traitsIwESaIwEE13find_first_ofEwm
  3053: 000000004034dbb0   156 FUNC    GLOBAL DEFAULT    4 AcpiExCreatePowerResource
  3054: 0000000040807314     4 OBJECT  GLOBAL DEFAULT   22 ipport_hifirstauto
  3055: 00000000404ad2a0  5584 FUNC    WEAK   DEFAULT    4 _ZNKSt7__cxx118time_getIwSt19istreambuf_iteratorIwSt11char_traitsIwEEE21_M_extract_via_formatES4_S4_RSt8ios_baseRSt12_Ios_IostateP2tmPKw
  3056: 00000000403ff760    73 FUNC    GLOBAL DEFAULT    4 _Z13mmap_validatePvmil
  3057: 00000000402bd2b0    50 FUNC    GLOBAL DEFAULT    4 ena_com_delete_debug_area
  3058: 0000000040456320     5 FUNC    WEAK   DEFAULT    4 _ZN9__gnu_cxx19__function_requiresINS_21_InputIteratorConceptIPKcEEEEvv
  3059: 00000000404d5e00    50 FUNC    WEAK   DEFAULT    4 _ZNKSt7num_getIcSt19istreambuf_iteratorIcSt11char_traitsIcEEE3getES3_S3_RSt8ios_baseRSt12_Ios_IostateRj
  3060: 000000004048b1f0    36 FUNC    WEAK   DEFAULT    4 _ZNSt7__cxx1115numpunct_bynameIcED0Ev
  3061: 000000004034a3e0   105 FUNC    GLOBAL DEFAULT    4 AcpiHwWrite
  3062: 0000000040338200   312 FUNC    WEAK   DEFAULT    4 _Z14unaligned_copyILj12ELj10EEvPvPKvm
  3063: 00000000404d47a0    50 FUNC    WEAK   DEFAULT    4 _ZNKSt7num_getIcSt19istreambuf_iteratorIcSt11char_traitsIcEEE3getES3_S3_RSt8ios_baseRSt12_Ios_IostateRl
  3064: 000000004052f090    25 FUNC    WEAK   DEFAULT    4 _ZNKSt12__shared_ptrINSt10filesystem7__cxx1128recursive_directory_iterator10_Dir_stackELN9__gnu_cxx12_Lock_policyE2EE6uniqueEv
  3065: 00000000404d6980    50 FUNC    WEAK   DEFAULT    4 _ZNKSt7num_getIcSt19istreambuf_iteratorIcSt11char_traitsIcEEE3getES3_S3_RSt8ios_baseRSt12_Ios_IostateRm
  3066: 0000000040450790    28 FUNC    WEAK   DEFAULT    4 _ZN9__gnu_cxx8__detail13__mini_vectorIPmEC1Ev
  3067: 0000000040463fc0   247 FUNC    GLOBAL DEFAULT    4 _ZNSt10moneypunctIwLb0EED2Ev
  3068: 00000000403d3bd0    24 FUNC    GLOBAL DEFAULT    4 biofinish
  3069: 00000000402f2f70     5 FUNC    WEAK   DEFAULT    4 _ZN6virtio24virtio_legacy_pci_device14activate_queueEi
  3070: 00000000404d52e0    50 FUNC    WEAK   DEFAULT    4 _ZNKSt7num_getIcSt19istreambuf_iteratorIcSt11char_traitsIcEEE3getES3_S3_RSt8ios_baseRSt12_Ios_IostateRt
  3071: 0000000040481a90   121 FUNC    GLOBAL DEFAULT    4 _ZNSt12__cow_stringD2Ev
  3072: 000000004030a510  2807 FUNC    WEAK   DEFAULT    4 _ZN3osv7xmitterIN3vmw15vmxnet3_txqueueELj4096ESt8functionIFbvEEN5boost9iterators24function_output_iteratorINS_15xmitter_functorIS2_EEEEEC1EPS2_S5_RSB_RKNSt7__cxx1112basic_stringIcSt11char_traitsIcESaIcEEE
  3073: 00000000403df950     5 FUNC    WEAK   DEFAULT    4 _ZNSt23_Sp_counted_ptr_inplaceIN8virtiofs11dax_managerINS0_15dax_window_implEEESaIS3_ELN9__gnu_cxx12_Lock_policyE2EED1Ev
  3074: 000000004046c170    76 FUNC    GLOBAL DEFAULT    4 _ZNSt6chrono3_V212steady_clock3nowEv
  3075: 00000000404f5bf0    88 FUNC    WEAK   DEFAULT    4 _ZNSt8messagesIwEC2Em
  3076: 00000000404502d0   329 FUNC    WEAK   DEFAULT    4 _ZN9__gnu_cxx8__detail13__mini_vectorISt4pairIPNS_16bitmap_allocatorIcE12_Alloc_blockES6_EE6insertEPS7_RKS7_
  3077: 0000000040668de3     1 OBJECT  GLOBAL DEFAULT    9 _ZNSt14numeric_limitsIeE10is_boundedE
  3078: 00000000404b1860   214 FUNC    GLOBAL DEFAULT    4 _ZN11__gnu_debug30_Safe_unordered_container_base13_M_detach_allEv
  3079: 0000000040290830  1164 FUNC    GLOBAL DEFAULT    4 ip_dooptions
  3080: 00000000404d74c0    50 FUNC    WEAK   DEFAULT    4 _ZNKSt7num_getIcSt19istreambuf_iteratorIcSt11char_traitsIcEEE3getES3_S3_RSt8ios_baseRSt12_Ios_IostateRx
  3081: 00000000404d7fa0    50 FUNC    WEAK   DEFAULT    4 _ZNKSt7num_getIcSt19istreambuf_iteratorIcSt11char_traitsIcEEE3getES3_S3_RSt8ios_baseRSt12_Ios_IostateRy
  3082: 0000000040260640   134 FUNC    GLOBAL DEFAULT    4 _Z12getsockname1iP12bsd_sockaddrPj
  3083: 00000000402d39a0    70 FUNC    GLOBAL DEFAULT    4 _ZN7console19console_multiplexer15read_queue_sizeEv
  3084: 000000004066923d     1 OBJECT  GLOBAL DEFAULT    9 _ZNSt21__numeric_limits_base10is_integerE
  3085: 00000000402b09d0   313 FUNC    GLOBAL DEFAULT    4 xenbusb_write_ivar
  3086: 00000000405088b0   111 FUNC    WEAK   DEFAULT    4 _ZNSt7__cxx1112basic_stringIwSt11char_traitsIwESaIwEE6insertEmRKS4_mm
  3087: 0000000040800248    24 OBJECT  WEAK   DEFAULT   21 _ZTISt11__timepunctIcE
  3088: 000000004039eea0   432 FUNC    WEAK   DEFAULT    4 _ZNSt6vectorINSt7__cxx119sub_matchIN9__gnu_cxx17__normal_iteratorIPKcNS0_12basic_stringIcSt11char_traitsIcESaIcEEEEEEESaISC_EE14_M_fill_assignEmRKSC_
  3089: 0000000040622a40    85 OBJECT  WEAK   DEFAULT    9 _ZTSSt23_Sp_counted_ptr_inplaceIN3osv11applicationESaIS1_ELN9__gnu_cxx12_Lock_policyE2EE
  3090: 000000004066a2e8     1 OBJECT  UNIQUE DEFAULT    9 _ZNSt17moneypunct_bynameIwLb0EE4intlE
  3091: 0000000040403dc0    10 FUNC    GLOBAL DEFAULT    4 getlogin
  3092: 0000000040488530   106 FUNC    WEAK   DEFAULT    4 _ZNSbIwSt11char_traitsIwESaIwEEpLEw
  3093: 0000000040424a00   138 FUNC    GLOBAL DEFAULT    4 fprintf
  3094: 00000000404c9430    36 FUNC    WEAK   DEFAULT    4 _ZNSt17moneypunct_bynameIcLb1EED0Ev
  3095: 0000000040256110    83 FUNC    GLOBAL DEFAULT    4 socantsendmore
  3096: 0000000040485f30    39 FUNC    WEAK   DEFAULT    4 _ZNKSbIwSt11char_traitsIwESaIwEE15_M_check_lengthEmmPKc
  3097: 00000000403b1870   315 FUNC    GLOBAL DEFAULT    4 _Z12poll_installP7pollreq
  3098: 00000000404cae60    87 FUNC    WEAK   DEFAULT    4 _ZNSt10moneypunctIcLb1EEC1Em
  3099: 00000000403362b0   112 FUNC    WEAK   DEFAULT    4 _Z14unaligned_copyILj4ELj8EEvPvPKvm
  3100: 0000000040985bc0    16 OBJECT  GLOBAL DEFAULT   52 __tzname
  3101: 0000000040355a00    22 FUNC    GLOBAL DEFAULT    4 AcpiPsIsLeadingChar
  3102: 00000000404f5bd0    30 FUNC    WEAK   DEFAULT    4 _ZNSt15time_get_bynameIwSt19istreambuf_iteratorIwSt11char_traitsIwEEEC2ERKSsm
  3103: 0000000040669820     1 OBJECT  GLOBAL DEFAULT    9 _ZNSt12placeholders2_4E
  3104: 0000000040248b30   116 FUNC    GLOBAL DEFAULT    4 munlockall
  3105: 00000000404dd7e0    83 FUNC    WEAK   DEFAULT    4 _ZNSo8_M_writeEPKcl
  3106: 00000000404edf20    69 FUNC    WEAK   DEFAULT    4 _ZNSt15basic_streambufIcSt11char_traitsIcEE5sputcEc
  3107: 0000000040255e80   245 FUNC    GLOBAL DEFAULT    4 _Z12so_wake_pollP6socketP7sockbuf
  3108: 000000004037b2f0   395 FUNC    WEAK   DEFAULT    4 _ZN5boost14dynamic_bitsetImN6memory20page_range_allocator16bitmap_allocatorImEEE6resizeEmb
  3109: 0000000040509d10    71 FUNC    WEAK   DEFAULT    4 _ZNSt7__cxx1112basic_stringIwSt11char_traitsIwESaIwEEC1ERKS4_mm
  3110: 0000000040478890   273 FUNC    WEAK   DEFAULT    4 _ZTv0_n24_NSt18basic_stringstreamIwSt11char_traitsIwESaIwEED0Ev
  3111: 000000004038dfc0    12 FUNC    GLOBAL DEFAULT    4 _ZNK5sched6thread19realtime_time_sliceEv
  3112: 00000000403d48d0    51 FUNC    WEAK   DEFAULT    4 _ZN5boost9intrusive4listI3bufJNS0_9base_hookIS2_EEEED2Ev
  3113: 00000000403bf980    79 FUNC    GLOBAL DEFAULT    4 _Z19log_packet_handlingP4mbufi
  3114: 000000004026d1b0    14 FUNC    GLOBAL DEFAULT    4 arp_init
  3115: 00000000404265e0   183 FUNC    GLOBAL DEFAULT    4 tmpfile
  3116: 0000000040369a20   147 FUNC    GLOBAL DEFAULT    4 _ZN6rwlock5wlockEv
  3117: 0000000040668df4     4 OBJECT  GLOBAL DEFAULT    9 _ZNSt14numeric_limitsIeE12max_exponentE
  3118: 00000000405f1e30    16 OBJECT  WEAK   DEFAULT    9 _ZTISt22_Weak_result_type_implIPFvP13syncache_headRN5async17serial_timer_taskEEE
  3119: 00000000403793c0     5 FUNC    WEAK   DEFAULT    4 _ZN6memory13alloc_trackerD1Ev
  3120: 00000000404ed570    14 FUNC    WEAK   DEFAULT    4 _ZNSt15basic_streambufIcSt11char_traitsIcEE7seekoffElSt12_Ios_SeekdirSt13_Ios_Openmode
  3121: 0000000040668e5d     1 OBJECT  GLOBAL DEFAULT    9 _ZNSt14numeric_limitsIfE15has_denorm_lossE
  3122: 00000000403c9d60   254 FUNC    WEAK   DEFAULT    4 _ZNSt8_Rb_treeINSt7__cxx1112basic_stringIcSt11char_traitsIcESaIcEEESt4pairIKS5_St6vectorIS5_SaIS5_EEESt10_Select1stISB_ESt4lessIS5_ESaISB_EE4findERS7_
  3123: 00000000406047d0    24 OBJECT  WEAK   DEFAULT    9 _ZTI11hypervclock
  3124: 00000000403c0730   152 FUNC    GLOBAL DEFAULT    4 _ZN3osv19application_runtimeD2Ev
  3125: 00000000403d3070   105 FUNC    GLOBAL DEFAULT    4 _ZN4fileC2Ej10filetype_tPv
  3126: 0000000040467470     5 FUNC    WEAK   DEFAULT    4 _ZN9__gnu_cxx12__pool_allocIwEC2ERKS1_
  3127: 0000000040366220   112 FUNC    GLOBAL DEFAULT    4 AcpiDsResolveOperands
  3128: 000000004038b830   312 FUNC    WEAK   DEFAULT    4 _ZNK5boost6spirit2qi6kleeneINS1_11alternativeINS_6fusion4consINS1_9referenceINS1_7symbolsIKcS8_NS1_3tstIS8_S8_EENS1_16tst_pass_throughEEEEENS5_INS1_10differenceINS1_10char_classINS0_3tag9char_codeINSG_5char_ENS0_13char_encoding5asciiEEEEENS1_12literal_charINSJ_8standardELb1ELb0EEEEENS4_4nil_EEEEEEEE5parseIN9__gnu_cxx17__normal_iteratorIPS8_NSt7__cxx1112basic_stringIcSt11char_traitsIcESaIcEEEEENS0_7contextINS5_IRS15_SR_EENS4_6vectorIJEEEEENS1_6detail14unused_skipperINSF_INSH_INSG_5spaceESK_EEEEEES15_EEbRT_RKS1J_RT0_RKT1_RT2_
  3129: 0000000040464420   249 FUNC    GLOBAL DEFAULT    4 _ZN9__gnu_cxx6__poolILb0EE13_M_initializeEv
  3130: 00000000404f27f0    12 FUNC    WEAK   DEFAULT    4 _ZNKSt10moneypunctIwLb0EE14do_frac_digitsEv
  3131: 00000000404ef470    15 FUNC    WEAK   DEFAULT    4 _ZNKSt7__cxx1112basic_stringIcSt11char_traitsIcESaIcEE8max_sizeEv
  3132: 0000000040950948     8 OBJECT  GLOBAL DEFAULT   52 arc_share_buf_fun
  3133: 0000000040390f00   230 FUNC    GLOBAL DEFAULT    4 _ZN5sched6thread9wake_lockEPN8lockfree5mutexEP11wait_record
  3134: 00000000403ecb90    84 FUNC    GLOBAL DEFAULT    4 backtrace
  3135: 0000000040669038     1 OBJECT  GLOBAL DEFAULT    9 _ZNSt14numeric_limitsIiE15tinyness_beforeE
  3136: 0000000040608db0    24 OBJECT  GLOBAL DEFAULT    9 AcpiRsConvertDma
  3137: 0000000040242613   127 FUNC    WEAK   DEFAULT    4 _ZN5boost15throw_exceptionINS_17bad_function_callEEEvRKT_
  3138: 000000004066a1a0    59 OBJECT  WEAK   DEFAULT    9 _ZTSSt8time_putIwSt19ostreambuf_iteratorIwSt11char_traitsIwEEE
  3139: 000000004033a8e0   193 FUNC    WEAK   DEFAULT    4 _Z14unaligned_copyILj8ELj1EEvPvPKvm
  3140: 00000000409518e0     1 OBJECT  GLOBAL DEFAULT   52 _ZN6memory14reclaimer_lockE
  3141: 0000000040369df0   138 FUNC    GLOBAL DEFAULT    4 rwlock_destroy
  3142: 00000000402aacf0   573 FUNC    WEAK   DEFAULT    4 _ZN3osv13rcu_hashtableIN9arp_cache5entryENS1_10entry_hashEE6resizeEm
  3143: 0000000040487be0     9 FUNC    WEAK   DEFAULT    4 _ZNSbIwSt11char_traitsIwESaIwEE6assignESt16initializer_listIwE
  3144: 00000000404de600    11 FUNC    WEAK   DEFAULT    4 _ZSt4endsIcSt11char_traitsIcEERSt13basic_ostreamIT_T0_ES6_
  3145: 00000000403128d0   601 FUNC    GLOBAL DEFAULT    4 _ZN11scsi_common16exec_report_lunsEt
  3146: 0000000040357cb0   737 FUNC    GLOBAL DEFAULT    4 AcpiPsExecuteMethod
  3147: 000000004047f4c0   341 FUNC    WEAK   DEFAULT    4 _ZNSt19basic_ostringstreamIwSt11char_traitsIwESaIwEEC1ESt13_Ios_Openmode
  3148: 000000004053e8c0    58 FUNC    WEAK   DEFAULT    4 _ZNSt10filesystem7__cxx114path5_CmptD2Ev
  3149: 000000004053e6d0   158 FUNC    GLOBAL DEFAULT    4 _ZNSt10filesystem7__cxx1116filesystem_errorD2Ev
  3150: 00000000404ba600    88 FUNC    WEAK   DEFAULT    4 _ZNSt13basic_filebufIcSt11char_traitsIcEED0Ev
  3151: 000000004034dd10   158 FUNC    GLOBAL DEFAULT    4 AcpiExOpcode_2A_0T_0R
  3152: 0000000040402810    53 FUNC    GLOBAL DEFAULT    4 _ZN8af_local5writeEP3uioi
  3153: 000000004048ae50    38 FUNC    GLOBAL DEFAULT    4 _ZNSt8ios_base7failureB5cxx11C1ERKNSt7__cxx1112basic_stringIcSt11char_traitsIcESaIcEEERKSt10error_code
  3154: 00000000404e1160    23 FUNC    WEAK   DEFAULT    4 _ZStlsIwSt11char_traitsIwEERSt13basic_ostreamIT_T0_ES6_St13_Setprecision
  3155: 000000004066981f     1 OBJECT  GLOBAL DEFAULT    9 _ZNSt12placeholders2_5E
  3156: 00000000402b8560    42 FUNC    GLOBAL DEFAULT    4 _ZN28blkfront_indirect_descriptor9configureEmhmt
  3157: 000000004060dac0   256 OBJECT  GLOBAL DEFAULT    9 AcpiGbl_ShortOpIndex
  3158: 00000000403c1580   173 FUNC    GLOBAL DEFAULT    4 _ZN3osv11application11get_commandB5cxx11Ev
  3159: 0000000040627fe7     5 OBJECT  UNIQUE DEFAULT    9 _ZN16signature_helperIJiillEE3sigE
  3160: 000000004028c3b0    17 FUNC    GLOBAL DEFAULT    4 _Z17kmod_icmpstat_inci
  3161: 0000000040956b40    88 OBJECT  GLOBAL DEFAULT   52 _ZN5sched10wakeup_ipiE
  3162: 0000000040252300   387 FUNC    GLOBAL DEFAULT    4 m_apply
  3163: 00000000403650b0   384 FUNC    GLOBAL DEFAULT    4 AcpiDsExecBeginOp
  3164: 00000000402e3290   553 FUNC    WEAK   DEFAULT    4 _ZNSt8_Rb_treeINSt7__cxx1112basic_stringIcSt11char_traitsIcESaIcEEESt4pairIKS5_St8weak_ptrIN3elf6objectEEESt10_Select1stISC_ESt4lessIS5_ESaISC_EE11equal_rangeERS7_
  3165: 000000004035c2a0   285 FUNC    GLOBAL DEFAULT    4 AcpiEvQueueNotifyRequest
  3166: 000000004035ac70    86 FUNC    GLOBAL DEFAULT    4 AcpiEvUpdateGpeEnableMask
  3167: 0000000040662080    34 OBJECT  WEAK   DEFAULT    9 _ZTSN10__cxxabiv117__array_type_infoE
  3168: 00000000404a05b0    23 FUNC    WEAK   DEFAULT    4 _ZNSt7__cxx1117moneypunct_bynameIwLb0EED1Ev
  3169: 0000000040482df0    19 FUNC    WEAK   DEFAULT    4 _ZNSsC1Ev
  3170: 000000004048a2f0   145 FUNC    GLOBAL DEFAULT    4 _ZNKSt5ctypeIwE5do_isEPKwS2_Pt
  3171: 000000004035acd0    70 FUNC    GLOBAL DEFAULT    4 AcpiEvEnableGpe
  3172: 0000000040279dc0   601 FUNC    GLOBAL DEFAULT    4 netisr_unregister
  3173: 0000000040337320   368 FUNC    WEAK   DEFAULT    4 _Z14unaligned_copyILj14ELj6EEvPvPKvm
  3174: 00000000404e1ea0    13 FUNC    WEAK   DEFAULT    4 _ZNSt13basic_ostreamIwSt11char_traitsIwEElsEb
  3175: 0000000040908529     1 OBJECT  GLOBAL DEFAULT   48 _ZN7workman5_dutyE
  3176: 00000000404e24d0     9 FUNC    WEAK   DEFAULT    4 _ZNSt13basic_ostreamIwSt11char_traitsIwEElsEd
  3177: 0000000040500930  2689 FUNC    WEAK   DEFAULT    4 _ZNKSt7num_getIwSt19istreambuf_iteratorIwSt11char_traitsIwEEE14_M_extract_intIyEES3_S3_S3_RSt8ios_baseRSt12_Ios_IostateRT_
  3178: 0000000040359990   307 FUNC    GLOBAL DEFAULT    4 AcpiEvExecuteRegMethods
  3179: 00000000404e26f0     9 FUNC    WEAK   DEFAULT    4 _ZNSt13basic_ostreamIwSt11char_traitsIwEElsEe
  3180: 00000000402aa620   227 FUNC    GLOBAL DEFAULT    4 _Z16arp_cache_lookup7in_addrRN9arp_cache11mac_addressERt
  3181: 00000000405e93c0    16 OBJECT  WEAK   DEFAULT    9 _ZTI5error
  3182: 0000000040343000   572 FUNC    GLOBAL DEFAULT    4 AcpiRsGetListLength
  3183: 00000000404afe10    80 FUNC    WEAK   DEFAULT    4 _ZSt9use_facetINSt7__cxx1110moneypunctIwLb1EEEERKT_RKSt6locale
  3184: 00000000404e24e0    13 FUNC    WEAK   DEFAULT    4 _ZNSt13basic_ostreamIwSt11char_traitsIwEElsEf
  3185: 00000000403cdbb0   595 FUNC    GLOBAL DEFAULT    4 chdir
  3186: 00000000404b89c0   280 FUNC    WEAK   DEFAULT    4 _ZNSt13basic_fstreamIcSt11char_traitsIcEEC2Ev
  3187: 00000000404b0040    78 FUNC    WEAK   DEFAULT    4 _ZSt9has_facetINSt7__cxx118time_getIwSt19istreambuf_iteratorIwSt11char_traitsIwEEEEEbRKSt6locale
  3188: 0000000040664ec0    46 OBJECT  WEAK   DEFAULT    9 _ZTSSt23__codecvt_abstract_baseIDic11__mbstate_tE
  3189: 000000004048a500   230 FUNC    GLOBAL DEFAULT    4 _ZNKSt5ctypeIwE9do_narrowEPKwS2_cPc
  3190: 00000000404e1a40    47 FUNC    WEAK   DEFAULT    4 _ZNSt13basic_ostreamIwSt11char_traitsIwEElsEi
  3191: 00000000402acdc0   119 FUNC    GLOBAL DEFAULT    4 _Z27gnttab_grant_foreign_accesstmiPj
  3192: 00000000403e6540     7 FUNC    GLOBAL DEFAULT    4 _Z10sysfs_initv
  3193: 0000000040355920    13 FUNC    GLOBAL DEFAULT    4 AcpiPsInitOp
  3194: 00000000404e1c90    11 FUNC    WEAK   DEFAULT    4 _ZNSt13basic_ostreamIwSt11char_traitsIwEElsEj
  3195: 00000000403479a0    87 FUNC    GLOBAL DEFAULT    4 AcpiUtValidAcpiName
  3196: 0000000040600770    24 OBJECT  WEAK   DEFAULT    9 _ZTVN4nvme10queue_pairE
  3197: 00000000404e1a00     9 FUNC    WEAK   DEFAULT    4 _ZNSt13basic_ostreamIwSt11char_traitsIwEElsEl
  3198: 00000000404701f0   225 FUNC    WEAK   DEFAULT    4 _ZNSt14basic_ofstreamIwSt11char_traitsIwEEC2ERKSsSt13_Ios_Openmode
  3199: 00000000404f2bf0    36 FUNC    WEAK   DEFAULT    4 _ZNSt15time_put_bynameIwSt19ostreambuf_iteratorIwSt11char_traitsIwEEED0Ev
  3200: 000000004046c1e0     7 FUNC    GLOBAL DEFAULT    4 _ZNKSt20__codecvt_utf16_baseIDiE16do_always_noconvEv
  3201: 00000000407fb278    32 OBJECT  WEAK   DEFAULT   21 _ZTIPa
  3202: 00000000404e1c70     9 FUNC    WEAK   DEFAULT    4 _ZNSt13basic_ostreamIwSt11char_traitsIwEElsEm
  3203: 00000000407fb458    32 OBJECT  WEAK   DEFAULT   21 _ZTIPb
  3204: 0000000040482f90    17 FUNC    WEAK   DEFAULT    4 _ZNKSs4backEv
  3205: 00000000407fb2c8    32 OBJECT  WEAK   DEFAULT   21 _ZTIPc
  3206: 0000000040452200    40 FUNC    WEAK   DEFAULT    4 _ZN9__gnu_cxx16bitmap_allocatorIwE10deallocateEPwm
  3207: 00000000407faf08    32 OBJECT  WEAK   DEFAULT   21 _ZTIPd
  3208: 00000000407faeb8    32 OBJECT  WEAK   DEFAULT   21 _ZTIPe
  3209: 00000000407faf58    32 OBJECT  WEAK   DEFAULT   21 _ZTIPf
  3210: 0000000040480020    65 FUNC    WEAK   DEFAULT    4 _ZNSt19basic_ostringstreamIwSt11char_traitsIwESaIwEE3strERKSbIwS1_S2_E
  3211: 0000000040486400    20 FUNC    WEAK   DEFAULT    4 _ZNSbIwSt11char_traitsIwESaIwEEaSEOS2_
  3212: 00000000403b3c30   359 FUNC    WEAK   DEFAULT    4 _ZN10epoll_fileD1Ev
  3213: 00000000405078f0   232 FUNC    WEAK   DEFAULT    4 _ZNSt7__cxx1112basic_stringIwSt11char_traitsIwESaIwEE6assignEOS4_
  3214: 0000000040372fb0   102 FUNC    WEAK   DEFAULT    4 _ZN9pagecache11cached_pageD1Ev
  3215: 00000000407fac88    32 OBJECT  WEAK   DEFAULT   21 _ZTIPg
  3216: 00000000404e1a10    48 FUNC    WEAK   DEFAULT    4 _ZNSt13basic_ostreamIwSt11char_traitsIwEElsEs
  3217: 00000000404e1c80    12 FUNC    WEAK   DEFAULT    4 _ZNSt13basic_ostreamIwSt11char_traitsIwEElsEt
  3218: 00000000402fbd50   531 FUNC    GLOBAL DEFAULT    4 _ZN6virtio3net3txq2gcEv
  3219: 0000000040668d48     4 OBJECT  GLOBAL DEFAULT    9 _ZNSt14numeric_limitsIDiE12min_exponentE
  3220: 00000000407fb228    32 OBJECT  WEAK   DEFAULT   21 _ZTIPh
  3221: 0000000040345de0   115 FUNC    GLOBAL DEFAULT    4 AcpiUtGetObjectSize
  3222: 0000000040460eb0   212 FUNC    GLOBAL DEFAULT    4 _ZNSt7__cxx1110moneypunctIcLb0EED1Ev
  3223: 00000000407fb138    32 OBJECT  WEAK   DEFAULT   21 _ZTIPi
  3224: 00000000407fb0e8    32 OBJECT  WEAK   DEFAULT   21 _ZTIPj
  3225: 0000000040284820   121 FUNC    GLOBAL DEFAULT    4 in_domifattach
  3226: 00000000404e20b0     9 FUNC    WEAK   DEFAULT    4 _ZNSt13basic_ostreamIwSt11char_traitsIwEElsEx
  3227: 000000004034e320   383 FUNC    GLOBAL DEFAULT    4 AcpiExOpcode_2A_0T_1R
  3228: 00000000407fb098    32 OBJECT  WEAK   DEFAULT   21 _ZTIPl
  3229: 000000004038e5f0   104 FUNC    GLOBAL DEFAULT    4 _ZN5sched10timer_list5rearmEv
  3230: 00000000404e22c0     9 FUNC    WEAK   DEFAULT    4 _ZNSt13basic_ostreamIwSt11char_traitsIwEElsEy
  3231: 00000000407fb048    32 OBJECT  WEAK   DEFAULT   21 _ZTIPm
  3232: 00000000407fad28    32 OBJECT  WEAK   DEFAULT   21 _ZTIPn
  3233: 00000000403d75d0     7 FUNC    GLOBAL DEFAULT    4 _Z9sys_closeP4file
  3234: 00000000407facd8    32 OBJECT  WEAK   DEFAULT   21 _ZTIPo
  3235: 000000004066981e     1 OBJECT  GLOBAL DEFAULT    9 _ZNSt12placeholders2_6E
  3236: 00000000402cfc70   114 FUNC    WEAK   DEFAULT    4 _ZN3mmu13operate_rangeINS_8populateILNS_11account_optE1EEEEEmT_PvS5_m
  3237: 000000004046bda0    36 FUNC    GLOBAL DEFAULT    4 _ZSt20_Rb_tree_black_countPKSt18_Rb_tree_node_baseS1_
  3238: 00000000405ed829     3 OBJECT  UNIQUE DEFAULT    9 _ZN16signature_helperIJPvjEE3sigE
  3239: 00000000403eb710     9 FUNC    GLOBAL DEFAULT    4 __strtold_l
  3240: 00000000404ed550     5 FUNC    WEAK   DEFAULT    4 _ZNSt15basic_streambufIcSt11char_traitsIcEE5imbueERKSt6locale
  3241: 0000000040668fec     4 OBJECT  GLOBAL DEFAULT    9 _ZNSt14numeric_limitsIlE8digits10E
  3242: 0000000040416170   589 FUNC    GLOBAL DEFAULT    4 log10
  3243: 0000000040414530   328 FUNC    GLOBAL DEFAULT    4 ynf
  3244: 00000000404ef410    12 FUNC    WEAK   DEFAULT    4 _ZNKSt7__cxx1112basic_stringIcSt11char_traitsIcESaIcEE4cendEv
  3245: 0000000040266470   132 FUNC    GLOBAL DEFAULT    4 osv_sysctl
  3246: 000000004044e490    37 FUNC    GLOBAL DEFAULT    4 __cxa_deleted_virtual
  3247: 00000000402a4cf0   456 FUNC    GLOBAL DEFAULT    4 syncache_chkrst
  3248: 00000000407fb1d8    32 OBJECT  WEAK   DEFAULT   21 _ZTIPs
  3249: 000000004062b380   184 OBJECT  WEAK   DEFAULT    9 _ZTV9mtab_file
  3250: 0000000040481520    28 FUNC    GLOBAL DEFAULT    4 _ZNSt13runtime_erroraSEOS_
  3251: 00000000407fb188    32 OBJECT  WEAK   DEFAULT   21 _ZTIPt
  3252: 00000000404022e0  1142 FUNC    GLOBAL DEFAULT    4 pipe2
  3253: 00000000402fb450   325 FUNC    GLOBAL DEFAULT    4 _ZNK6virtio3net10fill_statsEP7if_data
  3254: 0000000040482210   142 FUNC    GLOBAL DEFAULT    4 _ZGTtNSt12length_errorC1EPKc
  3255: 00000000407fb4a8    32 OBJECT  WEAK   DEFAULT   21 _ZTIPv
  3256: 0000000040260fa0    64 FUNC    GLOBAL DEFAULT    4 accept4
  3257: 00000000405f8e68    24 OBJECT  WEAK   DEFAULT    9 _ZTIN3mmu15jvm_balloon_vmaE
  3258: 00000000407fb408    32 OBJECT  WEAK   DEFAULT   21 _ZTIPw
  3259: 00000000404dd620    55 FUNC    WEAK   DEFAULT    4 _ZNSt13basic_ostreamIwSt11char_traitsIwEED0Ev
  3260: 000000004048a180    18 FUNC    GLOBAL DEFAULT    4 _ZNKSt5ctypeIwE10do_toupperEw
  3261: 00000000407faff8    32 OBJECT  WEAK   DEFAULT   21 _ZTIPx
  3262: 0000000040668e04     1 OBJECT  GLOBAL DEFAULT    9 _ZNSt14numeric_limitsIeE8is_exactE
  3263: 00000000404ee830   103 FUNC    WEAK   DEFAULT    4 _ZNSt15basic_streambufIwSt11char_traitsIwEE6stosscEv
  3264: 00000000407fafa8    32 OBJECT  WEAK   DEFAULT   21 _ZTIPy
  3265: 00000000403be170   119 FUNC    GLOBAL DEFAULT    4 _ZN5async17serial_timer_task10rescheduleENSt6chrono8durationIlSt5ratioILl1ELl1000000000EEEE
  3266: 0000000040662110    25 OBJECT  WEAK   DEFAULT    9 _ZTSSt20bad_array_new_length
  3267: 00000000402ea7a0   139 FUNC    GLOBAL DEFAULT    4 _ZN2hw14driver_managerD2Ev
  3268: 0000000040601ac0    56 OBJECT  WEAK   DEFAULT    9 _ZTVN6virtio3netE
  3269: 00000000403355f0    80 FUNC    WEAK   DEFAULT    4 _Z14unaligned_copyILj2ELj3EEvPvPKvm
  3270: 00000000403320a0   894 FUNC    WEAK   DEFAULT    4 _Z13do_sse_memcpyILj59E14load_unaligned15store_unalignedEvPvPKv
  3271: 00000000404c65d0   346 FUNC    WEAK   DEFAULT    4 _ZNSt13basic_istreamIwSt11char_traitsIwEE3getEv
  3272: 00000000403fafa0     7 FUNC    GLOBAL DEFAULT    4 pthread_mutexattr_destroy
  3273: 00000000403b4a80  1355 FUNC    WEAK   DEFAULT    4 _ZN10epoll_file4waitEP11epoll_eventii
  3274: 0000000040274910   326 FUNC    GLOBAL DEFAULT    4 _Z10rt_setgateP7rtentryP12bsd_sockaddrS2_
  3275: 0000000040668ef5     1 OBJECT  GLOBAL DEFAULT    9 _ZNSt14numeric_limitsInE10is_integerE
  3276: 00000000404892b0   808 FUNC    WEAK   DEFAULT    4 _ZStrsIwSt11char_traitsIwESaIwEERSt13basic_istreamIT_T0_ES7_RSbIS4_S5_T1_E
  3277: 000000004053e9f0   128 FUNC    WEAK   DEFAULT    4 _ZNSt10filesystem7__cxx114path5_List5clearEv
  3278: 0000000040488bf0    27 FUNC    WEAK   DEFAULT    4 _ZNSbIwSt11char_traitsIwESaIwEEC2IN9__gnu_cxx17__normal_iteratorIPwS2_EEEET_S8_RKS1_
  3279: 00000000404cc8f0    79 FUNC    WEAK   DEFAULT    4 _ZNSt7collateIcEC1Em
  3280: 00000000404c4970    30 FUNC    WEAK   DEFAULT    4 _ZStrsISt11char_traitsIcEERSt13basic_istreamIcT_ES5_Pa
  3281: 0000000040549510   131 FUNC    WEAK   DEFAULT    4 _ZNSt7__cxx1115basic_stringbufIcSt11char_traitsIcESaIcEEC2EOS4_RKS3_ONS4_14__xfer_bufptrsE
  3282: 00000000402be1e0  3210 FUNC    GLOBAL DEFAULT    4 _Z11ena_cleanupP7ena_que
  3283: 00000000407ff990    80 OBJECT  WEAK   DEFAULT   21 _ZTVSt14basic_ofstreamIwSt11char_traitsIwEE
  3284: 000000004036a370    76 FUNC    GLOBAL DEFAULT    4 _ZN9semaphore7trywaitEj
  3285: 0000000040533860   102 FUNC    GLOBAL DEFAULT    4 _ZNSt10filesystem6removeERKNS_7__cxx114pathE
  3286: 0000000040353860    74 FUNC    GLOBAL DEFAULT    4 AcpiTbDeleteTable
  3287: 0000000040668140    34 OBJECT  WEAK   DEFAULT    9 _ZTSNSt13__future_base12_Result_baseE
  3288: 00000000404c4950    30 FUNC    WEAK   DEFAULT    4 _ZStrsISt11char_traitsIcEERSt13basic_istreamIcT_ES5_Ph
  3289: 0000000040807148     8 OBJECT  GLOBAL DEFAULT   22 sb_max
  3290: 0000000040307960   127 FUNC    GLOBAL DEFAULT    4 _ZN3vmw15vmxnet3_rxqueue5inputEPNS_19vmxnet3_rx_compdescEP4mbuf
  3291: 0000000040467af0    22 FUNC    GLOBAL DEFAULT    4 _ZNSt15underflow_errorD0Ev
  3292: 000000004048ae80    38 FUNC    GLOBAL DEFAULT    4 _ZNSt8ios_base7failureB5cxx11C1EPKcRKSt10error_code
  3293: 00000000402e69a0    26 FUNC    GLOBAL DEFAULT    4 _ZN6zfsdev10zfs_deviceD1Ev
  3294: 0000000040488070   176 FUNC    WEAK   DEFAULT    4 _ZNSbIwSt11char_traitsIwESaIwEE6appendERKS2_
  3295: 00000000404c2370    50 FUNC    WEAK   DEFAULT    4 _ZNSt13basic_istreamIwSt11char_traitsIwEED1Ev
  3296: 00000000403471d0   163 FUNC    GLOBAL DEFAULT    4 AcpiUtMutexInitialize
  3297: 000000004046bec0    13 FUNC    WEAK   DEFAULT    4 _ZNSt8valarrayImEixEm
  3298: 0000000040533550   102 FUNC    GLOBAL DEFAULT    4 _ZNSt10filesystem15last_write_timeERKNS_7__cxx114pathE
  3299: 0000000040326960   177 FUNC    WEAK   DEFAULT    4 _Z13do_sse_memcpyILj14E14load_unaligned15store_unalignedEvPvPKv
  3300: 0000000040485c50    15 FUNC    WEAK   DEFAULT    4 _ZNSs7replaceEN9__gnu_cxx17__normal_iteratorIPcSsEES2_PKcm
  3301: 00000000404c12c0    78 FUNC    WEAK   DEFAULT    4 _ZTv0_n24_NSt14basic_iostreamIwSt11char_traitsIwEED0Ev
  3302: 000000004066981d     1 OBJECT  GLOBAL DEFAULT    9 _ZNSt12placeholders2_7E
  3303: 00000000407fbf08    40 OBJECT  WEAK   DEFAULT   21 _ZTVSt14overflow_error
  3304: 00000000404bba40   491 FUNC    WEAK   DEFAULT    4 _ZNSt13basic_filebufIwSt11char_traitsIwEEaSEOS2_
  3305: 00000000403c88e0   151 FUNC    GLOBAL DEFAULT    4 _ZN7options20extract_option_valueERSt3mapINSt7__cxx1112basic_stringIcSt11char_traitsIcESaIcEEESt6vectorIS6_SaIS6_EESt4lessIS6_ESaISt4pairIKS6_S9_EEERSD_
  3306: 00000000402c4780    97 FUNC    GLOBAL DEFAULT    4 _ZN3mmu8file_vmaD1Ev
  3307: 00000000403461d0   517 FUNC    GLOBAL DEFAULT    4 AcpiUtUpdateObjectReference
  3308: 00000000403221b0   108 FUNC    GLOBAL DEFAULT    4 _ZN18gsi_edge_interruptD0Ev
  3309: 0000000040664f80    47 OBJECT  WEAK   DEFAULT    9 _ZTSSt23__codecvt_abstract_baseIDiDu11__mbstate_tE
  3310: 000000004023dbb0    76 FUNC    WEAK   DEFAULT    4 _ZThn32_N5boost10wrapexceptINS_2io13too_many_argsEED1Ev
  3311: 00000000406064e0    25 OBJECT  WEAK   DEFAULT    9 _ZTSN3mmu16virt_pte_visitorE
  3312: 0000000040255c80    70 FUNC    GLOBAL DEFAULT    4 _ZN14sockbuf_iolock4lockERN8lockfree5mutexE
  3313: 000000004039b6b0   125 FUNC    WEAK   DEFAULT    4 _ZNSt13unordered_setISt5tupleIJPKSt9type_infomEESt4hashIS4_ESt8equal_toIS4_ESaIS4_EED1Ev
  3314: 0000000040407a10   195 FUNC    GLOBAL DEFAULT    4 wcwidth
  3315: 000000004048c070   217 FUNC    WEAK   DEFAULT    4 _ZNKSt7__cxx1110moneypunctIcLb0EE16do_positive_signEv
  3316: 00000000402e1f10    16 FUNC    WEAK   DEFAULT    4 _ZN3elf12memory_imageD2Ev
  3317: 00000000405f9638    72 OBJECT  WEAK   DEFAULT    9 _ZTVN3mmu8file_vmaE
  3318: 00000000403ce020   446 FUNC    GLOBAL DEFAULT    4 link
  3319: 000000004041c5d0    49 FUNC    GLOBAL DEFAULT    4 l64a
  3320: 00000000404c9260    23 FUNC    WEAK   DEFAULT    4 _ZNSt9money_getIcSt19istreambuf_iteratorIcSt11char_traitsIcEEED2Ev
  3321: 0000000040669a80    60 OBJECT  WEAK   DEFAULT    9 _ZTSNSt7__cxx1119basic_ostringstreamIcSt11char_traitsIcESaIcEEE
  3322: 0000000040394bf0   320 FUNC    WEAK   DEFAULT    4 _ZN5sched3cpuD1Ev
  3323: 0000000040373a60   536 FUNC    WEAK   DEFAULT    4 _ZNR5boost7variantIDnJN3mmu7hw_ptepILi0EEESt10unique_ptrISt13unordered_setIS3_St4hashIS3_ESt8equal_toIS3_ESaIS3_EESt14default_deleteISB_EEEE13apply_visitorIN9pagecache11cached_page11ptep_removeEEENT_11result_typeERSK_
  3324: 0000000040405d60   125 FUNC    WEAK   DEFAULT    4 _ZNSt13unordered_mapIPKviSt4hashIS1_ESt8equal_toIS1_ESaISt4pairIKS1_iEEED2Ev
  3325: 000000004048a880    23 FUNC    GLOBAL DEFAULT    4 _ZNSt8ios_base7failureB5cxx11D2Ev
  3326: 00000000403fbf00     7 FUNC    WEAK   DEFAULT    4 setrlimit64
  3327: 0000000040608c60    80 OBJECT  GLOBAL DEFAULT    9 AcpiRsConvertSpiSerialBus
  3328: 0000000040421be0   335 FUNC    GLOBAL DEFAULT    4 getservbyname_r
  3329: 0000000040604e68    24 OBJECT  WEAK   DEFAULT    9 _ZTIN5boost7numeric16bad_numeric_castE
  3330: 0000000040668d40     4 OBJECT  GLOBAL DEFAULT    9 _ZNSt14numeric_limitsIDiE12max_exponentE
  3331: 00000000402547b0   162 FUNC    GLOBAL DEFAULT    4 m_tag_delete
  3332: 0000000040358dd0   124 FUNC    GLOBAL DEFAULT    4 AcpiAcquireGlobalLock
  3333: 00000000404abb50    30 FUNC    WEAK   DEFAULT    4 _ZNSt15time_put_bynameIwSt19ostreambuf_iteratorIwSt11char_traitsIwEEEC2ERKNSt7__cxx1112basic_stringIcS1_IcESaIcEEEm
  3334: 0000000040395210   451 FUNC    WEAK   DEFAULT    4 _ZNSt6vectorIPcSaIS0_EE17_M_default_appendEm
  3335: 000000004044c660    12 FUNC    GLOBAL DEFAULT    4 _ZNKSt9exception4whatEv
  3336: 00000000402c16a0   434 FUNC    GLOBAL DEFAULT    4 _Z10ena_detachP11ena_adapter
  3337: 000000004051ee10   301 FUNC    GLOBAL DEFAULT    4 _ZNSt10filesystem4path17replace_extensionERKS0_
  3338: 00000000403edf60    38 FUNC    GLOBAL DEFAULT    4 gethostbyname_r
  3339: 00000000403cbea0   271 FUNC    GLOBAL DEFAULT    4 close
  3340: 0000000040918248     4 OBJECT  GLOBAL DEFAULT   52 ipport_reservedlow
  3341: 00000000403be320    90 FUNC    GLOBAL DEFAULT    4 _ZN5async17serial_timer_task8can_fireEv
  3342: 000000004044d390    12 FUNC    WEAK   DEFAULT    4 _ZNSt15__exception_ptr13exception_ptrC1Ev
  3343: 00000000405f2038    24 OBJECT  WEAK   DEFAULT    9 _ZTISt5_BindIFPFvP13syncache_headRN5async17serial_timer_taskEES1_St12_PlaceholderILi1EEEE
  3344: 000000004039bf10    49 FUNC    WEAK   DEFAULT    4 _ZNSt17_Function_handlerIFbcENSt8__detail12_CharMatcherINSt7__cxx1112regex_traitsIcEELb1ELb0EEEE9_M_invokeERKSt9_Any_dataOc
  3345: 000000004048b360    41 FUNC    WEAK   DEFAULT    4 _ZNSt7__cxx117collateIcED2Ev
  3346: 0000000040460020    23 FUNC    WEAK   DEFAULT    4 _ZNSt7__cxx1112basic_stringIwSt11char_traitsIwESaIwEE7replaceEN9__gnu_cxx17__normal_iteratorIPwS4_EES8_mw
  3347: 0000000040668e9c     4 OBJECT  GLOBAL DEFAULT    9 _ZNSt14numeric_limitsIoE10has_denormE
  3348: 00000000405f8f10    24 OBJECT  WEAK   DEFAULT    9 _ZTIN3mmu37uninitialized_anonymous_page_providerE
  3349: 000000004032bc20   497 FUNC    WEAK   DEFAULT    4 _Z13do_sse_memcpyILj34E12load_aligned13store_alignedEvPvPKv
  3350: 00000000404674c0     9 FUNC    WEAK   DEFAULT    4 _ZN9__gnu_cxx12__pool_allocIwE9constructEPwRKw
  3351: 00000000407ff3d0    24 OBJECT  WEAK   DEFAULT   21 _ZTISt14basic_ofstreamIwSt11char_traitsIwEE
  3352: 0000000040391880   269 FUNC    GLOBAL DEFAULT    4 _ZN5sched6thread9stop_waitEv
  3353: 000000004036b250   124 FUNC    GLOBAL DEFAULT    4 _ZN6logger3wrtEPKc17logger_severity_eS1_z
  3354: 00000000403946c0   135 FUNC    GLOBAL DEFAULT    4 _ZN5sched6thread23set_realtime_time_sliceENSt6chrono8durationIlSt5ratioILl1ELl1000000000EEEE
  3355: 00000000404c1630   246 FUNC    WEAK   DEFAULT    4 _ZNSdC1Ev
  3356: 0000000040603f80    26 OBJECT  WEAK   DEFAULT    9 _ZTSN5boost2io12too_few_argsE
  3357: 00000000402563c0    57 FUNC    GLOBAL DEFAULT    4 sbreserve_internal
  3358: 0000000040664820    24 OBJECT  WEAK   DEFAULT    9 _ZTSSt16__numpunct_cacheIwE
  3359: 0000000040416750   531 FUNC    GLOBAL DEFAULT    4 log1p
  3360: 000000004066981c     1 OBJECT  GLOBAL DEFAULT    9 _ZNSt12placeholders2_8E
  3361: 0000000040441790    23 FUNC    GLOBAL DEFAULT    4 _ZN10__cxxabiv117__array_type_infoD1Ev
  3362: 0000000040914040    24 OBJECT  GLOBAL DEFAULT   52 opt_mount_fs
  3363: 0000000040414f00    14 FUNC    GLOBAL DEFAULT    4 lgammaf
  3364: 000000004054e0b0   147 FUNC    WEAK   DEFAULT    4 _ZNKRSt7__cxx1118basic_stringstreamIwSt11char_traitsIwESaIwEE3strEv
  3365: 000000004036e0c0   143 FUNC    WEAK   DEFAULT    4 _ZNSt17_Function_handlerIFvvEN3osv3rcu12cpu_notifierMUlvE_EE9_M_invokeERKSt9_Any_data
  3366: 0000000040604de0    24 OBJECT  WEAK   DEFAULT    9 _ZTIN5boost9gregorian8bad_yearE
  3367: 00000000404c92c0    23 FUNC    WEAK   DEFAULT    4 _ZNSt8time_putIcSt19ostreambuf_iteratorIcSt11char_traitsIcEEED1Ev
  3368: 0000000040405de0   179 FUNC    WEAK   DEFAULT    4 _ZNSt10_HashtableIPKvSt4pairIKS1_iESaIS4_ENSt8__detail10_Select1stESt8equal_toIS1_ESt4hashIS1_ENS6_18_Mod_range_hashingENS6_20_Default_ranged_hashENS6_20_Prime_rehash_policyENS6_17_Hashtable_traitsILb0ELb0ELb1EEEE5eraseENS6_20_Node_const_iteratorIS4_Lb0ELb0EEE
  3369: 000000004046f400     9 FUNC    GLOBAL DEFAULT    4 _ZNSt18condition_variable10notify_oneEv
  3370: 00000000404bec20    27 FUNC    GLOBAL DEFAULT    4 _ZNSt13__future_base12_Result_baseC2Ev
  3371: 00000000404f1380   180 FUNC    WEAK   DEFAULT    4 _ZNKSt7__cxx1112basic_stringIcSt11char_traitsIcESaIcEE7compareEmmRKS4_mm
  3372: 0000000040489bc0   133 FUNC    GLOBAL DEFAULT    4 _ZNSt12ctype_bynameIwEC2EPKcm
  3373: 000000004046c1d0     7 FUNC    GLOBAL DEFAULT    4 _ZNKSt7codecvtIDsc11__mbstate_tE11do_encodingEv
  3374: 00000000406137e0    64 OBJECT  WEAK   DEFAULT    9 _ZTSSt5_BindIFM14dynamic_percpuIN4prof11cpu_samplerELm8EEFvvEPS3_EE
  3375: 00000000403d3070   105 FUNC    GLOBAL DEFAULT    4 _ZN4fileC1Ej10filetype_tPv
  3376: 0000000040415e10    14 FUNC    GLOBAL DEFAULT    4 lgammal
  3377: 00000000404858a0    27 FUNC    WEAK   DEFAULT    4 _ZNSsC2IPcEET_S1_RKSaIcE
  3378: 0000000040321540   451 FUNC    WEAK   DEFAULT    4 _ZNSt6vectorIlSaIlEE17_M_default_appendEm
  3379: 000000004061c0b2     3 OBJECT  UNIQUE DEFAULT    9 _ZN16signature_helperIJPN5sched10timer_baseElEE3sigE
  3380: 00000000404a3f30  3590 FUNC    WEAK   DEFAULT    4 _ZNKSt7num_getIwSt19istreambuf_iteratorIwSt11char_traitsIwEEE14_M_extract_intB5cxx11ImEES3_S3_S3_RSt8ios_baseRSt12_Ios_IostateRT_
  3381: 0000000040334d20    11 FUNC    WEAK   DEFAULT    4 _Z13do_short_copyILj8EEvPvPKv
  3382: 000000004098cdb0     8 OBJECT  UNIQUE DEFAULT   52 _ZNSt8time_getIwSt19istreambuf_iteratorIwSt11char_traitsIwEEE2idE
  3383: 00000000403b2440    47 FUNC    GLOBAL DEFAULT    4 __poll_chk
  3384: 00000000405fae3a     2 OBJECT  UNIQUE DEFAULT    9 _ZN16signature_helperIJPKcEE3sigE
  3385: 000000004047ee00   548 FUNC    WEAK   DEFAULT    4 _ZNSt19basic_istringstreamIwSt11char_traitsIwESaIwEE4swapERS3_
  3386: 00000000404141b0   893 FUNC    GLOBAL DEFAULT    4 jnf
  3387: 000000004027dd80    13 FUNC    GLOBAL DEFAULT    4 ifa_ref
  3388: 00000000404c4920     9 FUNC    WEAK   DEFAULT    4 _ZStrsISt11char_traitsIcEERSt13basic_istreamIcT_ES5_Ra
  3389: 0000000040364b40   418 FUNC    GLOBAL DEFAULT    4 AcpiDsMethodDataGetValue
  3390: 00000000405ed870    16 OBJECT  WEAK   DEFAULT    9 _ZTIN3osv19rcu_dispose_deleterI12silly_rtableEE
  3391: 000000004098ab30     8 OBJECT  GLOBAL DEFAULT   52 _ZNSt6locale9_S_globalE
  3392: 00000000407ffd80    56 OBJECT  WEAK   DEFAULT   21 _ZTISd
  3393: 0000000040417080   289 FUNC    GLOBAL DEFAULT    4 log2f
  3394: 00000000404b8660    13 FUNC    WEAK   DEFAULT    4 _ZNSt13basic_fstreamIwSt11char_traitsIwEE7is_openEv
  3395: 0000000040441890    27 FUNC    GLOBAL DEFAULT    4 _ZNSt16bad_array_lengthD0Ev
  3396: 00000000403fbad0   150 FUNC    GLOBAL DEFAULT    4 pthread_barrier_init
  3397: 00000000404b2490     5 FUNC    GLOBAL DEFAULT    4 _ZNK11__gnu_debug16_Error_formatter13_M_print_wordEPKc
  3398: 000000004027f6f0   402 FUNC    GLOBAL DEFAULT    4 if_free_type
  3399: 00000000404acfb0   751 FUNC    WEAK   DEFAULT    4 _ZNKSt7__cxx118time_getIwSt19istreambuf_iteratorIwSt11char_traitsIwEEE16do_get_monthnameES4_S4_RSt8ios_baseRSt12_Ios_IostateP2tm
  3400: 00000000404ca100   567 FUNC    WEAK   DEFAULT    4 _ZNKSt7collateIcE12do_transformEPKcS2_
  3401: 000000004061ce90    40 OBJECT  WEAK   DEFAULT    9 _ZTVN5sched3cpuE
  3402: 00000000402d8eb0    81 FUNC    GLOBAL DEFAULT    4 _ZN3elf7program18do_lookup_functionEPKc
  3403: 00000000404c97f0    41 FUNC    WEAK   DEFAULT    4 _ZNSt14collate_bynameIcED2Ev
  3404: 0000000040271600   532 FUNC    GLOBAL DEFAULT    4 llentry_free
  3405: 0000000040484990    55 FUNC    WEAK   DEFAULT    4 _ZNSs4_Rep10_M_refcopyEv
  3406: 0000000040800090    40 OBJECT  WEAK   DEFAULT   21 _ZTISi
  3407: 00000000404c4910     9 FUNC    WEAK   DEFAULT    4 _ZStrsISt11char_traitsIcEERSt13basic_istreamIcT_ES5_Rh
  3408: 0000000040486350   118 FUNC    WEAK   DEFAULT    4 _ZNKSbIwSt11char_traitsIwESaIwEE4copyEPwmm
  3409: 00000000404171b0   457 FUNC    GLOBAL DEFAULT    4 log2l
  3410: 00000000403ce610   366 FUNC    WEAK   DEFAULT    4 __xstat64
  3411: 00000000405e1860    24 OBJECT  WEAK   DEFAULT    9 _ZTIN5boost2io18basic_altstringbufIcSt11char_traitsIcESaIcEEE
  3412: 000000004042bad0    39 FUNC    GLOBAL DEFAULT    4 strpbrk
  3413: 0000000040914da0   184 OBJECT  GLOBAL DEFAULT   52 nousrreqs
  3414: 00000000404bb6a0   281 FUNC    WEAK   DEFAULT    4 _ZNSt14basic_ifstreamIwSt11char_traitsIwEEC1Ev
  3415: 00000000404e0ab0   112 FUNC    WEAK   DEFAULT    4 _ZNSt13basic_ostreamIwSt11char_traitsIwEE6sentryD2Ev
  3416: 00000000409192c8     8 OBJECT  GLOBAL DEFAULT   52 in_ifaddrhmask
  3417: 00000000407fc530    24 OBJECT  WEAK   DEFAULT   21 _ZTISt19__codecvt_utf8_baseIDiE
  3418: 000000004032a060   433 FUNC    WEAK   DEFAULT    4 _Z13do_sse_memcpyILj30E12load_aligned13store_alignedEvPvPKv
  3419: 00000000403fd850   342 FUNC    GLOBAL DEFAULT    4 sigaction
  3420: 0000000040800b30    40 OBJECT  WEAK   DEFAULT   21 _ZTISo
  3421: 000000004066981b     1 OBJECT  GLOBAL DEFAULT    9 _ZNSt12placeholders2_9E
  3422: 00000000405e96d0    19 OBJECT  WEAK   DEFAULT    9 _ZTSN6memory8shrinkerE
  3423: 00000000403463e0    96 FUNC    GLOBAL DEFAULT    4 AcpiUtDeleteInternalObjectList
  3424: 00000000403f6fc0    23 FUNC    GLOBAL DEFAULT    4 __explicit_bzero_chk
  3425: 00000000404a6ae0    78 FUNC    WEAK   DEFAULT    4 _ZSt9has_facetINSt7__cxx119money_getIwSt19istreambuf_iteratorIwSt11char_traitsIwEEEEEbRKSt6locale
  3426: 00000000403d3680     9 FUNC    GLOBAL DEFAULT    4 file_setoffset
  3427: 00000000404f14b0   153 FUNC    WEAK   DEFAULT    4 _ZNKSt7__cxx1112basic_stringIcSt11char_traitsIcESaIcEE7compareEmmPKc
  3428: 0000000040306e70   105 FUNC    GLOBAL DEFAULT    4 _ZN3vmw7vmxnet316parse_pci_configEv
  3429: 0000000040496c30   137 FUNC    WEAK   DEFAULT    4 _ZNKSt7__cxx118numpunctIcE8groupingEv
  3430: 00000000405f9d40    36 OBJECT  WEAK   DEFAULT    9 _ZTSN7console23isa_serial_console_baseE
  3431: 00000000403bc0b0   370 FUNC    GLOBAL DEFAULT    4 _ZN10classifier6removeE16ipv4_tcp_conn_id
  3432: 00000000404b6140    13 FUNC    WEAK   DEFAULT    4 _ZNSt14basic_ifstreamIcSt11char_traitsIcEE7is_openEv
  3433: 000000004046c750    23 FUNC    GLOBAL DEFAULT    4 _ZNSt25__codecvt_utf8_utf16_baseIDiED1Ev
  3434: 000000004050aaf0   156 FUNC    WEAK   DEFAULT    4 _ZNSt12__shared_ptrINSt10filesystem28recursive_directory_iterator10_Dir_stackELN9__gnu_cxx12_Lock_policyE2EE5resetEv
  3435: 00000000407fc430    24 OBJECT  WEAK   DEFAULT   21 _ZTISt7codecvtIDic11__mbstate_tE
  3436: 00000000402f4210    23 FUNC    GLOBAL DEFAULT    4 _ZN6virtio11mmio_device14get_queue_sizeEv
  3437: 000000004098c780     8 OBJECT  UNIQUE DEFAULT   52 _ZNSt7__cxx118time_getIcSt19istreambuf_iteratorIcSt11char_traitsIcEEE2idE
  3438: 000000004030db60    25 FUNC    GLOBAL DEFAULT    4 _ZN3rtcC2Ev
  3439: 000000004034b300   351 FUNC    GLOBAL DEFAULT    4 AcpiHwSetMode
  3440: 0000000040259840  1366 FUNC    GLOBAL DEFAULT    4 sosend_generic
  3441: 00000000404c9370    36 FUNC    WEAK   DEFAULT    4 _ZNSt7num_putIcSt19ostreambuf_iteratorIcSt11char_traitsIcEEED0Ev
  3442: 00000000402af850   243 FUNC    GLOBAL DEFAULT    4 _Z15xenbus_strstate12xenbus_state
  3443: 000000004025e910   129 FUNC    GLOBAL DEFAULT    4 sodupbsd_sockaddr
  3444: 00000000406211f8    24 OBJECT  WEAK   DEFAULT    9 _ZTISt17_Weak_result_typeIMN5async12async_workerEFvvEE
  3445: 0000000040374aa0   641 FUNC    GLOBAL DEFAULT    4 _ZN6memory17reclaimer_waiters12wake_waitersEv
  3446: 0000000040478e00   408 FUNC    WEAK   DEFAULT    4 _ZNSt15basic_stringbufIcSt11char_traitsIcESaIcEE4swapERS3_
  3447: 00000000405e19a8    24 OBJECT  WEAK   DEFAULT    9 _ZTIN5boost6system6detail12std_categoryE
  3448: 0000000040629f88    24 OBJECT  WEAK   DEFAULT    9 _ZTISt23_Sp_counted_ptr_inplaceIN8pseudofs19pseudo_symlink_nodeESaIS1_ELN9__gnu_cxx12_Lock_policyE2EE
  3449: 0000000040487e00    69 FUNC    WEAK   DEFAULT    4 _ZNSbIwSt11char_traitsIwESaIwEE6insertEmRKS2_mm
  3450: 0000000040273810   228 FUNC    GLOBAL DEFAULT    4 _Z7rn_initi
  3451: 000000004052ed20   156 FUNC    WEAK   DEFAULT    4 _ZNSt12__shared_ptrINSt10filesystem7__cxx114_DirELN9__gnu_cxx12_Lock_policyE2EE5resetEv
  3452: 00000000402aead0    12 FUNC    GLOBAL DEFAULT    4 xs_daemon_open
  3453: 00000000403262a0    66 FUNC    WEAK   DEFAULT    4 _Z13do_sse_memcpyILj7E14load_unaligned15store_unalignedEvPvPKv
  3454: 0000000040336470   112 FUNC    WEAK   DEFAULT    4 _Z14unaligned_copyILj4ELj12EEvPvPKvm
  3455: 0000000040336080   112 FUNC    WEAK   DEFAULT    4 _Z14unaligned_copyILj4ELj3EEvPvPKvm
  3456: 0000000040546950    12 FUNC    GLOBAL DEFAULT    4 _ZNSt3pmr20null_memory_resourceEv
  3457: 0000000040668e88     4 OBJECT  GLOBAL DEFAULT    9 _ZNSt14numeric_limitsIfE6digitsE
  3458: 000000004044e000    21 FUNC    WEAK   DEFAULT    4 _ZNK10__cxxabiv117__pbase_type_info15__pointer_catchEPKS0_PPvj
  3459: 0000000040331aa0   894 FUNC    WEAK   DEFAULT    4 _Z13do_sse_memcpyILj59E12load_aligned13store_alignedEvPvPKv
  3460: 00000000404f2f90   227 FUNC    WEAK   DEFAULT    4 _ZNKSt8numpunctIwE11do_groupingEv
  3461: 000000004044d410    12 FUNC    GLOBAL DEFAULT    4 _ZNSt15__exception_ptr13exception_ptrC1EPv
  3462: 000000004023fb00   299 FUNC    WEAK   DEFAULT    4 _ZN5boost16exception_detail20copy_boost_exceptionEPNS_9exceptionEPKS1_
  3463: 000000004052eec0    42 FUNC    WEAK   DEFAULT    4 _ZNSt12__shared_ptrINSt10filesystem7__cxx1128recursive_directory_iterator10_Dir_stackELN9__gnu_cxx12_Lock_policyE2EEC2EOS6_
  3464: 00000000402bd510    11 FUNC    GLOBAL DEFAULT    4 ena_com_get_nonadaptive_moderation_interval_rx
  3465: 00000000404b2ad0    29 FUNC    WEAK   DEFAULT    4 _ZN9__gnu_cxx13stdio_filebufIcSt11char_traitsIcEEC1Ev
  3466: 000000004046c6f0    23 FUNC    GLOBAL DEFAULT    4 _ZNSt7codecvtIDic11__mbstate_tED2Ev
  3467: 000000004050a900    25 FUNC    WEAK   DEFAULT    4 _ZNKSt12__shared_ptrINSt10filesystem4_DirELN9__gnu_cxx12_Lock_policyE2EE6uniqueEv
  3468: 00000000404ccbb0   743 FUNC    WEAK   DEFAULT    4 _ZNKSt8time_putIcSt19ostreambuf_iteratorIcSt11char_traitsIcEEE3putES3_RSt8ios_basecPK2tmPKcSB_
  3469: 00000000402a7330   284 FUNC    GLOBAL DEFAULT    4 tcp_twcheck
  3470: 0000000040308d70    85 FUNC    WEAK   DEFAULT    4 _ZThn32_N5boost10wrapexceptINS_2io12too_few_argsEED0Ev
  3471: 00000000404f5b30    30 FUNC    WEAK   DEFAULT    4 _ZNSt8time_getIwSt19istreambuf_iteratorIwSt11char_traitsIwEEEC2Em
  3472: 00000000403f1f00   129 FUNC    GLOBAL DEFAULT    4 __snprintf_chk
  3473: 00000000404f2cb0    94 FUNC    WEAK   DEFAULT    4 _ZNSt11__timepunctIwED2Ev
  3474: 00000000402d43a0   170 FUNC    GLOBAL DEFAULT    4 _ZN7console14LineDisciplineC1EPK7termios
  3475: 000000004048a450    16 FUNC    GLOBAL DEFAULT    4 _ZNKSt5ctypeIwE8do_widenEc
  3476: 00000000403cc6d0   143 FUNC    GLOBAL DEFAULT    4 preadv
  3477: 000000004033de30   225 FUNC    WEAK   DEFAULT    4 _Z14unaligned_copyILj9ELj8EEvPvPKvm
  3478: 0000000040306a30   296 FUNC    GLOBAL DEFAULT    4 _ZN3vmw15vmxnet3_rxqueue4initEP5ifnetPN3pci3barE
  3479: 0000000000000010     4 TLS     GLOBAL DEFAULT   51 _ZN5sched15exception_depthE
  3480: 0000000040916f20     8 OBJECT  GLOBAL DEFAULT   52 vlan_cookie_p
  3481: 0000000040669124     4 OBJECT  GLOBAL DEFAULT    9 _ZNSt14numeric_limitsIhE11round_styleE
  3482: 0000000040664958    15 OBJECT  WEAK   DEFAULT    9 _ZTSSt10istrstream
  3483: 00000000406116a0    68 OBJECT  WEAK   DEFAULT    9 _ZTSSt24_Weak_result_type_memfunIMN9pagecache14access_scannerEFvvELb1EE
  3484: 00000000404e00d0    32 FUNC    WEAK   DEFAULT    4 _ZNSt13basic_ostreamIwSt11char_traitsIwEEC2EPSt15basic_streambufIwS1_E
  3485: 0000000040339580   253 FUNC    WEAK   DEFAULT    4 _Z14unaligned_copyILj10ELj8EEvPvPKvm
  3486: 00000000404a0700    23 FUNC    WEAK   DEFAULT    4 _ZNSt7__cxx119money_getIwSt19istreambuf_iteratorIwSt11char_traitsIwEEED2Ev
  3487: 0000000040489680    56 FUNC    GLOBAL DEFAULT    4 _ZNSt5ctypeIwED2Ev
  3488: 00000000403fb2d0   160 FUNC    GLOBAL DEFAULT    4 sched_getaffinity
  3489: 00000000404f8440    78 FUNC    WEAK   DEFAULT    4 _ZSt9has_facetISt8time_getIwSt19istreambuf_iteratorIwSt11char_traitsIwEEEEbRKSt6locale
  3490: 00000000404572f0   153 FUNC    GLOBAL DEFAULT    4 _ZNSt8ios_base7failureD2Ev
  3491: 0000000040450760    17 FUNC    WEAK   DEFAULT    4 _ZN9__gnu_cxx8__detail13__mini_vectorIPmE8allocateEm
  3492: 000000004027f480   198 FUNC    GLOBAL DEFAULT    4 if_register_com_alloc
  3493: 0000000040483a30    12 FUNC    WEAK   DEFAULT    4 _ZNSs4_Rep13_M_set_leakedEv
  3494: 0000000040308980    11 FUNC    WEAK   DEFAULT    4 _ZN5boost2io6detail13call_put_lastIcSt11char_traitsIcEjEEvRSt13basic_ostreamIT_T0_EPKv
  3495: 00000000404a0b70    49 FUNC    WEAK   DEFAULT    4 _ZNSt7__cxx117collateIwED0Ev
  3496: 000000004027dd90    85 FUNC    GLOBAL DEFAULT    4 ifa_free
  3497: 00000000403255e0   156 FUNC    GLOBAL DEFAULT    4 memcpy_backwards
  3498: 000000004080a9c0   232 OBJECT  GLOBAL DEFAULT   22 AcpiGbl_ExceptionNames_Env
  3499: 0000000040540700    20 FUNC    WEAK   DEFAULT    4 _ZNSt12__shared_ptrIKNSt10filesystem7__cxx1116filesystem_error5_ImplELN9__gnu_cxx12_Lock_policyE2EEC2EDn
  3500: 0000000040669c00    41 OBJECT  WEAK   DEFAULT    9 _ZTSSt15basic_streambufIcSt11char_traitsIcEE
  3501: 0000000040482ef0    12 FUNC    WEAK   DEFAULT    4 _ZNKSs4sizeEv
  3502: 000000004036efd0  3938 FUNC    GLOBAL DEFAULT    4 _ZN9pagecache3getEP8vfs_filelN3mmu7hw_ptepILi0EEENS2_10pt_elementILi0EEEbb
  3503: 0000000040608c00    88 OBJECT  GLOBAL DEFAULT    9 AcpiRsConvertUartSerialBus
  3504: 00000000404f8ea0  1809 FUNC    WEAK   DEFAULT    4 _ZNKSt9money_putIwSt19ostreambuf_iteratorIwSt11char_traitsIwEEE9_M_insertILb0EEES3_S3_RSt8ios_basewRKSbIwS2_SaIwEE
  3505: 00000000403d6ca0   116 FUNC    GLOBAL DEFAULT    4 vn_setmode
  3506: 00000000402d7c20   238 FUNC    GLOBAL DEFAULT    4 _ZN3elf13init_dyn_tabs6lookupEj
  3507: 00000000403f0f00   128 FUNC    GLOBAL DEFAULT    4 setstate
  3508: 00000000403b6880     9 FUNC    GLOBAL DEFAULT    4 _ZN4dhcp9dhcp_mbuf3getEv
  3509: 00000000407fa9a0    88 OBJECT  WEAK   DEFAULT   21 _ZTVN10__cxxabiv117__class_type_infoE
  3510: 00000000405e98c0   102 OBJECT  WEAK   DEFAULT    9 _ZTSSt24_Weak_result_type_memfunIM14dynamic_percpuI19autoconstructed_ptrIN8uma_zone5cacheEELm8EEFvvELb1EE
  3511: 000000004046c870    22 FUNC    GLOBAL DEFAULT    4 _ZNSt20__codecvt_utf16_baseIDiED0Ev
  3512: 000000004033aad0   144 FUNC    WEAK   DEFAULT    4 _Z14unaligned_copyILj6ELj13EEvPvPKvm
  3513: 0000000040284680    14 FUNC    GLOBAL DEFAULT    4 in_ifscrub
  3514: 0000000040662062     1 OBJECT  GLOBAL DEFAULT    9 _ZNSt6chrono12system_clock9is_steadyE
  3515: 0000000040669154     4 OBJECT  GLOBAL DEFAULT    9 _ZNSt14numeric_limitsIhE8digits10E
  3516: 00000000403615b0   160 FUNC    GLOBAL DEFAULT    4 AcpiNsInternalizeName
  3517: 00000000402f5680   680 FUNC    GLOBAL DEFAULT    4 _ZN4nvme6driver13msix_registerEjSt8functionIFvvEEPN5sched6threadEb
  3518: 000000004030e270    76 FUNC    WEAK   DEFAULT    4 _ZThn8_N5boost10wrapexceptINS_9gregorian8bad_yearEED1Ev
  3519: 0000000040285520   140 FUNC    GLOBAL DEFAULT    4 in_pcbinfo_destroy
  3520: 0000000040497000    30 FUNC    WEAK   DEFAULT    4 _ZNSt7__cxx118time_getIcSt19istreambuf_iteratorIcSt11char_traitsIcEEEC2Em
  3521: 00000000403d6db0    10 FUNC    GLOBAL DEFAULT    4 vop_erofs
  3522: 00000000402af810    54 FUNC    WEAK   DEFAULT    4 _ZN8xs_softcD1Ev
  3523: 0000000040532b30    78 FUNC    GLOBAL DEFAULT    4 _ZNSt10filesystem12current_pathERKNS_7__cxx114pathERSt10error_code
  3524: 00000000409194a0     4 OBJECT  GLOBAL DEFAULT   52 ip_do_randomid
  3525: 000000004037c650    32 FUNC    WEAK   DEFAULT    4 _ZNSt17_Function_handlerIFvvESt5_BindIFM14dynamic_percpuIN4prof11cpu_samplerELm8EEFvvEPS5_EEE9_M_invokeERKSt9_Any_data
  3526: 00000000405fb918   152 OBJECT  WEAK   DEFAULT    9 _ZTVN3pci8functionE
  3527: 000000004094148e     1 OBJECT  GLOBAL DEFAULT   52 AcpiGbl_CopyDsdtLocally
  3528: 000000004038d080    49 FUNC    GLOBAL DEFAULT    4 _ZN5sched6thread18free_syscall_stackEv
  3529: 00000000402f0550    33 FUNC    GLOBAL DEFAULT    4 _ZN7console10VGAConsole11input_readyEv
  3530: 00000000402cf420   536 FUNC    WEAK   DEFAULT    4 _ZN3mmu9map_levelINS_8populateILNS_11account_optE1EEELi1EEclENS_7hw_ptepILi1EEEm
  3531: 0000000040373090   283 FUNC    WEAK   DEFAULT    4 _ZN9pagecache17cached_page_writeD0Ev
  3532: 000000004023d430    13 FUNC    WEAK   DEFAULT    4 _ZNSt3mapIPKN5boost6system14error_categoryESt10unique_ptrINS1_6detail12std_categoryESt14default_deleteIS7_EENS6_12cat_ptr_lessESaISt4pairIKS4_SA_EEED2Ev
  3533: 00000000407fd9d0   120 OBJECT  WEAK   DEFAULT   21 _ZTVSt18basic_stringstreamIwSt11char_traitsIwESaIwEE
  3534: 000000004037abb0  1006 FUNC    WEAK   DEFAULT    4 _ZN6memory20page_range_allocator5allocILb0EEEPNS_10page_rangeEmb
  3535: 00000000403d5510    91 FUNC    GLOBAL DEFAULT    4 sys_sync
  3536: 00000000404e3760    24 FUNC    GLOBAL DEFAULT    4 _ZNSt12__sso_stringC1Ev
  3537: 0000000040255cd0    37 FUNC    GLOBAL DEFAULT    4 _ZN14sockbuf_iolock8try_lockERN8lockfree5mutexE
  3538: 0000000040669a00    56 OBJECT  WEAK   DEFAULT    9 _ZTSNSt7__cxx1115basic_stringbufIcSt11char_traitsIcESaIcEEE
  3539: 0000000040801df0   104 OBJECT  WEAK   DEFAULT   21 _ZTVSt10moneypunctIwLb0EE
  3540: 00000000402649b0    10 FUNC    GLOBAL DEFAULT    4 _ZN11socket_file8truncateEl
  3541: 0000000040468210    21 FUNC    GLOBAL DEFAULT    4 _ZNKSt12strstreambuf6pcountEv
  3542: 00000000404f3d70    30 FUNC    WEAK   DEFAULT    4 _ZNSt7num_getIwSt19istreambuf_iteratorIwSt11char_traitsIwEEEC1Em
  3543: 000000004038fc00  1092 FUNC    GLOBAL DEFAULT    4 _ZN5sched6thread9setup_tcbEv
  3544: 0000000040240060   163 FUNC    WEAK   DEFAULT    4 _ZNSt16_Sp_counted_baseILN9__gnu_cxx12_Lock_policyE2EE10_M_releaseEv
  3545: 0000000040601eaa     2 OBJECT  UNIQUE DEFAULT    9 _ZN16signature_helperIJP3bioEE3sigE
  3546: 000000004036e630    51 FUNC    GLOBAL DEFAULT    4 start_pagecache_access_scanner
  3547: 0000000040356f30   280 FUNC    GLOBAL DEFAULT    4 AcpiPsNextParseState
  3548: 0000000040259da0  1123 FUNC    GLOBAL DEFAULT    4 zsend
  3549: 000000004031f390    25 FUNC    GLOBAL DEFAULT    4 invalid_opcode
  3550: 00000000402c1860  4337 FUNC    GLOBAL DEFAULT    4 _Z6ena_upP11ena_adapter
  3551: 000000004066903d     1 OBJECT  GLOBAL DEFAULT    9 _ZNSt14numeric_limitsIiE15has_denorm_lossE
  3552: 0000000040244e70  2532 FUNC    WEAK   DEFAULT    4 _ZN5boost12basic_formatIcSt11char_traitsIcESaIcEEC2EPKc
  3553: 000000004045a7e0   146 FUNC    GLOBAL DEFAULT    4 _ZNSt9__cxx199815_List_node_base4swapERS0_S1_
  3554: 00000000404f2f50    49 FUNC    WEAK   DEFAULT    4 _ZNSt14collate_bynameIwED0Ev
  3555: 00000000403da170   186 FUNC    GLOBAL DEFAULT    4 _ZN8vfs_file5writeEP3uioi
  3556: 0000000040334df0    32 FUNC    WEAK   DEFAULT    4 _Z13do_short_copyILj15EEvPvPKv
  3557: 0000000040469140   143 FUNC    GLOBAL DEFAULT    4 _ZNSt10istrstreamC2EPcl
  3558: 0000000040302970    12 FUNC    WEAK   DEFAULT    4 _ZN5boost2io6detail13call_put_lastIcSt11char_traitsIcEKtEEvRSt13basic_ostreamIT_T0_EPKv
  3559: 000000004049e380   543 FUNC    WEAK   DEFAULT    4 _ZNSt13__facet_shims23__moneypunct_fill_cacheIcLb0EEEvSt17integral_constantIbLb1EEPKNSt6locale5facetEPSt18__moneypunct_cacheIT_XT0_EE
  3560: 000000004050b6b0    47 FUNC    GLOBAL DEFAULT    4 _ZNKSt10filesystem28recursive_directory_iteratordeEv
  3561: 00000000403088c0     7 FUNC    WEAK   DEFAULT    4 _ZNSt17_Function_handlerIFbvEZN3vmw15vmxnet3_txqueueC4EvEUlvE_E9_M_invokeERKSt9_Any_data
  3562: 0000000040522180   558 FUNC    GLOBAL DEFAULT    4 _ZNSt10filesystem16filesystem_errorC2ERKSsRKNS_4pathES5_St10error_code
  3563: 0000000040665660    46 OBJECT  WEAK   DEFAULT    9 _ZTSSt15basic_stringbufIcSt11char_traitsIcESaIcEE
  3564: 00000000403a2620   286 FUNC    WEAK   DEFAULT    4 _ZNKSt8__detail9_ExecutorIN9__gnu_cxx17__normal_iteratorIPKcNSt7__cxx1112basic_stringIcSt11char_traitsIcESaIcEEEEESaINS5_9sub_matchISB_EEENS5_12regex_traitsIcEELb0EE16_M_word_boundaryEv
  3565: 0000000040467a30    22 FUNC    GLOBAL DEFAULT    4 _ZNSt13runtime_errorD0Ev
  3566: 00000000402710e0   134 FUNC    GLOBAL DEFAULT    4 ether_demux
  3567: 000000004045fef0    83 FUNC    WEAK   DEFAULT    4 _ZNSt7__cxx1112basic_stringIwSt11char_traitsIwESaIwEE7replaceEN9__gnu_cxx17__normal_iteratorIPwS4_EES8_RKS4_
  3568: 00000000404ddda0   239 FUNC    WEAK   DEFAULT    4 _ZNSoC1EOSo
  3569: 0000000040608d60    30 OBJECT  GLOBAL DEFAULT    9 AcpiGbl_ResourceStructSizes
  3570: 000000004044bdd0     9 FUNC    GLOBAL DEFAULT    4 _ZdaPvSt11align_val_t
  3571: 000000004047bd70     9 FUNC    WEAK   DEFAULT    4 _ZNKSt19basic_ostringstreamIcSt11char_traitsIcESaIcEE5rdbufEv
  3572: 000000004044c4e0   108 FUNC    GLOBAL DEFAULT    4 __cxa_begin_catch
  3573: 00000000405f9ba0    17 OBJECT  WEAK   DEFAULT    9 _ZTS14pv_based_clock
  3574: 000000004042edf0    45 FUNC    GLOBAL DEFAULT    4 time
  3575: 00000000404c2590    27 FUNC    WEAK   DEFAULT    4 _ZNSirsEPFRSt9basic_iosIcSt11char_traitsIcEES3_E
  3576: 00000000404eecb0    19 FUNC    WEAK   DEFAULT    4 _ZNKSt7__cxx1112basic_stringIcSt11char_traitsIcESaIcEE8_M_limitEmm
  3577: 0000000040611d60    35 OBJECT  WEAK   DEFAULT    9 _ZTSN5boost10wrapexceptINS_7bad_getEEE
  3578: 0000000040314ad0   108 FUNC    WEAK   DEFAULT    4 _ZN3vmw6pvscsi14alloc_scsi_reqEP3biotth
  3579: 000000004034f800  1805 FUNC    GLOBAL DEFAULT    4 AcpiExResolveOperands
  3580: 0000000040668fc0     1 OBJECT  GLOBAL DEFAULT    9 _ZNSt14numeric_limitsIlE15tinyness_beforeE
  3581: 00000000404cbd90   101 FUNC    WEAK   DEFAULT    4 _ZNSt11__timepunctIcEC1EPSt17__timepunct_cacheIcEm
  3582: 00000000402ea270   463 FUNC    GLOBAL DEFAULT    4 _ZN3pci8function11msix_enableEv
  3583: 00000000404c83a0   318 FUNC    WEAK   DEFAULT    4 _ZNSt13basic_istreamIwSt11char_traitsIwEE10_M_extractIjEERS2_RT_
  3584: 000000004026b220    22 FUNC    GLOBAL DEFAULT    4 pcpu_this
  3585: 0000000040488310     9 FUNC    WEAK   DEFAULT    4 _ZNSbIwSt11char_traitsIwESaIwEEpLESt16initializer_listIwE
  3586: 0000000040339e50   193 FUNC    WEAK   DEFAULT    4 _Z14unaligned_copyILj8ELj14EEvPvPKvm
  3587: 00000000404297d0    22 FUNC    GLOBAL DEFAULT    4 vscanf
  3588: 00000000404caec0    83 FUNC    WEAK   DEFAULT    4 _ZNSt10moneypunctIcLb1EEC2EPSt18__moneypunct_cacheIcLb1EEm
  3589: 00000000402bd500    11 FUNC    GLOBAL DEFAULT    4 ena_com_get_nonadaptive_moderation_interval_tx
  3590: 00000000403613a0   200 FUNC    GLOBAL DEFAULT    4 AcpiNsGetInternalNameLength
  3591: 000000004030ecc0   242 FUNC    WEAK   DEFAULT    4 _ZNK5boost10wrapexceptINS_9gregorian16bad_day_of_monthEE5cloneEv
  3592: 000000004044d490   107 FUNC    WEAK   DEFAULT    4 _ZNSt15__exception_ptr13exception_ptraSERKS0_
  3593: 0000000040452d10    18 FUNC    GLOBAL DEFAULT    4 _ZNKSt7codecvtIcc11__mbstate_tE9do_lengthERS0_PKcS4_m
  3594: 000000004047e180     5 FUNC    WEAK   DEFAULT    4 _ZNSt15basic_stringbufIwSt11char_traitsIwESaIwEE14__xfer_bufptrsC1ERKS3_PS3_
  3595: 000000004045ee40   374 FUNC    GLOBAL DEFAULT    4 _ZNKSt7__cxx118messagesIcE6do_getEiiiRKNS_12basic_stringIcSt11char_traitsIcESaIcEEE
  3596: 0000000040252fb0   737 FUNC    GLOBAL DEFAULT    4 m_defrag
  3597: 00000000405e9720    15 OBJECT  WEAK   DEFAULT    9 _ZTS12arc_shrinker
  3598: 0000000040668f0d     1 OBJECT  GLOBAL DEFAULT    9 _ZNSt14numeric_limitsIyE5trapsE
  3599: 00000000402494c0   132 FUNC    GLOBAL DEFAULT    4 sysctl
  3600: 0000000040452b70   325 FUNC    GLOBAL DEFAULT    4 _ZNSt8Catalogs6_M_addEPKcSt6locale
  3601: 00000000404b24c0     5 FUNC    WEAK   DEFAULT    4 _ZNK11__gnu_debug16_Error_formatter14_M_format_wordIPKvEEvPciPKcT_
  3602: 000000004033fe30   111 FUNC    GLOBAL DEFAULT    4 _ZN9processor6x2apic6enableEv
  3603: 0000000040919ea0   240 OBJECT  GLOBAL DEFAULT   52 udbinfo
  3604: 0000000040548c90    11 FUNC    WEAK   DEFAULT    4 _ZNSt7__cxx1112basic_stringIcSt11char_traitsIcESaIcEE17_S_to_string_viewESt17basic_string_viewIcS2_E
  3605: 000000004047cce0   425 FUNC    WEAK   DEFAULT    4 _ZNSt18basic_stringstreamIcSt11char_traitsIcESaIcEEC1EOS3_
  3606: 00000000403fc580   356 FUNC    GLOBAL DEFAULT    4 dl_iterate_phdr
  3607: 0000000040916140    96 OBJECT  GLOBAL DEFAULT   52 lltable_rwlock
  3608: 00000000407fae18    32 OBJECT  WEAK   DEFAULT   21 _ZTIPDd
  3609: 00000000407fadc8    32 OBJECT  WEAK   DEFAULT   21 _ZTIPDe
  3610: 0000000040802408    24 OBJECT  WEAK   DEFAULT   21 _ZTIZNSt10filesystem7__cxx114path10_S_convertIwEEDaPKT_S5_E5_UCvt
  3611: 00000000407fecc0    56 OBJECT  WEAK   DEFAULT   21 _ZTVNSt7__cxx117collateIwEE
  3612: 0000000040668c34     4 OBJECT  GLOBAL DEFAULT    9 _ZNSt8ios_base3begE
  3613: 00000000407fae68    32 OBJECT  WEAK   DEFAULT   21 _ZTIPDf
  3614: 00000000404c9c90   142 FUNC    WEAK   DEFAULT    4 _ZNKSt10moneypunctIcLb1EE14do_curr_symbolEv
  3615: 00000000403c64d0   136 FUNC    WEAK   DEFAULT    4 _ZNSt6thread11_State_implINS_8_InvokerISt5tupleIJPFiNSt7__cxx1112basic_stringIcSt11char_traitsIcESaIcEEESt6vectorIS8_SaIS8_EESt13unordered_mapIS8_S8_St4hashIS8_ESt8equal_toIS8_ESaISt4pairIKS8_S8_EEEPliP6waiterES8_SB_SL_SM_iSO_EEEEED2Ev
  3616: 00000000404be3d0    12 FUNC    GLOBAL DEFAULT    4 _ZNKSt17bad_function_call4whatEv
  3617: 000000004044c41a    53 FUNC    GLOBAL DEFAULT    4 __cxa_bad_typeid
  3618: 000000004039d7b0   412 FUNC    WEAK   DEFAULT    4 _ZNSt8__detail9_Map_baseIlSt4pairIKlSt8functionIFvRKS3_IFvRKN5trace6symbolEEEEEESaISE_ENS_10_Select1stESt8equal_toIlESt4hashIlENS_18_Mod_range_hashingENS_20_Default_ranged_hashENS_20_Prime_rehash_policyENS_17_Hashtable_traitsILb0ELb0ELb1EEELb1EEixERS2_
  3619: 00000000407fb318    32 OBJECT  WEAK   DEFAULT   21 _ZTIPDi
  3620: 0000000040261910   344 FUNC    GLOBAL DEFAULT    4 sbuf_uionew
  3621: 00000000404ab190    34 FUNC    WEAK   DEFAULT    4 _ZNKSt7__cxx1110moneypunctIwLb1EE11frac_digitsEv
  3622: 000000004050a2b0     5 FUNC    WEAK   DEFAULT    4 _ZNSt23_Sp_counted_ptr_inplaceINSt10filesystem4_DirESaIS1_ELN9__gnu_cxx12_Lock_policyE2EED2Ev
  3623: 00000000402713d0     9 FUNC    GLOBAL DEFAULT    4 ether_ifdetach
  3624: 000000004061e0b8    24 OBJECT  WEAK   DEFAULT    9 _ZTISt23_Sp_counted_ptr_inplaceINSt8__detail4_NFAINSt7__cxx1112regex_traitsIcEEEESaIS5_ELN9__gnu_cxx12_Lock_policyE2EE
  3625: 00000000402cfaa0   459 FUNC    WEAK   DEFAULT    4 _ZN3mmu9map_levelINS_8populateILNS_11account_optE1EEELi4EEclENS_7hw_ptepILi4EEEm
  3626: 000000004098cd40     8 OBJECT  UNIQUE DEFAULT   52 _ZGVNSt7collateIwE2idE
  3627: 0000000040508420    84 FUNC    WEAK   DEFAULT    4 _ZNSt7__cxx1112basic_stringIwSt11char_traitsIwESaIwEE6insertEmPKw
  3628: 00000000404c0960   146 FUNC    GLOBAL DEFAULT    4 _ZNSt8ios_baseC1Ev
  3629: 00000000404e2e70    49 FUNC    GLOBAL DEFAULT    4 _ZNSt13random_device7_M_finiEv
  3630: 000000004049bc20    78 FUNC    WEAK   DEFAULT    4 _ZSt9has_facetINSt7__cxx117collateIcEEEbRKSt6locale
  3631: 00000000403799e0    77 FUNC    WEAK   DEFAULT    4 _ZThn24_N5boost10wrapexceptISt13runtime_errorED0Ev
  3632: 00000000407fad78    32 OBJECT  WEAK   DEFAULT   21 _ZTIPDn
  3633: 000000004041d9f0   447 FUNC    GLOBAL DEFAULT    4 wcsnrtombs
  3634: 0000000040489780   477 FUNC    GLOBAL DEFAULT    4 _ZNKSt5ctypeIcE14_M_narrow_initEv
  3635: 00000000402d0720   941 FUNC    WEAK   DEFAULT    4 _ZN3mmu9map_levelINS_13dirty_cleanerINS_15dirty_page_syncELNS_11account_optE0EEELi2EEclENS_7hw_ptepILi2EEEm
  3636: 00000000408003e8    56 OBJECT  WEAK   DEFAULT   21 _ZTISt8time_getIcSt19istreambuf_iteratorIcSt11char_traitsIcEEE
  3637: 00000000402f28b0   268 FUNC    GLOBAL DEFAULT    4 _ZN6virtio24virtio_modern_pci_device23parse_virtio_capabilityERSt6vectorISt4pairIhhESaIS3_EERSt10unique_ptrINS0_17virtio_capabilityESt14default_deleteIS8_EEh
  3638: 000000004061ab38     4 OBJECT  UNIQUE DEFAULT    9 _ZN16signature_helperIJiijEE3sigE
  3639: 00000000404843d0    55 FUNC    WEAK   DEFAULT    4 _ZNSs6insertEN9__gnu_cxx17__normal_iteratorIPcSsEEc
  3640: 00000000404c3720   632 FUNC    WEAK   DEFAULT    4 _ZNSi3getERSt15basic_streambufIcSt11char_traitsIcEEc
  3641: 00000000407fb368    32 OBJECT  WEAK   DEFAULT   21 _ZTIPDs
  3642: 000000004023df40    86 FUNC    WEAK   DEFAULT    4 _ZThn8_N5boost10wrapexceptINS_2io13too_many_argsEED0Ev
  3643: 000000004093cf00    48 OBJECT  GLOBAL DEFAULT   52 _ZN3osv15acpi_interruptsE
  3644: 00000000407fb3b8    32 OBJECT  WEAK   DEFAULT   21 _ZTIPDu
  3645: 00000000402a6db0    86 FUNC    GLOBAL DEFAULT    4 tcp_tw_zone_change
  3646: 00000000404072e0   127 FUNC    GLOBAL DEFAULT    4 __iswprint_l
  3647: 0000000040508670    83 FUNC    WEAK   DEFAULT    4 _ZNSt7__cxx1112basic_stringIwSt11char_traitsIwESaIwEE7replaceEN9__gnu_cxx17__normal_iteratorIPKwS4_EES9_S8_S8_
  3648: 00000000404abba0    10 FUNC    WEAK   DEFAULT    4 _ZNKSt7__cxx118time_getIwSt19istreambuf_iteratorIwSt11char_traitsIwEEE8get_timeES4_S4_RSt8ios_baseRSt12_Ios_IostateP2tm
  3649: 000000004098cdd0     8 OBJECT  UNIQUE DEFAULT   52 _ZNSt10moneypunctIwLb1EE2idE
  3650: 00000000407fc590    24 OBJECT  WEAK   DEFAULT   21 _ZTISt20__codecvt_utf16_baseIwE
  3651: 0000000040506b80     8 FUNC    WEAK   DEFAULT    4 _ZNSt7__cxx1112basic_stringIwSt11char_traitsIwESaIwEE16_M_get_allocatorEv
  3652: 00000000403fad30   555 FUNC    GLOBAL DEFAULT    4 pthread_once
  3653: 000000004030b010   630 FUNC    WEAK   DEFAULT    4 _ZN3vmw15vmxnet3_txqueueC2Ev
  3654: 00000000404be36b    88 FUNC    GLOBAL DEFAULT    4 _ZSt23__throw_underflow_errorPKc
  3655: 0000000040358a30   165 FUNC    GLOBAL DEFAULT    4 AcpiRemoveFixedEventHandler
  3656: 00000000404895f0    73 FUNC    WEAK   DEFAULT    4 _ZSt7getlineIwSt11char_traitsIwESaIwEERSt13basic_istreamIT_T0_ES7_RSbIS4_S5_T1_E
  3657: 00000000402e75d0    52 FUNC    GLOBAL DEFAULT    4 _ZN3pci22pci_device_enumerationEv
  3658: 00000000405e2000    56 OBJECT  WEAK   DEFAULT    9 _ZTIN5boost2io22basic_oaltstringstreamIcSt11char_traitsIcESaIcEEE
  3659: 00000000404ef7b0    35 FUNC    WEAK   DEFAULT    4 _ZNSt7__cxx1112basic_stringIcSt11char_traitsIcESaIcEE2atEm
  3660: 0000000040669169     1 OBJECT  GLOBAL DEFAULT    9 _ZNSt14numeric_limitsIaE15has_denorm_lossE
  3661: 00000000404e3ed0   129 FUNC    WEAK   DEFAULT    4 _ZTv0_n24_NSt7__cxx1119basic_ostringstreamIcSt11char_traitsIcESaIcEED1Ev
  3662: 0000000040519d60    41 FUNC    WEAK   DEFAULT    4 _ZZNSt10filesystem4path10_S_convertIwEEDaPKT_S4_EN5_UCvtD0Ev
  3663: 0000000040313da0   291 FUNC    GLOBAL DEFAULT    4 _ZN3vmw6pvscsi13add_desc_waitEP3bio
  3664: 0000000040476ed0    65 FUNC    WEAK   DEFAULT    4 _ZNSt15basic_stringbufIwSt11char_traitsIwESaIwEE9underflowEv
  3665: 000000004026a8b0    65 FUNC    WEAK   DEFAULT    4 _ZN10synch_portD2Ev
  3666: 00000000405f9d30    16 OBJECT  WEAK   DEFAULT    9 _ZTIN7console14console_driverE
  3667: 0000000040628004     3 OBJECT  UNIQUE DEFAULT    9 _ZN16signature_helperIJPKcjEE3sigE
  3668: 00000000404b2930    85 FUNC    WEAK   DEFAULT    4 _ZN9__gnu_cxx18stdio_sync_filebufIcSt11char_traitsIcEE7seekposESt4fposI11__mbstate_tESt13_Ios_Openmode
  3669: 00000000403fc7e0   445 FUNC    GLOBAL DEFAULT    4 dlsym
  3670: 0000000040669440    58 OBJECT  WEAK   DEFAULT    9 _ZTSSt7num_putIcSt19ostreambuf_iteratorIcSt11char_traitsIcEEE
  3671: 0000000040497040    10 FUNC    WEAK   DEFAULT    4 _ZNKSt7__cxx118time_getIcSt19istreambuf_iteratorIcSt11char_traitsIcEEE8get_dateES4_S4_RSt8ios_baseRSt12_Ios_IostateP2tm
  3672: 00000000404ab1f0    34 FUNC    WEAK   DEFAULT    4 _ZNKSt7__cxx1110moneypunctIwLb1EE10neg_formatEv
  3673: 00000000402afde0   191 FUNC    GLOBAL DEFAULT    4 _Z19xenbus_alloc_evtchnP6devicePj
  3674: 0000000040604e00    29 OBJECT  WEAK   DEFAULT    9 _ZTSN5boost9gregorian9bad_monthE
  3675: 0000000040311c40   136 FUNC    GLOBAL DEFAULT    4 _ZN4ahci3hba5probeEPN2hw9hw_deviceE
  3676: 0000000040331e20   638 FUNC    WEAK   DEFAULT    4 _Z13do_sse_memcpyILj43E14load_unaligned15store_unalignedEvPvPKv
  3677: 000000004036a040    15 FUNC    GLOBAL DEFAULT    4 rw_has_readers
  3678: 0000000040379f50   129 FUNC    WEAK   DEFAULT    4 _ZN5boost8lockfree5stackIPN6memory9page_pool10page_batchEJNS0_11fixed_sizedILb1EEEEED2Ev
  3679: 00000000403fcf30    10 FUNC    GLOBAL DEFAULT    4 clock_getcpuclockid
  3680: 000000004037ebc0    28 FUNC    GLOBAL DEFAULT    4 gettid
  3681: 000000004044e2e0    27 FUNC    GLOBAL DEFAULT    4 _ZN10__cxxabiv129__pointer_to_member_type_infoD0Ev
  3682: 00000000404c4c30   318 FUNC    WEAK   DEFAULT    4 _ZNSi10_M_extractIjEERSiRT_
  3683: 0000000040455340    64 FUNC    WEAK   DEFAULT    4 _ZNSt7__cxx1115basic_stringbufIwSt11char_traitsIwESaIwEED2Ev
  3684: 000000004053e480     5 FUNC    WEAK   DEFAULT    4 _ZNSt23_Sp_counted_ptr_inplaceINSt10filesystem7__cxx1116filesystem_error5_ImplESaIS3_ELN9__gnu_cxx12_Lock_policyE2EED2Ev
  3685: 0000000040338480   312 FUNC    WEAK   DEFAULT    4 _Z14unaligned_copyILj12ELj8EEvPvPKvm
  3686: 0000000040269690   378 FUNC    GLOBAL DEFAULT    4 callout_reset_on
  3687: 0000000040668e1c     1 OBJECT  GLOBAL DEFAULT    9 _ZNSt14numeric_limitsIdE15tinyness_beforeE
  3688: 00000000403dcbb0   131 FUNC    GLOBAL DEFAULT    4 device_destroy
  3689: 0000000040264740   456 FUNC    GLOBAL DEFAULT    4 taskqueue_start_threads
  3690: 000000004041d7e0   266 FUNC    GLOBAL DEFAULT    4 mbtowc
  3691: 000000004031f980    50 FUNC    GLOBAL DEFAULT    4 _ZN26interrupt_descriptor_table20unregister_interruptEP19gsi_level_interrupt
  3692: 00000000402ce100   432 FUNC    WEAK   DEFAULT    4 _ZN3mmu9map_levelINS_18linear_page_mapperELi2EEclENS_7hw_ptepILi2EEEm
  3693: 000000004044e740     7 FUNC    GLOBAL DEFAULT    4 _ZNKSt9type_info15__is_function_pEv
  3694: 000000004039a890   603 FUNC    GLOBAL DEFAULT    4 _ZN15tracepoint_baseC2EjRKSt9type_infoPKcS4_
  3695: 00000000402ad430   101 FUNC    GLOBAL DEFAULT    4 _Z28gnttab_request_free_callbackP20gnttab_free_callbackPFvPvES1_t
  3696: 0000000040914480    16 OBJECT  UNIQUE DEFAULT   52 _ZZN5boost6system15system_categoryEvE24system_category_instance
  3697: 00000000404e2700   500 FUNC    WEAK   DEFAULT    4 _ZNSt13basic_ostreamIwSt11char_traitsIwEE9_M_insertIPKvEERS2_T_
  3698: 000000004036dea0    25 FUNC    WEAK   DEFAULT    4 _ZNSt6vectorIPN3osv3rcu26cpu_quiescent_state_threadESaIS3_EED2Ev
  3699: 000000004028ec70   150 FUNC    GLOBAL DEFAULT    4 _Z16in_delayed_cksumP4mbuf
  3700: 0000000040466510    57 FUNC    WEAK   DEFAULT    4 _ZNSt16__numpunct_cacheIwED0Ev
  3701: 0000000040482f30    16 FUNC    WEAK   DEFAULT    4 _ZNKSs5emptyEv
  3702: 0000000040307730   112 FUNC    GLOBAL DEFAULT    4 _ZN3vmw15vmxnet3_txqueue19try_xmit_one_lockedEPv
  3703: 00000000403e10d0   167 FUNC    WEAK   DEFAULT    4 _ZN8virtiofs11dax_managerINS_15dax_window_stubEEC1ES1_m
  3704: 0000000040668d60     1 OBJECT  GLOBAL DEFAULT    9 _ZNSt14numeric_limitsIDiE14is_specializedE
  3705: 000000004046c1e0     7 FUNC    GLOBAL DEFAULT    4 _ZNKSt25__codecvt_utf8_utf16_baseIwE16do_always_noconvEv
  3706: 0000000040508350    51 FUNC    WEAK   DEFAULT    4 _ZNSt7__cxx1112basic_stringIwSt11char_traitsIwESaIwEE6insertEmPKwm
  3707: 000000004049b3e0    30 FUNC    WEAK   DEFAULT    4 _ZNSt7__cxx1115time_get_bynameIcSt19istreambuf_iteratorIcSt11char_traitsIcEEEC2EPKcm
  3708: 00000000403d1e10   690 FUNC    GLOBAL DEFAULT    4 linkat
  3709: 0000000040801478    80 OBJECT  WEAK   DEFAULT   21 _ZTTNSt7__cxx1118basic_stringstreamIwSt11char_traitsIwESaIwEEE
  3710: 000000004061ac4f     7 OBJECT  UNIQUE DEFAULT    9 _ZN16signature_helperIJiiiiPcPjEE3sigE
  3711: 00000000407fc670    88 OBJECT  WEAK   DEFAULT   21 _ZTVSt23__codecvt_abstract_baseIDsDu11__mbstate_tE
  3712: 000000004031f280   135 FUNC    GLOBAL DEFAULT    4 general_protection
  3713: 0000000040668fce     1 OBJECT  GLOBAL DEFAULT    9 _ZNSt14numeric_limitsIlE12has_infinityE
  3714: 00000000403cbad0   550 FUNC    GLOBAL DEFAULT    4 open
  3715: 00000000403da4d0   203 FUNC    GLOBAL DEFAULT    4 dentry_lookup
  3716: 00000000403bd7d0   241 FUNC    GLOBAL DEFAULT    4 _ZN5async10timer_task6cancelEv
  3717: 0000000040668fe6     1 OBJECT  GLOBAL DEFAULT    9 _ZNSt14numeric_limitsIlE9is_signedE
  3718: 000000004045a990    53 FUNC    GLOBAL DEFAULT    4 _ZNSt6localeC1ERKS_
  3719: 00000000403d7b90   102 FUNC    GLOBAL DEFAULT    4 sys_rewinddir
  3720: 00000000403263b0    12 FUNC    WEAK   DEFAULT    4 _Z13do_sse_memcpyILj1E12load_aligned13store_alignedEvPvPKv
  3721: 000000004042c920    55 FUNC    GLOBAL DEFAULT    4 wcsnlen
  3722: 00000000405fe440    16 OBJECT  WEAK   DEFAULT    9 _ZTSN6virtio5vringE
  3723: 00000000407fdc98    24 OBJECT  WEAK   DEFAULT   21 _ZTINSt8ios_base7failureB5cxx11E
  3724: 000000004052ee20    33 FUNC    WEAK   DEFAULT    4 _ZNSt12__shared_ptrINSt10filesystem7__cxx114_DirELN9__gnu_cxx12_Lock_policyE2EE4swapERS5_
  3725: 000000004028dae0   151 FUNC    GLOBAL DEFAULT    4 _Z18ipproto_unregisters
  3726: 00000000402d4e40   212 FUNC    WEAK   DEFAULT    4 _ZNSt5dequeIcSaIcEE16_M_push_back_auxIJRKcEEEvDpOT_
  3727: 00000000404c0070    12 FUNC    WEAK   DEFAULT    4 _ZNSt9basic_iosIwSt11char_traitsIwEE8setstateESt12_Ios_Iostate
  3728: 00000000405f9448    72 OBJECT  WEAK   DEFAULT    9 _ZTVN3mmu37uninitialized_anonymous_page_providerE
  3729: 00000000404b6c50   660 FUNC    WEAK   DEFAULT    4 _ZNSt13basic_filebufIwSt11char_traitsIwEE4swapERS2_
  3730: 0000000040669165     1 OBJECT  GLOBAL DEFAULT    9 _ZNSt14numeric_limitsIaE5trapsE
  3731: 000000004042d1b0   207 FUNC    WEAK   DEFAULT    4 mkostemps
  3732: 00000000403151e0    25 FUNC    GLOBAL DEFAULT    4 _ZN8xenfront15xenfront_driver16otherend_changedE12xenbus_state
  3733: 00000000404c88d0     9 FUNC    WEAK   DEFAULT    4 _ZNSt13basic_istreamIwSt11char_traitsIwEErsERb
  3734: 0000000040668f6e     1 OBJECT  GLOBAL DEFAULT    9 _ZNSt14numeric_limitsIxE9is_signedE
  3735: 000000004042d0d0    13 FUNC    WEAK   DEFAULT    4 mkstemp64
  3736: 00000000404f45e0    87 FUNC    WEAK   DEFAULT    4 _ZNSt10moneypunctIwLb1EEC2Em
  3737: 000000004044dfe0    30 FUNC    GLOBAL DEFAULT    4 _ZnamRKSt9nothrow_t
  3738: 0000000040238aa0  7628 FUNC    GLOBAL DEFAULT    4 _Z9main_contiPPc
  3739: 000000004098949c     4 OBJECT  GLOBAL DEFAULT   52 h_errno
  3740: 00000000404c8e10     9 FUNC    WEAK   DEFAULT    4 _ZNSt13basic_istreamIwSt11char_traitsIwEErsERd
  3741: 000000004061ab30     4 OBJECT  UNIQUE DEFAULT    9 _ZN16signature_helperIJlP16robust_list_headmEE3sigE
  3742: 00000000404c8f60     9 FUNC    WEAK   DEFAULT    4 _ZNSt13basic_istreamIwSt11char_traitsIwEErsERe
  3743: 00000000403e0700    12 FUNC    WEAK   DEFAULT    4 _ZNSt17_Function_handlerIFvPvEPS1_E9_M_invokeERKSt9_Any_dataOS0_
  3744: 0000000040329160   348 FUNC    WEAK   DEFAULT    4 _Z13do_sse_memcpyILj25E12load_aligned13store_alignedEvPvPKv
  3745: 00000000404c8cc0     9 FUNC    WEAK   DEFAULT    4 _ZNSt13basic_istreamIwSt11char_traitsIwEErsERf
  3746: 0000000040604c10    64 OBJECT  WEAK   DEFAULT    9 _ZTV16hpet_32bit_clock
  3747: 000000004050a4d0    20 FUNC    WEAK   DEFAULT    4 _ZNSt12__shared_ptrINSt10filesystem4_DirELN9__gnu_cxx12_Lock_policyE2EEC1Ev
  3748: 000000004032d350   527 FUNC    WEAK   DEFAULT    4 _Z13do_sse_memcpyILj36E14load_unaligned15store_unalignedEvPvPKv
  3749: 00000000402cea20   371 FUNC    WEAK   DEFAULT    4 _ZSt14__copy_move_a1ILb0EPN3mmu15dirty_page_sync3elmES2_EN9__gnu_cxx11__enable_ifIXsrSt23__is_random_access_iterIT0_NSt15iterator_traitsIS7_E17iterator_categoryEE7__valueESt15_Deque_iteratorIT1_RSD_PSD_EE6__typeES7_S7_SG_
  3750: 0000000040375aa0    59 FUNC    GLOBAL DEFAULT    4 _ZN6memory11malloc_poolC2Ev
  3751: 00000000404c62e0   385 FUNC    WEAK   DEFAULT    4 _ZNSt13basic_istreamIwSt11char_traitsIwEErsERi
  3752: 00000000403d5e20    53 FUNC    WEAK   DEFAULT    4 _ZNSt7__cxx114listIP5mountSaIS2_EED2Ev
  3753: 00000000404c84e0     9 FUNC    WEAK   DEFAULT    4 _ZNSt13basic_istreamIwSt11char_traitsIwEErsERj
  3754: 0000000040605a28    10 OBJECT  WEAK   DEFAULT    9 _ZTS8xenclock
  3755: 00000000403485d0   206 FUNC    GLOBAL DEFAULT    4 AcpiException
  3756: 00000000404c8630     9 FUNC    WEAK   DEFAULT    4 _ZNSt13basic_istreamIwSt11char_traitsIwEErsERl
  3757: 00000000403f0790    76 FUNC    WEAK   DEFAULT    4 _ZN5boost10wrapexceptINS_4asio2ip16bad_address_castEED2Ev
  3758: 00000000404c8780     9 FUNC    WEAK   DEFAULT    4 _ZNSt13basic_istreamIwSt11char_traitsIwEErsERm
  3759: 000000004049b980   188 FUNC    WEAK   DEFAULT    4 _ZNSt7__cxx1114collate_bynameIcEC1ERKNS_12basic_stringIcSt11char_traitsIcESaIcEEEm
  3760: 0000000040355710    13 FUNC    GLOBAL DEFAULT    4 AcpiPsGetParentScope
  3761: 00000000404aae90    83 FUNC    WEAK   DEFAULT    4 _ZNSt7__cxx1110moneypunctIwLb1EEC2EP15__locale_structPKcm
  3762: 00000000403fc1a0     8 FUNC    GLOBAL DEFAULT    4 cfgetospeed
  3763: 0000000040280da0   326 FUNC    WEAK   DEFAULT    4 _ZN3osv13rcu_hashtableIN10classifier4itemENS1_9item_hashEED1Ev
  3764: 0000000040325b20    37 FUNC    WEAK   DEFAULT    4 _Z15do_small_memcpyILm30EEPvS0_PKv
  3765: 000000004038de30   222 FUNC    GLOBAL DEFAULT    4 _ZN5sched3cpu8notifierD2Ev
  3766: 000000004046a050    13 FUNC    GLOBAL DEFAULT    4 _ZNKSt9strstream6pcountEv
  3767: 000000004054b8d0   266 FUNC    WEAK   DEFAULT    4 _ZNSt7__cxx1115basic_stringbufIcSt11char_traitsIcESaIcEEC1EONS_12basic_stringIcS2_S3_EESt13_Ios_Openmode
  3768: 000000004046c7d0    22 FUNC    GLOBAL DEFAULT    4 _ZNSt19__codecvt_utf8_baseIDsED0Ev
  3769: 000000004044fb80     5 FUNC    WEAK   DEFAULT    4 _ZNSaIcEC2Ev
  3770: 0000000040379460    32 FUNC    WEAK   DEFAULT    4 _ZNSt17_Function_handlerIFvvESt5_BindIFM14dynamic_percpuIN6memory4pool14free_list_typeELm8EEFvvEPS6_EEE9_M_invokeERKSt9_Any_data
  3771: 000000004061abe6     6 OBJECT  UNIQUE DEFAULT    9 _ZN16signature_helperIJiiPKcP4statiEE3sigE
  3772: 00000000402cb0b0     5 FUNC    WEAK   DEFAULT    4 _ZN3mmu35initialized_anonymous_page_providerD1Ev
  3773: 00000000402cb130    36 FUNC    WEAK   DEFAULT    4 _ZN3mmu35initialized_anonymous_page_provider4fillEPvmm
  3774: 00000000402d96c0    54 FUNC    GLOBAL DEFAULT    4 _ZN3elf4fileD2Ev
  3775: 0000000040314de0    55 FUNC    WEAK   DEFAULT    4 _ZN8xenclockD0Ev
  3776: 00000000404c6150   385 FUNC    WEAK   DEFAULT    4 _ZNSt13basic_istreamIwSt11char_traitsIwEErsERs
  3777: 00000000404c8390     9 FUNC    WEAK   DEFAULT    4 _ZNSt13basic_istreamIwSt11char_traitsIwEErsERt
  3778: 00000000402c3e90    26 FUNC    GLOBAL DEFAULT    4 _Z26randomdev_deinit_harvesterv
  3779: 0000000040359c80   146 FUNC    GLOBAL DEFAULT    4 AcpiEvAcquireGlobalLock
  3780: 0000000040376060   489 FUNC    GLOBAL DEFAULT    4 _ZN6memory9page_pool2l16unfillEv
  3781: 00000000402f26c0    67 FUNC    GLOBAL DEFAULT    4 _ZN6virtio17virtio_pci_deviceD2Ev
  3782: 0000000040940f8c     1 OBJECT  GLOBAL DEFAULT   52 AcpiGbl_DbOutputFlags
  3783: 000000004033c6c0   284 FUNC    WEAK   DEFAULT    4 _Z14unaligned_copyILj11ELj15EEvPvPKvm
  3784: 000000004047ad20   251 FUNC    WEAK   DEFAULT    4 _ZNSt19basic_ostringstreamIcSt11char_traitsIcESaIcEEC2Ev
  3785: 00000000404c8a20     9 FUNC    WEAK   DEFAULT    4 _ZNSt13basic_istreamIwSt11char_traitsIwEErsERx
  3786: 00000000404c8b70     9 FUNC    WEAK   DEFAULT    4 _ZNSt13basic_istreamIwSt11char_traitsIwEErsERy
  3787: 00000000404536c0    25 FUNC    GLOBAL DEFAULT    4 _ZNKSt7__cxx117collateIcE12_M_transformEPcPKcm
  3788: 0000000040257040    47 FUNC    GLOBAL DEFAULT    4 sbflush_locked
  3789: 00000000404f4d90   250 FUNC    WEAK   DEFAULT    4 _ZNSt17moneypunct_bynameIwLb1EEC2ERKSsm
  3790: 000000004051c260  1016 FUNC    WEAK   DEFAULT    4 _ZNSt10filesystem16filesystem_error5_Impl9make_whatESt17basic_string_viewIcSt11char_traitsIcEEPKNS_4pathES8_
  3791: 0000000040384a20   129 FUNC    GLOBAL DEFAULT    4 _ZN3osv13parse_cmdlineEPKc
  3792: 0000000040441840    27 FUNC    GLOBAL DEFAULT    4 _ZNSt9bad_allocD0Ev
  3793: 000000004039f920   147 FUNC    WEAK   DEFAULT    4 _ZNSt8__detail15_BracketMatcherINSt7__cxx1112regex_traitsIcEELb0ELb0EED2Ev
  3794: 00000000404be810    23 FUNC    GLOBAL DEFAULT    4 _ZNSt12future_errorD1Ev
  3795: 00000000404cadd0    34 FUNC    WEAK   DEFAULT    4 _ZNKSt10moneypunctIcLb0EE11frac_digitsEv
  3796: 0000000040268740     9 FUNC    GLOBAL DEFAULT    4 sx_destroy
  3797: 00000000402b0b10    26 FUNC    GLOBAL DEFAULT    4 xenbusb_otherend_changed
  3798: 000000004045fad0    52 FUNC    WEAK   DEFAULT    4 _ZNSt7__cxx1112basic_stringIcSt11char_traitsIcESaIcEE6insertEN9__gnu_cxx17__normal_iteratorIPcS4_EEc
  3799: 00000000403e10b0    20 FUNC    WEAK   DEFAULT    4 _ZN8virtiofs11dax_managerINS_15dax_window_implEE7mappingC1Emmmm
  3800: 0000000040466a70    46 FUNC    GLOBAL DEFAULT    4 _ZNSt8numpunctIcED0Ev
  3801: 0000000040533e10   219 FUNC    GLOBAL DEFAULT    4 _ZNSt10filesystem16create_directoryERKNS_7__cxx114pathES3_RSt10error_code
  3802: 00000000404bafd0   199 FUNC    WEAK   DEFAULT    4 _ZThn16_NSt13basic_fstreamIcSt11char_traitsIcEED0Ev
  3803: 0000000040361a20  1050 FUNC    GLOBAL DEFAULT    4 AcpiDsLoad2BeginOp
  3804: 0000000040308110   182 FUNC    GLOBAL DEFAULT    4 _ZN3vmw7vmxnet315get_mac_addressEPh
  3805: 0000000040369750    98 FUNC    GLOBAL DEFAULT    4 _ZN6rwlockC1Ev
  3806: 0000000040668d39     1 OBJECT  GLOBAL DEFAULT    9 _ZNSt14numeric_limitsIDiE13has_quiet_NaNE
  3807: 00000000404e09a0   156 FUNC    WEAK   DEFAULT    4 _ZNSt13basic_ostreamIwSt11char_traitsIwEE4swapERS2_
  3808: 0000000040668e48     4 OBJECT  GLOBAL DEFAULT    9 _ZNSt14numeric_limitsIdE8digits10E
  3809: 0000000040669194     4 OBJECT  GLOBAL DEFAULT    9 _ZNSt14numeric_limitsIaE6digitsE
  3810: 00000000404504a0    12 FUNC    WEAK   DEFAULT    4 _ZN9__gnu_cxx8__detail13__mini_vectorISt4pairIPNS_16bitmap_allocatorIcE12_Alloc_blockES6_EE5clearEv
  3811: 00000000404833f0    13 FUNC    WEAK   DEFAULT    4 _ZNKSs13find_first_ofEcm
  3812: 00000000402e42f0   281 FUNC    WEAK   DEFAULT    4 _ZNSt5dequeIcSaIcEE24_M_new_elements_at_frontEm
  3813: 0000000040916fd0    16 OBJECT  GLOBAL DEFAULT   52 ifg_head
  3814: 0000000040522810   110 FUNC    WEAK   DEFAULT    4 _ZNSt7__cxx1112basic_stringIcSt11char_traitsIcENSt3pmr21polymorphic_allocatorIcEEE9_M_createERmm
  3815: 0000000040669021     1 OBJECT  GLOBAL DEFAULT    9 _ZNSt14numeric_limitsIjE10is_integerE
  3816: 00000000403287a0   286 FUNC    WEAK   DEFAULT    4 _Z13do_sse_memcpyILj21E12load_aligned13store_alignedEvPvPKv
  3817: 000000004035f5b0   577 FUNC    GLOBAL DEFAULT    4 AcpiNsCheckObjectType
  3818: 00000000407fee28   104 OBJECT  WEAK   DEFAULT   21 _ZTVNSt7__cxx1110moneypunctIwLb0EEE
  3819: 00000000404bdfe8    88 FUNC    GLOBAL DEFAULT    4 _ZSt24__throw_invalid_argumentPKc
  3820: 00000000405e2140    32 OBJECT  WEAK   DEFAULT    9 _ZTVN5boost9exceptionE
  3821: 000000004030e450    76 FUNC    WEAK   DEFAULT    4 _ZThn24_N5boost10wrapexceptINS_9gregorian9bad_monthEED1Ev
  3822: 000000004050a340    14 FUNC    WEAK   DEFAULT    4 _ZNSt23_Sp_counted_ptr_inplaceINSt10filesystem28recursive_directory_iterator10_Dir_stackESaIS2_ELN9__gnu_cxx12_Lock_policyE2EE10_M_destroyEv
  3823: 00000000404af940   258 FUNC    WEAK   DEFAULT    4 _ZNSt7__cxx1115messages_bynameIwEC1EPKcm
  3824: 000000004030f410   222 FUNC    GLOBAL DEFAULT    4 _ZN4ahci3hbaD2Ev
  3825: 00000000404862e0    12 FUNC    WEAK   DEFAULT    4 _ZNKSbIwSt11char_traitsIwESaIwEEixEm
  3826: 00000000402bf210   184 FUNC    GLOBAL DEFAULT    4 _Z10ena_qflushP5ifnet
  3827: 00000000405faf60    58 OBJECT  WEAK   DEFAULT    9 _ZTSN3osv19rcu_dispose_deleterIN3elf7program12modules_listEEE
  3828: 000000004045b5e0  1264 FUNC    GLOBAL DEFAULT    4 _ZNSt6locale5_Impl16_M_install_facetEPKNS_2idEPKNS_5facetE
  3829: 000000004053e990    12 FUNC    GLOBAL DEFAULT    4 _ZNSt10filesystem7__cxx114path5_ListC2Ev
  3830: 0000000040807620     8 OBJECT  GLOBAL DEFAULT   22 tcp_sendspace
  3831: 000000004030c080    17 FUNC    GLOBAL DEFAULT    4 AcpiOsAcquireLock
  3832: 00000000402f17d0   187 FUNC    GLOBAL DEFAULT    4 _ZN6virtio13virtio_driver17probe_virt_queuesEv
  3833: 00000000405ffcb8    16 OBJECT  WEAK   DEFAULT    9 _ZTIN4nvme10queue_pairE
  3834: 0000000040430d30   100 FUNC    WEAK   DEFAULT    4 globfree64
  3835: 00000000406690cc     4 OBJECT  GLOBAL DEFAULT    9 _ZNSt14numeric_limitsIsE12min_exponentE
  3836: 0000000040268b10    16 FUNC    GLOBAL DEFAULT    4 _ZN8callouts15wake_dispatcherEv
  3837: 0000000040403f50    32 FUNC    GLOBAL DEFAULT    4 umount
  3838: 00000000402d2810   295 FUNC    WEAK   DEFAULT    4 _ZN3mmu12populate_vmaILNS_11account_optE0EEEmPNS_3vmaEPvmb
  3839: 00000000403d6a70     5 FUNC    GLOBAL DEFAULT    4 vflush
  3840: 0000000040668e00     4 OBJECT  GLOBAL DEFAULT    9 _ZNSt14numeric_limitsIeE5radixE
  3841: 000000004053c840  1960 FUNC    GLOBAL DEFAULT    4 _ZNSt10filesystem16weakly_canonicalERKNS_7__cxx114pathE
  3842: 00000000404be400    22 FUNC    GLOBAL DEFAULT    4 _ZNSt17bad_function_callD0Ev
  3843: 000000004034a980    23 FUNC    GLOBAL DEFAULT    4 AcpiHwGetGpeRegisterBit
  3844: 00000000402ea580    16 FUNC    GLOBAL DEFAULT    4 _ZN3pci6bridgeD2Ev
  3845: 0000000040339a80   253 FUNC    WEAK   DEFAULT    4 _Z14unaligned_copyILj10ELj3EEvPvPKvm
  3846: 00000000403cbfb0   407 FUNC    GLOBAL DEFAULT    4 __xmknod
  3847: 00000000403b5400   101 FUNC    GLOBAL DEFAULT    4 _ZN3osv7newpoll6pollerC2Ev
  3848: 00000000403220d0   108 FUNC    GLOBAL DEFAULT    4 _ZN19gsi_level_interruptD0Ev
  3849: 000000004045a920     5 FUNC    GLOBAL DEFAULT    4 _ZNSt6locale5facetD2Ev
  3850: 00000000404685d0    46 FUNC    GLOBAL DEFAULT    4 _ZNSt10istrstreamD0Ev
  3851: 0000000040354de0    38 FUNC    GLOBAL DEFAULT    4 AcpiReallocateRootTable
  3852: 00000000404f12f0   132 FUNC    WEAK   DEFAULT    4 _ZNKSt7__cxx1112basic_stringIcSt11char_traitsIcESaIcEE7compareEmmRKS4_
  3853: 000000004036de70    34 FUNC    WEAK   DEFAULT    4 _ZNSt17_Function_handlerIFvvEN3osv3rcu12cpu_notifierMUlvE_EE10_M_managerERSt9_Any_dataRKS5_St18_Manager_operation
  3854: 0000000040461df0   203 FUNC    GLOBAL DEFAULT    4 _ZNSt7__cxx1110moneypunctIwLb0EED2Ev
  3855: 00000000404f0a80    41 FUNC    WEAK   DEFAULT    4 _ZNSt7__cxx1112basic_stringIcSt11char_traitsIcESaIcEEpLESt16initializer_listIcE
  3856: 0000000040358350   234 FUNC    GLOBAL DEFAULT    4 AcpiEvDeleteGpeHandlers
  3857: 0000000040266c30   142 FUNC    GLOBAL DEFAULT    4 ppsratecheck
  3858: 00000000404874f0    21 FUNC    WEAK   DEFAULT    4 _ZNSbIwSt11char_traitsIwESaIwEE7_M_leakEv
  3859: 0000000040456350     5 FUNC    WEAK   DEFAULT    4 _ZN9__gnu_cxx19__function_requiresINS_26_LessThanComparableConceptIPwEEEEvv
  3860: 0000000040519f70    27 FUNC    GLOBAL DEFAULT    4 _ZNSt10filesystem16filesystem_errorD0Ev
  3861: 000000004025e650   216 FUNC    GLOBAL DEFAULT    4 soisdisconnecting
  3862: 00000000404f2da0    23 FUNC    WEAK   DEFAULT    4 _ZNSt15messages_bynameIwED2Ev
  3863: 00000000404f09e0    77 FUNC    WEAK   DEFAULT    4 _ZNSt7__cxx1112basic_stringIcSt11char_traitsIcESaIcEE6appendEPKc
  3864: 0000000040323570   105 FUNC    GLOBAL DEFAULT    4 _ZN11msix_vector12set_affinityEj
  3865: 0000000040941118     8 OBJECT  GLOBAL DEFAULT   52 AcpiGbl_TableHandler
  3866: 00000000404387f8     0 FUNC    GLOBAL DEFAULT    4 fegetround
  3867: 00000000405f9c78    16 OBJECT  WEAK   DEFAULT    9 _ZTI20clock_event_callback
  3868: 00000000402f14b0   204 FUNC    GLOBAL DEFAULT    4 _ZN6virtio13virtio_driverC1ERNS_13virtio_deviceE
  3869: 00000000403080e0    34 FUNC    GLOBAL DEFAULT    4 _ZN3vmw15vmxnet3_rxqueue17disable_interruptEv
  3870: 00000000403d6c10   143 FUNC    GLOBAL DEFAULT    4 vn_settimes
  3871: 00000000402f2f20    14 FUNC    WEAK   DEFAULT    4 _ZN6virtio17virtio_pci_device5printEv
  3872: 00000000404869f0    48 FUNC    WEAK   DEFAULT    4 _ZNKSbIwSt11char_traitsIwESaIwEE16find_last_not_ofEPKwm
  3873: 00000000404edff0     9 FUNC    WEAK   DEFAULT    4 _ZNKSt15basic_streambufIcSt11char_traitsIcEE5egptrEv
  3874: 000000004052f080    12 FUNC    WEAK   DEFAULT    4 _ZNKSt12__shared_ptrINSt10filesystem7__cxx1128recursive_directory_iterator10_Dir_stackELN9__gnu_cxx12_Lock_policyE2EEcvbEv
  3875: 00000000407fd358    32 OBJECT  WEAK   DEFAULT   21 _ZTTSt19basic_istringstreamIcSt11char_traitsIcESaIcEE
  3876: 0000000040345540    97 FUNC    GLOBAL DEFAULT    4 AcpiUtShortDivide
  3877: 0000000040501410  1261 FUNC    WEAK   DEFAULT    4 _ZNKSt8time_getIwSt19istreambuf_iteratorIwSt11char_traitsIwEEE15_M_extract_nameES3_S3_RiPPKwmRSt8ios_baseRSt12_Ios_Iostate
  3878: 00000000402bb160    40 FUNC    GLOBAL DEFAULT    4 ena_com_admin_aenq_enable
  3879: 00000000403eb510     8 FUNC    GLOBAL DEFAULT    4 dcgettext
  3880: 00000000402cb090     5 FUNC    WEAK   DEFAULT    4 _ZN5boost2io6detail13call_put_headIcSt11char_traitsIcEKcEEvRSt13basic_ostreamIT_T0_EPKv
  3881: 00000000404c93d0    36 FUNC    WEAK   DEFAULT    4 _ZNSt9money_putIcSt19ostreambuf_iteratorIcSt11char_traitsIcEEED0Ev
  3882: 000000004049b8b0    10 FUNC    WEAK   DEFAULT    4 _ZNKSt7__cxx117collateIcE4hashEPKcS3_
  3883: 0000000040496260    87 FUNC    WEAK   DEFAULT    4 _ZNSt7__cxx1110moneypunctIcLb1EEC1Em
  3884: 0000000040486110    57 FUNC    WEAK   DEFAULT    4 _ZNSbIwSt11char_traitsIwESaIwEE13_S_copy_charsEPwPKwS5_
  3885: 00000000404bf590    50 FUNC    WEAK   DEFAULT    4 _ZNSt9basic_iosIcSt11char_traitsIcEE5clearESt12_Ios_Iostate
  3886: 000000004031fdc0   187 FUNC    GLOBAL DEFAULT    4 _ZN26interrupt_descriptor_table18register_interruptEP18gsi_edge_interrupt
  3887: 0000000040368270    26 FUNC    GLOBAL DEFAULT    4 __isinf
  3888: 00000000404f0ae0   102 FUNC    WEAK   DEFAULT    4 _ZNKSt7__cxx1112basic_stringIcSt11char_traitsIcESaIcEE4copyEPcmm
  3889: 00000000403bb5e0   165 FUNC    GLOBAL DEFAULT    4 _ZN10classifierC1Ev
  3890: 00000000409515f0     1 OBJECT  GLOBAL DEFAULT   52 _ZN3dbg7enabledE
  3891: 0000000040257700  1207 FUNC    WEAK   DEFAULT    4 _Z10sbwait_tmoIN3osv5clock6uptimeEEiP6socketP7sockbufN5boost8optionalINSt6chrono10time_pointIT_NSB_8durationEEEEE
  3892: 0000000040940da0    40 OBJECT  GLOBAL DEFAULT   52 _ZN6ioapic3mtxE
  3893: 00000000402f3620    88 FUNC    GLOBAL DEFAULT    4 _ZN6virtio5vring18disable_interruptsEv
  3894: 00000000404035b0   216 FUNC    WEAK   DEFAULT    4 _Z9make_fileI8af_localJN5boost13intrusive_ptrI11pipe_bufferEES4_EENS2_I4fileEEDpOT0_
  3895: 00000000404bed40   520 FUNC    GLOBAL DEFAULT    4 _ZNSt13__future_base13_State_baseV211_Make_ready6_S_runEPv
  3896: 00000000402f06f0   416 FUNC    GLOBAL DEFAULT    4 _ZN7console10VGAConsoleC2ERN3pci6deviceE
  3897: 0000000040481b30    20 FUNC    GLOBAL DEFAULT    4 _ZNSt12__cow_stringaSEOS_
  3898: 000000004061af60   401 OBJECT  WEAK   DEFAULT    9 _ZTSN5boost6spirit2qi6detail13parser_binderINS1_17no_skip_directiveINS1_4plusINS1_11alternativeINS_6fusion4consINS1_9referenceINS1_7symbolsIKcSB_NS1_3tstISB_SB_EENS1_16tst_pass_throughEEEEENS8_INS1_10differenceINSH_INSH_INSH_INS1_10char_classINS0_3tag9char_codeINSJ_5char_ENS0_13char_encoding5asciiEEEEENS1_12literal_charINSM_8standardELb1ELb0EEEEESS_EESS_EESS_EENS7_4nil_EEEEEEEEEEEN4mpl_5bool_ILb1EEEEE
  3899: 0000000040370850    16 FUNC    WEAK   DEFAULT    4 _ZN5boost7bad_getD1Ev
  3900: 000000004050d1b0  1023 FUNC    GLOBAL DEFAULT    4 _ZNSt10filesystem28recursive_directory_iteratorC2ERKNS_4pathENS_17directory_optionsEPSt10error_code
  3901: 0000000040807550     4 OBJECT  GLOBAL DEFAULT   22 tcp_do_rfc3465
  3902: 00000000405304a0   746 FUNC    WEAK   DEFAULT    4 _ZNSt5dequeINSt10filesystem7__cxx114_DirESaIS2_EED2Ev
  3903: 00000000402966c0   108 FUNC    GLOBAL DEFAULT    4 _Z12udp_shutdownP6socket
  3904: 0000000040489720    22 FUNC    GLOBAL DEFAULT    4 _ZNSt12ctype_bynameIwED0Ev
  3905: 0000000040802110    80 OBJECT  WEAK   DEFAULT   21 _ZTVSt15time_get_bynameIwSt19istreambuf_iteratorIwSt11char_traitsIwEEE
  3906: 0000000040453710    25 FUNC    GLOBAL DEFAULT    4 _ZNKSt7__cxx117collateIwE12_M_transformEPwPKwm
  3907: 0000000040800be0    16 OBJECT  WEAK   DEFAULT   21 _ZTTSt13basic_ostreamIwSt11char_traitsIwEE
  3908: 0000000040488820   238 FUNC    WEAK   DEFAULT    4 _ZNSbIwSt11char_traitsIwESaIwEE6assignERKS2_
  3909: 0000000040404750    16 FUNC    WEAK   DEFAULT    4 _ZN8event_fdD2Ev
  3910: 0000000040408a70     9 FUNC    WEAK   DEFAULT    4 strcoll_l
  3911: 000000004052c310   301 FUNC    WEAK   DEFAULT    4 _ZNSt8__detail13__to_chars_16IoEENSt9enable_ifIXsrSt5__or_IIS2_IISt7is_sameINSt9remove_cvIT_E4typeEaES3_IS7_sES3_IS7_iES3_IS7_lES3_IS7_xES3_IS7_nEEES2_IIS3_IS7_hES3_IS7_tES3_IS7_jES3_IS7_mES3_IS7_yES3_IS7_oEEES3_IcS7_EEE5valueESt15to_chars_resultE4typeEPcSR_S5_
  3912: 000000004098c758     8 OBJECT  UNIQUE DEFAULT   52 _ZGVNSt7__cxx1110moneypunctIcLb0EE2idE
  3913: 0000000040605c00    19 OBJECT  WEAK   DEFAULT    9 _ZTSN8xenfront6xenbusE
  3914: 000000004046eb20    34 FUNC    GLOBAL DEFAULT    4 _ZNKSt7codecvtIDsc11__mbstate_tE9do_lengthERS0_PKcS4_m
  3915: 00000000403fb630    37 FUNC    GLOBAL DEFAULT    4 raise
  3916: 000000004042a8d0     9 FUNC    GLOBAL DEFAULT    4 index
  3917: 0000000040460160    83 FUNC    WEAK   DEFAULT    4 _ZNSt7__cxx1112basic_stringIwSt11char_traitsIwESaIwEE7replaceEN9__gnu_cxx17__normal_iteratorIPwS4_EES8_NS6_IPKwS4_EESB_
  3918: 0000000040484680    65 FUNC    WEAK   DEFAULT    4 _ZNSs6assignERKSsmm
  3919: 00000000403ca320   127 FUNC    GLOBAL DEFAULT    4 _Z5writeN5boost13intrusive_ptrI4fileEEPKvmm
  3920: 00000000403fd280   164 FUNC    GLOBAL DEFAULT    4 _ZN3osv22wake_up_signal_waitersEi
  3921: 000000004045bb20    60 FUNC    GLOBAL DEFAULT    4 _ZNSt6locale5_Impl19_M_replace_categoryEPKS0_PKPKNS_2idE
  3922: 00000000402e8d30   654 FUNC    GLOBAL DEFAULT    4 _ZN3pci3bar13read_bar_sizeEv
  3923: 00000000405077b0    17 FUNC    WEAK   DEFAULT    4 _ZNKSt7__cxx1112basic_stringIwSt11char_traitsIwESaIwEE4backEv
  3924: 000000004094103a     1 OBJECT  GLOBAL DEFAULT   52 AcpiGbl_SleepTypeA
  3925: 0000000040483580    56 FUNC    WEAK   DEFAULT    4 _ZNKSs17find_first_not_ofEcm
  3926: 0000000040941039     1 OBJECT  GLOBAL DEFAULT   52 AcpiGbl_SleepTypeB
  3927: 00000000404e3840   192 FUNC    GLOBAL DEFAULT    4 _ZNSt12__sso_stringC1EPKcm
  3928: 0000000040349f60   317 FUNC    GLOBAL DEFAULT    4 AcpiHwLegacySleep
  3929: 000000004027d270   885 FUNC    GLOBAL DEFAULT    4 if_addgroup
  3930: 0000000040807538     4 OBJECT  GLOBAL DEFAULT   22 udp_cksum
  3931: 00000000404b2550    28 FUNC    WEAK   DEFAULT    4 _ZN9__gnu_cxx18stdio_sync_filebufIwSt11char_traitsIwEED2Ev
  3932: 000000004049bb30    80 FUNC    WEAK   DEFAULT    4 _ZSt9use_facetINSt7__cxx1110moneypunctIcLb0EEEERKT_RKSt6locale
  3933: 00000000404e4ac0   171 FUNC    WEAK   DEFAULT    4 _ZThn16_NSt7__cxx1118basic_stringstreamIwSt11char_traitsIwESaIwEED0Ev
  3934: 00000000402f2f80     7 FUNC    WEAK   DEFAULT    4 _ZN6virtio24virtio_legacy_pci_device9is_modernEv
  3935: 00000000405fb8d0    16 OBJECT  WEAK   DEFAULT    9 _ZTSN3pci8functionE
  3936: 00000000404ef140    24 FUNC    WEAK   DEFAULT    4 _ZNSt7__cxx1112basic_stringIcSt11char_traitsIcESaIcEEC2ERKS3_
  3937: 0000000040425710    37 FUNC    WEAK   DEFAULT    4 fgetc_unlocked
  3938: 00000000405fb2e0    28 OBJECT  WEAK   DEFAULT    9 _ZTSN9randomdev13random_deviceE
  3939: 000000004046c8f0    23 FUNC    GLOBAL DEFAULT    4 _ZNSt19__codecvt_utf8_baseIwED1Ev
  3940: 000000004062801a     5 OBJECT  UNIQUE DEFAULT    9 _ZN16signature_helperIJiPvmlEE3sigE
  3941: 000000004066a480    87 OBJECT  WEAK   DEFAULT    9 _ZTSSt23_Sp_counted_ptr_inplaceINSt10filesystem4_DirESaIS1_ELN9__gnu_cxx12_Lock_policyE2EE
  3942: 000000004047d7e0    32 FUNC    WEAK   DEFAULT    4 _ZNSt15basic_stringbufIwSt11char_traitsIwESaIwEE17_M_stringbuf_initESt13_Ios_Openmode
  3943: 000000004049b550    54 FUNC    WEAK   DEFAULT    4 _ZNKSt7__cxx118messagesIcE4openERKNS_12basic_stringIcSt11char_traitsIcESaIcEEERKSt6localePKc
  3944: 00000000404c8210    23 FUNC    WEAK   DEFAULT    4 _ZStrsIwSt11char_traitsIwEERSt13basic_istreamIT_T0_ES6_St13_Setprecision
  3945: 00000000404f2590   292 FUNC    GLOBAL DEFAULT    4 _ZNSt6thread15_M_start_threadESt10shared_ptrINS_10_Impl_baseEEPFvvE
  3946: 0000000040406260   139 FUNC    GLOBAL DEFAULT    4 inotify_init1
  3947: 00000000402afea0   151 FUNC    GLOBAL DEFAULT    4 _Z18xenbus_free_evtchnP6devicej
  3948: 00000000404eed20    30 FUNC    WEAK   DEFAULT    4 _ZNSt7__cxx1112basic_stringIcSt11char_traitsIcESaIcEE7_S_moveEPcPKcm
  3949: 000000004035ccf0  1164 FUNC    GLOBAL DEFAULT    4 AcpiNsLookup
  3950: 00000000404b2990    85 FUNC    WEAK   DEFAULT    4 _ZN9__gnu_cxx18stdio_sync_filebufIwSt11char_traitsIwEE7seekposESt4fposI11__mbstate_tESt13_Ios_Openmode
  3951: 000000004031a3f0     9 FUNC    GLOBAL DEFAULT    4 fpu_state_restore_fxsave
  3952: 0000000040509090    52 FUNC    WEAK   DEFAULT    4 _ZNKSt7__cxx1112basic_stringIwSt11char_traitsIwESaIwEE5rfindEwm
  3953: 00000000403edb30   314 FUNC    GLOBAL DEFAULT    4 setmntent
  3954: 0000000040320130   308 FUNC    GLOBAL DEFAULT    4 _ZN26interrupt_descriptor_table18register_interruptEP19gsi_level_interrupt
  3955: 000000004068ad00    39 OBJECT  WEAK   DEFAULT    9 _ZTSNSt3pmr28unsynchronized_pool_resourceE
  3956: 00000000406691ac     1 OBJECT  GLOBAL DEFAULT    9 _ZNSt14numeric_limitsIcE17has_signaling_NaNE
  3957: 000000004046c120    73 FUNC    GLOBAL DEFAULT    4 _ZNSt6chrono3_V212system_clock3nowEv
  3958: 00000000404b5890   528 FUNC    WEAK   DEFAULT    4 _ZNSt13basic_filebufIcSt11char_traitsIcEE7seekoffElSt12_Ios_SeekdirSt13_Ios_Openmode
  3959: 0000000040405ea0   318 FUNC    WEAK   DEFAULT    4 _ZNSt10_HashtableIPKvSt4pairIKS1_iESaIS4_ENSt8__detail10_Select1stESt8equal_toIS1_ESt4hashIS1_ENS6_18_Mod_range_hashingENS6_20_Default_ranged_hashENS6_20_Prime_rehash_policyENS6_17_Hashtable_traitsILb0ELb0ELb1EEEE9_M_rehashEmRKm
  3960: 000000004046c6b0    23 FUNC    GLOBAL DEFAULT    4 _ZNSt20__codecvt_utf16_baseIDsED2Ev
  3961: 000000004031d760    13 FUNC    GLOBAL DEFAULT    4 _ZN3mmu18is_page_fault_rsvdEj
  3962: 000000004038e060   111 FUNC    GLOBAL DEFAULT    4 _ZN5sched6thread10find_by_idEj
  3963: 0000000040281520   160 FUNC    GLOBAL DEFAULT    4 _Z16pfil_remove_hookPFiPvPP4mbufP5ifnetiP5inpcbES_iP9pfil_head
  3964: 00000000404bdece    53 FUNC    GLOBAL DEFAULT    4 _ZSt16__throw_bad_castv
  3965: 000000004025e5a0    10 FUNC    GLOBAL DEFAULT    4 pru_send_notsupp
  3966: 000000004025d8d0   102 FUNC    GLOBAL DEFAULT    4 sooptcopyin
  3967: 00000000404f05a0    78 FUNC    WEAK   DEFAULT    4 _ZNSt7__cxx1112basic_stringIcSt11char_traitsIcESaIcEE7replaceEN9__gnu_cxx17__normal_iteratorIPKcS4_EES9_RKS4_
  3968: 00000000402f1740    22 FUNC    GLOBAL DEFAULT    4 _ZN6virtio13virtio_driver12reset_deviceEv
  3969: 00000000404ee910    76 FUNC    WEAK   DEFAULT    4 _ZNSt15basic_streambufIwSt11char_traitsIwEEaSERKS2_
  3970: 00000000402baa00   979 FUNC    GLOBAL DEFAULT    4 ena_com_execute_admin_command
  3971: 000000004041c7a0   146 FUNC    GLOBAL DEFAULT    4 get_current_dir_name
  3972: 00000000403bab80    92 FUNC    GLOBAL DEFAULT    4 _ZN5sched11wait_objectI9waitqueueE6disarmEv
  3973: 0000000040985e48     8 OBJECT  WEAK   DEFAULT   52 __progname_full
  3974: 000000004046aa20  2378 FUNC    GLOBAL DEFAULT    4 _ZNSt11__timepunctIwE23_M_initialize_timepunctEP15__locale_struct
  3975: 00000000402b8660   113 FUNC    GLOBAL DEFAULT    4 _ZN28blkfront_indirect_descriptor5unmapEv
  3976: 00000000404a08e0    23 FUNC    WEAK   DEFAULT    4 _ZNSt7__cxx1115messages_bynameIwED1Ev
  3977: 0000000040482c00    39 FUNC    WEAK   DEFAULT    4 _ZNKSs15_M_check_lengthEmmPKc
  3978: 000000004061ac40     5 OBJECT  UNIQUE DEFAULT    9 _ZN16signature_helperIJijjmEE3sigE
  3979: 000000004047c4f0   637 FUNC    WEAK   DEFAULT    4 _ZNSt18basic_stringstreamIcSt11char_traitsIcESaIcEEC2ERKSsSt13_Ios_Openmode
  3980: 0000000040373890   455 FUNC    WEAK   DEFAULT    4 _ZNR5boost7variantIDnJN3mmu7hw_ptepILi0EEESt10unique_ptrISt13unordered_setIS3_St4hashIS3_ESt8equal_toIS3_ESaIS3_EESt14default_deleteISB_EEEE13apply_visitorIN9pagecache11cached_page8ptep_addEEENT_11result_typeERSK_
  3981: 00000000402f0cc0    10 FUNC    WEAK   DEFAULT    4 _ZN7console10VGAConsole11thread_nameEv
  3982: 000000004062cc98    24 OBJECT  WEAK   DEFAULT    9 _ZTI9pipe_file
  3983: 00000000403cc520   410 FUNC    WEAK   DEFAULT    4 pwrite64
  3984: 00000000402f20a0    46 FUNC    GLOBAL DEFAULT    4 _ZN6virtio24virtio_modern_pci_device14activate_queueEi
  3985: 00000000404f3f90    30 FUNC    WEAK   DEFAULT    4 _ZNSt9money_getIwSt19istreambuf_iteratorIwSt11char_traitsIwEEEC1Em
  3986: 00000000402f35f0    13 FUNC    GLOBAL DEFAULT    4 _ZN6virtio5vring13get_used_addrEv
  3987: 00000000404f9c60   271 FUNC    WEAK   DEFAULT    4 _ZNKSt11__use_cacheISt16__numpunct_cacheIwEEclERKSt6locale
  3988: 0000000040613820    24 OBJECT  WEAK   DEFAULT    9 _ZTISt5_BindIFM14dynamic_percpuIN4prof11cpu_samplerELm8EEFvvEPS3_EE
  3989: 0000000040309000   950 FUNC    WEAK   DEFAULT    4 _ZN3vmw15vmxnet3_rxqueueC1Ev
  3990: 0000000040908528     1 OBJECT  GLOBAL DEFAULT   48 _ZN7workman6_readyE
  3991: 0000000040370a60    76 FUNC    WEAK   DEFAULT    4 _ZThn8_N5boost10wrapexceptINS_7bad_getEED1Ev
  3992: 00000000403b3010   297 FUNC    GLOBAL DEFAULT    4 epoll_wait
  3993: 00000000403b7b00   138 FUNC    GLOBAL DEFAULT    4 _ZN4dhcp11dhcp_worker12queue_packetEP4mbuf
  3994: 00000000403fa1a0   119 FUNC    GLOBAL DEFAULT    4 _Z9from_libcP16pthread_rwlock_t
  3995: 00000000404985c0   764 FUNC    WEAK   DEFAULT    4 _ZNKSt7__cxx118time_getIcSt19istreambuf_iteratorIcSt11char_traitsIcEEE16do_get_monthnameES4_S4_RSt8ios_baseRSt12_Ios_IostateP2tm
  3996: 00000000403f1e60   153 FUNC    GLOBAL DEFAULT    4 __sprintf_chk
  3997: 00000000403e09e0   188 FUNC    WEAK   DEFAULT    4 _ZN8virtiofs11dax_managerINS_15dax_window_implEEC2ES1_m
  3998: 000000004033fea0    70 FUNC    GLOBAL DEFAULT    4 _ZN9processor15kvm_pv_eoi_initEv
  3999: 0000000040241720  3269 FUNC    WEAK   DEFAULT    4 _ZN5boost2io6detail22parse_printf_directiveIcSt11char_traitsIcESaIcEN9__gnu_cxx17__normal_iteratorIPKcNSt7__cxx1112basic_stringIcS4_S5_EEEESt5ctypeIcEEEbRT2_RKSG_PNS1_11format_itemIT_T0_T1_EERKT3_mh
  4000: 00000000404f19c0    29 FUNC    WEAK   DEFAULT    4 _ZNSt7__cxx1112basic_stringIcSt11char_traitsIcESaIcEEC2ERKS4_
  4001: 000000004061abf5     7 OBJECT  UNIQUE DEFAULT    9 _ZN16signature_helperIJiiP11epoll_eventiiPK8sigset_tEE3sigE
  4002: 000000004030df40    16 FUNC    WEAK   DEFAULT    4 _ZN5boost9gregorian9bad_monthD2Ev
  4003: 00000000402f3ee0   492 FUNC    GLOBAL DEFAULT    4 _ZN6virtio5vringC2EPNS_13virtio_driverEtt
  4004: 00000000405053d0  4018 FUNC    WEAK   DEFAULT    4 _ZNKSt9money_getIwSt19istreambuf_iteratorIwSt11char_traitsIwEEE10_M_extractILb0EEES3_S3_S3_RSt8ios_baseRSt12_Ios_IostateRSs
  4005: 0000000040395810    94 FUNC    GLOBAL DEFAULT    4 vkprintf
  4006: 00000000404c1b90   270 FUNC    WEAK   DEFAULT    4 _ZNSt14basic_iostreamIwSt11char_traitsIwEEC1EPSt15basic_streambufIwS1_E
  4007: 0000000040268590    53 FUNC    WEAK   DEFAULT    4 _ZN14dynamic_percpuI19autoconstructed_ptrIN8uma_zone5cacheEELm8EE9constructEv
  4008: 00000000405e1600    16 OBJECT  WEAK   DEFAULT    9 _ZTIFvRKNSt7__cxx1112basic_stringIcSt11char_traitsIcESaIcEEEE
  4009: 000000004036ff40   624 FUNC    GLOBAL DEFAULT    4 _ZN9pagecache7releaseEP8vfs_filePvlN3mmu7hw_ptepILi0EEE
  4010: 000000004023e300   108 FUNC    WEAK   DEFAULT    4 _ZN5boost10wrapexceptINS_6system12system_errorEED0Ev
  4011: 00000000404afbf0   188 FUNC    WEAK   DEFAULT    4 _ZNSt7__cxx1114collate_bynameIwEC2EPKcm
  4012: 0000000040547170    46 FUNC    GLOBAL DEFAULT    4 _ZNSt3pmr15__pool_resourceD2Ev
  4013: 00000000403da3f0   159 FUNC    GLOBAL DEFAULT    4 _ZN8vfs_file20read_page_from_cacheEPvl
  4014: 00000000403a9100  1736 FUNC    WEAK   DEFAULT    4 _ZNSt8__detail9_CompilerINSt7__cxx1112regex_traitsIcEEE18_M_expression_termILb0ELb0EEEbRNS4_13_BracketStateERNS_15_BracketMatcherIS3_XT_EXT0_EEE
  4015: 0000000040940fa0    20 OBJECT  GLOBAL DEFAULT   52 AcpiFixedEventCount
  4016: 0000000040403f70    58 FUNC    GLOBAL DEFAULT    4 umount2
  4017: 00000000404b7f70   233 FUNC    WEAK   DEFAULT    4 _ZNSt14basic_ofstreamIwSt11char_traitsIwEEC2EOS2_
  4018: 0000000040369630   255 FUNC    GLOBAL DEFAULT    4 lockfree_mutex_try_lock
  4019: 00000000402cced0   530 FUNC    WEAK   DEFAULT    4 _ZN5boost9intrusive17bstree_algorithmsINS0_18rbtree_node_traitsIPvLb0EEEE5eraseEPNS0_11rbtree_nodeIS3_EES8_RNS0_20data_for_rebalance_tIS8_EE
  4020: 00000000404e80b0   189 FUNC    WEAK   DEFAULT    4 _ZNSt7__cxx1119basic_ostringstreamIcSt11char_traitsIcESaIcEEaSEOS4_
  4021: 00000000403d37d0    56 FUNC    WEAK   DEFAULT    4 _ZNSt17_Function_handlerIFvvEN3osv19rcu_dispose_deleterI4fileEEE10_M_managerERSt9_Any_dataRKS6_St18_Manager_operation
  4022: 0000000040611258    32 OBJECT  WEAK   DEFAULT    9 _ZTV6logger
  4023: 0000000040941160     8 OBJECT  GLOBAL DEFAULT   52 AcpiGbl_OperandCache
  4024: 00000000404b4cb0   491 FUNC    WEAK   DEFAULT    4 _ZNSt13basic_filebufIcSt11char_traitsIcEEC2EOS2_
  4025: 00000000404ee720    76 FUNC    WEAK   DEFAULT    4 _ZNSt15basic_streambufIwSt11char_traitsIwEEC2Ev
  4026: 000000004034ab40    33 FUNC    GLOBAL DEFAULT    4 AcpiHwDisableAllGpes
  4027: 000000004080758c     4 OBJECT  GLOBAL DEFAULT   22 tcp_minmss
  4028: 0000000040338ac0   312 FUNC    WEAK   DEFAULT    4 _Z14unaligned_copyILj12ELj3EEvPvPKvm
  4029: 0000000040621289     3 OBJECT  UNIQUE DEFAULT    9 _ZN16signature_helperIJPN5async12async_workerEPNS0_17percpu_timer_taskEEE3sigE
  4030: 0000000040453780    46 FUNC    GLOBAL DEFAULT    4 _ZNKSt7collateIwE10_M_compareEPKwS2_
  4031: 0000000040939590     8 OBJECT  GLOBAL DEFAULT   52 _ZN5clock2_cE
  4032: 0000000040354d50   131 FUNC    GLOBAL DEFAULT    4 AcpiInitializeTables
  4033: 00000000407fb258    32 OBJECT  WEAK   DEFAULT   21 _ZTIPKa
  4034: 00000000403cd0a0   414 FUNC    GLOBAL DEFAULT    4 sys_getdents64
  4035: 00000000407fc4e8    24 OBJECT  WEAK   DEFAULT   21 _ZTISt19__codecvt_utf8_baseIDsE
  4036: 00000000407fb438    32 OBJECT  WEAK   DEFAULT   21 _ZTIPKb
  4037: 00000000407fb2a8    32 OBJECT  WEAK   DEFAULT   21 _ZTIPKc
  4038: 00000000404e7920   568 FUNC    WEAK   DEFAULT    4 _ZNSt7__cxx1119basic_ostringstreamIcSt11char_traitsIcESaIcEEC2ERKNS_12basic_stringIcS2_S3_EESt13_Ios_Openmode
  4039: 00000000407faee8    32 OBJECT  WEAK   DEFAULT   21 _ZTIPKd
  4040: 00000000404c22a0    57 FUNC    WEAK   DEFAULT    4 _ZTv0_n24_NSiD1Ev
  4041: 000000004061e560    70 OBJECT  WEAK   DEFAULT    9 _ZTSNSt8__detail15_BracketMatcherINSt7__cxx1112regex_traitsIcEELb0ELb0EEE
  4042: 00000000407fae98    32 OBJECT  WEAK   DEFAULT   21 _ZTIPKe
  4043: 000000004054a350   404 FUNC    WEAK   DEFAULT    4 _ZNSt7__cxx1119basic_istringstreamIcSt11char_traitsIcESaIcEEC1ESt13_Ios_OpenmodeRKS3_
  4044: 00000000407faf38    32 OBJECT  WEAK   DEFAULT   21 _ZTIPKf
  4045: 0000000040627fef     3 OBJECT  UNIQUE DEFAULT    9 _ZN16signature_helperIJPKclEE3sigE
  4046: 00000000404f4fc0    83 FUNC    WEAK   DEFAULT    4 _ZNSt8numpunctIwEC1EP15__locale_structm
  4047: 00000000407fac68    32 OBJECT  WEAK   DEFAULT   21 _ZTIPKg
  4048: 00000000407fb208    32 OBJECT  WEAK   DEFAULT   21 _ZTIPKh
  4049: 0000000040247d40    20 FUNC    GLOBAL DEFAULT    4 __stack_chk_fail
  4050: 00000000403ede00    16 FUNC    WEAK   DEFAULT    4 _ZN9mtab_fileD1Ev
  4051: 0000000040267db0    31 FUNC    GLOBAL DEFAULT    4 _ZN8uma_zone5cache5allocEv
  4052: 00000000407fb118    32 OBJECT  WEAK   DEFAULT   21 _ZTIPKi
  4053: 00000000403e1210   216 FUNC    WEAK   DEFAULT    4 _ZN8virtiofs11dax_managerINS_15dax_window_stubEE5unmapEmRNS2_12mapping_partEb
  4054: 00000000403f5a70    75 FUNC    GLOBAL DEFAULT    4 vsscanf
  4055: 00000000403bc480    62 FUNC    WEAK   DEFAULT    4 _ZNSt10unique_ptrISt6vectorIP7pollreqSaIS2_EESt14default_deleteIS4_EED1Ev
  4056: 0000000040344e50   457 FUNC    GLOBAL DEFAULT    4 AcpiUtExecute_CID
  4057: 00000000405fd4c8    56 OBJECT  WEAK   DEFAULT    9 _ZTIN7console10VGAConsoleE
  4058: 000000004024e720   391 FUNC    GLOBAL DEFAULT    4 MD5Update
  4059: 00000000402fd570    32 FUNC    WEAK   DEFAULT    4 _ZNSt17_Function_handlerIFvvESt5_BindIFM14dynamic_percpuIN3osv7xmitterIN6virtio3net3txqELj4096ESt8functionIFbvEEN5boost9iterators24function_output_iteratorINS3_15xmitter_functorIS7_EEEEE11worker_infoELm8EEFvvEPSJ_EEE9_M_invokeERKSt9_Any_data
  4060: 00000000407fb0c8    32 OBJECT  WEAK   DEFAULT   21 _ZTIPKj
  4061: 000000004023ec60   297 FUNC    WEAK   DEFAULT    4 _ZNK5boost4asio5error6detail17addrinfo_category7messageB5cxx11Ei
  4062: 000000004024d270   119 FUNC    GLOBAL DEFAULT    4 SHA512_Init
  4063: 00000000407fb078    32 OBJECT  WEAK   DEFAULT   21 _ZTIPKl
  4064: 000000004045a900    19 FUNC    GLOBAL DEFAULT    4 _ZNSt9__cxx199815_List_node_base6unhookEv
  4065: 00000000407fb028    32 OBJECT  WEAK   DEFAULT   21 _ZTIPKm
  4066: 00000000404eea30    60 FUNC    WEAK   DEFAULT    4 _ZSt17__copy_streambufsIwSt11char_traitsIwEElPSt15basic_streambufIT_T0_ES6_
  4067: 00000000407fad08    32 OBJECT  WEAK   DEFAULT   21 _ZTIPKn
  4068: 00000000402cb2d0    64 FUNC    WEAK   DEFAULT    4 _ZN3mmu18map_file_page_mmap5unmapEPvmNS_7hw_ptepILi0EEE
  4069: 00000000407facb8    32 OBJECT  WEAK   DEFAULT   21 _ZTIPKo
  4070: 0000000040335910    80 FUNC    WEAK   DEFAULT    4 _Z14unaligned_copyILj2ELj13EEvPvPKvm
  4071: 00000000404a0770    36 FUNC    WEAK   DEFAULT    4 _ZNSt7__cxx119money_putIwSt19ostreambuf_iteratorIwSt11char_traitsIwEEED0Ev
  4072: 0000000040507c80    21 FUNC    WEAK   DEFAULT    4 _ZNSt7__cxx1112basic_stringIwSt11char_traitsIwESaIwEE6assignEmw
  4073: 0000000040612740    16 OBJECT  WEAK   DEFAULT    9 _ZTISt24_Weak_result_type_memfunIM14dynamic_percpuIN6memory4pool14free_list_typeELm8EEFvvELb1EE
  4074: 0000000040299af0   104 FUNC    GLOBAL DEFAULT    4 tcp_teardown_net_channel
  4075: 00000000407fb1b8    32 OBJECT  WEAK   DEFAULT   21 _ZTIPKs
  4076: 000000004098cd98     8 OBJECT  UNIQUE DEFAULT   52 _ZGVNSt7num_getIwSt19istreambuf_iteratorIwSt11char_traitsIwEEE2idE
  4077: 00000000405faec8    12 OBJECT  WEAK   DEFAULT    9 _ZTSN3elf4fileE
  4078: 00000000407fb168    32 OBJECT  WEAK   DEFAULT   21 _ZTIPKt
  4079: 000000004034f3e0   906 FUNC    GLOBAL DEFAULT    4 AcpiExExtractFromField
  4080: 00000000403081d0    16 FUNC    GLOBAL DEFAULT    4 _ZN3vmw15vmxnet3_txqueue8transmitEP4mbuf
  4081: 0000000040325aa0    38 FUNC    WEAK   DEFAULT    4 _Z15do_small_memcpyILm27EEPvS0_PKv
  4082: 00000000405f0340    81 OBJECT  WEAK   DEFAULT    9 _ZTSN3osv19rcu_dispose_deleterINS_13rcu_hashtableI9epoll_ptrSt4hashIS2_EE7elementEEE
  4083: 000000004040d510   191 FUNC    GLOBAL DEFAULT    4 ceil
  4084: 00000000407fb488    32 OBJECT  WEAK   DEFAULT   21 _ZTIPKv
  4085: 0000000040348e50    78 FUNC    GLOBAL DEFAULT    4 AcpiUtCreatePkgState
  4086: 00000000404b1680    27 FUNC    GLOBAL DEFAULT    4 _ZNK11__gnu_debug19_Safe_iterator_base11_M_singularEv
  4087: 00000000404bcf50   225 FUNC    WEAK   DEFAULT    4 _ZNSt14basic_ofstreamIwSt11char_traitsIwEEC2ERKNSt7__cxx1112basic_stringIcS0_IcESaIcEEESt13_Ios_Openmode
  4088: 00000000404b2710   111 FUNC    WEAK   DEFAULT    4 _ZN9__gnu_cxx18stdio_sync_filebufIwSt11char_traitsIwEE6xsgetnEPwl
  4089: 00000000407fb3e8    32 OBJECT  WEAK   DEFAULT   21 _ZTIPKw
  4090: 00000000405fb8f8    32 OBJECT  WEAK   DEFAULT    9 _ZTVN3pci3barE
  4091: 00000000407fafd8    32 OBJECT  WEAK   DEFAULT   21 _ZTIPKx
  4092: 0000000040548220   520 FUNC    WEAK   DEFAULT    4 _ZNSt6vectorINSt3pmr15__pool_resource9_BigBlockENS0_21polymorphic_allocatorIS2_EEE17_M_realloc_insertIJRmS7_EEEvN9__gnu_cxx17__normal_iteratorIPS2_S5_EEDpOT_
  4093: 00000000407faf88    32 OBJECT  WEAK   DEFAULT   21 _ZTIPKy
  4094: 0000000040668e21     1 OBJECT  GLOBAL DEFAULT    9 _ZNSt14numeric_limitsIdE15has_denorm_lossE
  4095: 0000000040410390    97 FUNC    GLOBAL DEFAULT    4 fdim
  4096: 0000000040318e90    81 FUNC    GLOBAL DEFAULT    4 _ZN3aws3enaC1ERN3pci6deviceE
  4097: 000000004062cbd8    24 OBJECT  WEAK   DEFAULT    9 _ZTI15posix_semaphore
  4098: 0000000040664840    16 OBJECT  WEAK   DEFAULT    9 _ZTSSt11logic_error
  4099: 00000000406116e8    16 OBJECT  WEAK   DEFAULT    9 _ZTISt24_Weak_result_type_memfunIMN9pagecache14access_scannerEFvvELb1EE
  4100: 00000000402f1d80    23 FUNC    GLOBAL DEFAULT    4 _ZN6virtio24virtio_legacy_pci_device22get_available_featuresEv
  4101: 000000004051c6d0   180 FUNC    WEAK   DEFAULT    4 _ZNSt12__shared_ptrIKNSt10filesystem16filesystem_error5_ImplELN9__gnu_cxx12_Lock_policyE2EEaSEOS6_
  4102: 000000004030c810    10 FUNC    GLOBAL DEFAULT    4 AcpiOsWritable
  4103: 0000000040503880   495 FUNC    WEAK   DEFAULT    4 _ZNKSt8time_getIwSt19istreambuf_iteratorIwSt11char_traitsIwEEE6do_getES3_S3_RSt8ios_baseRSt12_Ios_IostateP2tmcc
  4104: 0000000040467140     5 FUNC    WEAK   DEFAULT    4 _ZN9__gnu_cxx12__pool_allocIcED2Ev
  4105: 00000000402f4a00    33 FUNC    WEAK   DEFAULT    4 _ZN6virtio11mmio_deviceD1Ev
  4106: 00000000404e00c0     9 FUNC    WEAK   DEFAULT    4 _ZNSolsEPKv
  4107: 00000000402962f0    95 FUNC    GLOBAL DEFAULT    4 igmp_uninit
  4108: 0000000040460040    83 FUNC    WEAK   DEFAULT    4 _ZNSt7__cxx1112basic_stringIwSt11char_traitsIwESaIwEE7replaceEN9__gnu_cxx17__normal_iteratorIPwS4_EES8_S7_S7_
  4109: 00000000404a0420    29 FUNC    GLOBAL DEFAULT    4 _ZNSt12length_errorC1ERKNSt7__cxx1112basic_stringIcSt11char_traitsIcESaIcEEE
  4110: 0000000040396960    97 FUNC    GLOBAL DEFAULT    4 _Z20list_all_tracepointsv
  4111: 0000000040629fa0    48 OBJECT  WEAK   DEFAULT    9 _ZTVN8pseudofs16pseudo_file_nodeE
  4112: 000000004023cbd0    13 FUNC    WEAK   DEFAULT    4 _ZNSt17_Function_handlerIFvRKNSt7__cxx1112basic_stringIcSt11char_traitsIcESaIcEEEEPS8_E9_M_invokeERKSt9_Any_dataS7_
  4113: 00000000403258d0    27 FUNC    WEAK   DEFAULT    4 _Z15do_small_memcpyILm13EEPvS0_PKv
  4114: 00000000406668c1     1 OBJECT  UNIQUE DEFAULT    9 _ZNSt7__cxx1117moneypunct_bynameIwLb1EE4intlE
  4115: 000000004039b500    14 FUNC    WEAK   DEFAULT    4 _ZNSt17_Function_handlerIFbcENSt8__detail12_CharMatcherINSt7__cxx1112regex_traitsIcEELb0ELb0EEEE9_M_invokeERKSt9_Any_dataOc
  4116: 0000000040668e7c     1 OBJECT  GLOBAL DEFAULT    9 _ZNSt14numeric_limitsIfE8is_exactE
  4117: 00000000403b0960   710 FUNC    GLOBAL DEFAULT    4 _ZN19callstack_collector9histogramEm
  4118: 00000000404825d0   153 FUNC    GLOBAL DEFAULT    4 _ZGTtNSt13runtime_errorC1ERKNSt7__cxx1112basic_stringIcSt11char_traitsIcESaIcEEE
  4119: 0000000040408250   108 FUNC    WEAK   DEFAULT    4 strerror_l
  4120: 00000000402a8e30  2261 FUNC    GLOBAL DEFAULT    4 tcp_ctloutput
  4121: 00000000403cbe20    36 FUNC    GLOBAL DEFAULT    4 __openat_2
  4122: 00000000404e6ed0   125 FUNC    WEAK   DEFAULT    4 _ZNSt7__cxx1119basic_istringstreamIcSt11char_traitsIcESaIcEED2Ev
  4123: 00000000403ce780    20 FUNC    GLOBAL DEFAULT    4 stat
  4124: 00000000404f15e0     8 FUNC    WEAK   DEFAULT    4 _ZNSt7__cxx1112basic_stringIcSt11char_traitsIcESaIcEE12_Alloc_hiderC1EPcRKS3_
  4125: 00000000404834c0    13 FUNC    WEAK   DEFAULT    4 _ZNKSs12find_last_ofEcm
  4126: 00000000405f8dc8    11 OBJECT  WEAK   DEFAULT    9 _ZTSN3mmu3vmaE
  4127: 00000000402656a0    84 FUNC    GLOBAL DEFAULT    4 bioq_insert_head
  4128: 00000000403f74d0    31 FUNC    GLOBAL DEFAULT    4 strerror_r
  4129: 00000000402a1f10   133 FUNC    GLOBAL DEFAULT    4 tcp_sack_output
  4130: 0000000040807324     4 OBJECT  GLOBAL DEFAULT   22 ipport_lowfirstauto
  4131: 000000004031d780    14 FUNC    GLOBAL DEFAULT    4 _ZN3mmu24is_page_fault_prot_writeEj
  4132: 000000004033cc60   284 FUNC    WEAK   DEFAULT    4 _Z14unaligned_copyILj11ELj10EEvPvPKvm
  4133: 000000004031ed30    73 FUNC    GLOBAL DEFAULT    4 _ZN26interrupt_descriptor_table9add_entryEjjPFvvE
  4134: 00000000405fdcf0    29 OBJECT  WEAK   DEFAULT    9 _ZTSN6virtio17virtio_pci_deviceE
  4135: 00000000405097b0     8 FUNC    WEAK   DEFAULT    4 _ZNSt7__cxx1112basic_stringIwSt11char_traitsIwESaIwEE12_Alloc_hiderC2EPwOS3_
  4136: 000000004093caa0     4 OBJECT  GLOBAL DEFAULT   52 _ZN6virtio2fs9_instanceE
  4137: 00000000404baba0   137 FUNC    WEAK   DEFAULT    4 _ZNSt14basic_ofstreamIcSt11char_traitsIcEED2Ev
  4138: 00000000403a1060   965 FUNC    WEAK   DEFAULT    4 _ZNSt6vectorIN5trace10event_infoESaIS1_EE17_M_realloc_insertIJS1_EEEvN9__gnu_cxx17__normal_iteratorIPS1_S3_EEDpOT_
  4139: 000000004033f500   128 FUNC    WEAK   DEFAULT    4 _Z14unaligned_copyILj5ELj5EEvPvPKvm
  4140: 0000000040605e00    24 OBJECT  WEAK   DEFAULT    9 _ZTIN8xenfront15xenplatform_pciE
  4141: 00000000402c4280    55 FUNC    GLOBAL DEFAULT    4 live_entropy_sources_empty
  4142: 000000004030dea0    42 FUNC    WEAK   DEFAULT    4 _ZN5boost7numeric16bad_numeric_castD0Ev
  4143: 0000000040343380    59 FUNC    GLOBAL DEFAULT    4 AcpiRsEncodeBitmask
  4144: 00000000403f98f0     8 FUNC    GLOBAL DEFAULT    4 _ZN15pthread_private9from_libcEPK14pthread_attr_t
  4145: 00000000404266a0   208 FUNC    GLOBAL DEFAULT    4 tmpnam
  4146: 000000004025e580    10 FUNC    GLOBAL DEFAULT    4 pru_rcvd_notsupp
  4147: 00000000404387ba     0 FUNC    GLOBAL DEFAULT    4 feraiseexcept
  4148: 0000000040261810   242 FUNC    GLOBAL DEFAULT    4 sbuf_new
  4149: 00000000402aece0   128 FUNC    GLOBAL DEFAULT    4 _Z20xs_transaction_startP14xs_transaction
  4150: 000000004040af50   469 FUNC    GLOBAL DEFAULT    4 acos
  4151: 0000000040406cf0    22 FUNC    GLOBAL DEFAULT    4 __iscntrl_l
  4152: 00000000402a9950   148 FUNC    GLOBAL DEFAULT    4 cc_modevent
  4153: 00000000402af470   453 FUNC    GLOBAL DEFAULT    4 _Z17xs_register_watchP8xs_watch
  4154: 0000000040295160  2413 FUNC    GLOBAL DEFAULT    4 _Z13igmp_fasttimov
  4155: 00000000404e24f0   499 FUNC    WEAK   DEFAULT    4 _ZNSt13basic_ostreamIwSt11char_traitsIwEE9_M_insertIeEERS2_T_
  4156: 0000000040328580   271 FUNC    WEAK   DEFAULT    4 _Z13do_sse_memcpyILj20E14load_unaligned15store_unalignedEvPvPKv
  4157: 00000000404ef120    24 FUNC    WEAK   DEFAULT    4 _ZNSt7__cxx1112basic_stringIcSt11char_traitsIcESaIcEEC2Ev
  4158: 0000000040484660    20 FUNC    WEAK   DEFAULT    4 _ZNSsaSESt16initializer_listIcE
  4159: 000000004030c6a0   166 FUNC    GLOBAL DEFAULT    4 AcpiOsReadPciConfiguration
  4160: 000000004047b730   304 FUNC    WEAK   DEFAULT    4 _ZNSt19basic_ostringstreamIcSt11char_traitsIcESaIcEEC2EOS3_
  4161: 00000000404e6860   354 FUNC    WEAK   DEFAULT    4 _ZNSt7__cxx1119basic_istringstreamIcSt11char_traitsIcESaIcEEC1ESt13_Ios_Openmode
  4162: 00000000403f75a0   255 FUNC    GLOBAL DEFAULT    4 stresep
  4163: 000000004023ce70    25 FUNC    WEAK   DEFAULT    4 _ZNSt6vectorI6mntentSaIS0_EED1Ev
  4164: 0000000040411cd0   315 FUNC    GLOBAL DEFAULT    4 j0
  4165: 0000000040520b20  2568 FUNC    GLOBAL DEFAULT    4 _ZNSt10filesystem4path9_M_appendESt17basic_string_viewIcSt11char_traitsIcEE
  4166: 000000004061ac45     5 OBJECT  UNIQUE DEFAULT    9 _ZN16signature_helperIJiiP8sockaddriEE3sigE
  4167: 00000000403da290    72 FUNC    GLOBAL DEFAULT    4 _ZN8vfs_file4statEP4stat
  4168: 00000000404801f0   428 FUNC    WEAK   DEFAULT    4 _ZNSt18basic_stringstreamIwSt11char_traitsIwESaIwEEC1Ev
  4169: 0000000040412ea0   250 FUNC    GLOBAL DEFAULT    4 j1
  4170: 000000004042d980    14 FUNC    GLOBAL DEFAULT    4 gmtime
  4171: 0000000040668f80     4 OBJECT  GLOBAL DEFAULT    9 _ZNSt14numeric_limitsImE11round_styleE
  4172: 00000000405faf20    26 OBJECT  WEAK   DEFAULT    9 _ZTSN3osv17invalid_elf_errorE
  4173: 00000000404c00b0    13 FUNC    WEAK   DEFAULT    4 _ZNKSt9basic_iosIwSt11char_traitsIwEE3eofEv
  4174: 000000004039b5e0    33 FUNC    WEAK   DEFAULT    4 _ZN6percpuI9trace_bufED2Ev
  4175: 00000000407fda58    56 OBJECT  WEAK   DEFAULT   21 _ZTISt5ctypeIcE
  4176: 00000000405e1588    16 OBJECT  WEAK   DEFAULT    9 _ZTIN5boost16base_from_memberINS_10shared_ptrINS_2io18basic_altstringbufIcSt11char_traitsIcESaIcEEEEELi0EEE
  4177: 0000000040463210  1479 FUNC    GLOBAL DEFAULT    4 _ZNSt10moneypunctIwLb1EE24_M_initialize_moneypunctEP15__locale_structPKc
  4178: 000000004093be40     4 OBJECT  GLOBAL DEFAULT   52 _ZN6virtio3blk9_instanceE
  4179: 00000000403054f0   171 FUNC    GLOBAL DEFAULT    4 _ZN6virtio2fs11read_configEv
  4180: 00000000402ba600    62 FUNC    GLOBAL DEFAULT    4 ena_com_cq_empty
  4181: 00000000402f9c20   403 FUNC    GLOBAL DEFAULT    4 _ZN4nvme13io_queue_pair21submit_read_write_cmdEtjimjP3bio
  4182: 0000000040485ba0    16 FUNC    WEAK   DEFAULT    4 _ZNSs7replaceEmmRKSs
  4183: 00000000404419b0    27 FUNC    GLOBAL DEFAULT    4 _ZNSt10bad_typeidD0Ev
  4184: 0000000040402770    16 FUNC    WEAK   DEFAULT    4 _ZN9pipe_fileD1Ev
  4185: 000000004026dda0    84 FUNC    GLOBAL DEFAULT    4 linux_sendmsg
  4186: 00000000409191c0     8 OBJECT  GLOBAL DEFAULT   52 ip_rsvpd
  4187: 0000000040407ce0   145 FUNC    GLOBAL DEFAULT    4 getenv
  4188: 00000000403973d0   138 FUNC    GLOBAL DEFAULT    4 _ZN5trace14get_event_infoERKNSt7__cxx1112basic_stringIcSt11char_traitsIcESaIcEEE
  4189: 00000000403fb1e0    13 FUNC    GLOBAL DEFAULT    4 pthread_gettid_np
  4190: 0000000040495f60    34 FUNC    WEAK   DEFAULT    4 _ZNKSt7__cxx1110moneypunctIcLb0EE13thousands_sepEv
  4191: 00000000403139c0    13 FUNC    GLOBAL DEFAULT    4 _ZThn8_N3vmw6pvscsi12make_requestEP3bio
  4192: 00000000402f3030   162 FUNC    WEAK   DEFAULT    4 _ZN6virtio24virtio_modern_pci_deviceD1Ev
  4193: 00000000404de040   112 FUNC    WEAK   DEFAULT    4 _ZNSo6sentryD2Ev
  4194: 00000000403e5b20    60 FUNC    WEAK   DEFAULT    4 _ZN8pseudofs19pseudo_symlink_nodeD0Ev
  4195: 000000004098c410     8 OBJECT  GLOBAL DEFAULT   52 _ZN9__gnu_cxx17__pool_alloc_base11_S_end_freeE
  4196: 000000004061e0e0    70 OBJECT  WEAK   DEFAULT    9 _ZTSNSt8__detail11_AnyMatcherINSt7__cxx1112regex_traitsIcEELb0ELb0ELb0EEE
  4197: 0000000040266d80     5 FUNC    GLOBAL DEFAULT    4 ifmedia_set
  4198: 00000000404ead30   280 FUNC    WEAK   DEFAULT    4 _ZNSt7__cxx1119basic_istringstreamIwSt11char_traitsIwESaIwEEC2Ev
  4199: 0000000040604a10    16 OBJECT  WEAK   DEFAULT    9 _ZTIZN3osv14acpi_interruptC4EjPFjPvES1_EUlvE0_
  4200: 00000000403fd5d0    37 FUNC    GLOBAL DEFAULT    4 _ZN3osv17handle_mmap_faultEmiP15exception_frame
  4201: 0000000040514980   217 FUNC    WEAK   DEFAULT    4 _ZSt8_DestroyISt15_Deque_iteratorINSt10filesystem4pathERS2_PS2_EEvT_S6_
  4202: 0000000040549400   123 FUNC    WEAK   DEFAULT    4 _ZNSt7__cxx1115basic_stringbufIcSt11char_traitsIcESaIcEEC2ERKS3_
  4203: 00000000405224b0    30 FUNC    WEAK   DEFAULT    4 _ZNSs4dataEv
  4204: 000000004052ea20     5 FUNC    WEAK   DEFAULT    4 _ZNSt23_Sp_counted_ptr_inplaceINSt10filesystem7__cxx1128recursive_directory_iterator10_Dir_stackESaIS3_ELN9__gnu_cxx12_Lock_policyE2EED2Ev
  4205: 00000000404bd580   165 FUNC    WEAK   DEFAULT    4 _ZTv0_n24_NSt14basic_ifstreamIwSt11char_traitsIwEED1Ev
  4206: 0000000040802490    40 OBJECT  WEAK   DEFAULT   21 _ZTVNSt10filesystem7__cxx1116filesystem_errorE
  4207: 000000004033b7a0   340 FUNC    WEAK   DEFAULT    4 _Z14unaligned_copyILj13ELj11EEvPvPKvm
  4208: 000000004044f130  1548 FUNC    GLOBAL DEFAULT    4 _ZNK10__cxxabiv121__vmi_class_type_info12__do_dyncastElNS_17__class_type_info10__sub_kindEPKS1_PKvS4_S6_RNS1_16__dyncast_resultE
  4209: 0000000040406c90    22 FUNC    GLOBAL DEFAULT    4 isblank
  4210: 0000000040334ca0    18 FUNC    WEAK   DEFAULT    4 _Z13do_short_copyILj3EEvPvPKv
  4211: 0000000040468b70   153 FUNC    GLOBAL DEFAULT    4 _ZNSt12strstreambuf8_M_setupEPcS0_l
  4212: 00000000404966b0   250 FUNC    WEAK   DEFAULT    4 _ZNSt7__cxx1117moneypunct_bynameIcLb0EEC2EPKcm
  4213: 0000000040344210   110 FUNC    GLOBAL DEFAULT    4 AcpiGetIrqRoutingTable
  4214: 0000000040485970    28 FUNC    WEAK   DEFAULT    4 _ZNSsC1EPKcmRKSaIcE
  4215: 00000000403b0920    49 FUNC    GLOBAL DEFAULT    4 _ZN19callstack_collector5traceC2EPPvj
  4216: 0000000040481690    29 FUNC    GLOBAL DEFAULT    4 _ZNSt12length_errorC1EPKc
  4217: 00000000404be313    88 FUNC    GLOBAL DEFAULT    4 _ZSt22__throw_overflow_errorPKc
  4218: 0000000040326810   143 FUNC    WEAK   DEFAULT    4 _Z13do_sse_memcpyILj12E12load_aligned13store_alignedEvPvPKv
  4219: 0000000040663345     1 OBJECT  GLOBAL DEFAULT    9 _ZSt7nothrow
  4220: 00000000404cbd90   101 FUNC    WEAK   DEFAULT    4 _ZNSt11__timepunctIcEC2EPSt17__timepunct_cacheIcEm
  4221: 000000004054dd90   147 FUNC    WEAK   DEFAULT    4 _ZNKRSt7__cxx1115basic_stringbufIcSt11char_traitsIcESaIcEE3strEv
  4222: 00000000403be3f0   376 FUNC    GLOBAL DEFAULT    4 _ZN5async9run_laterEOSt8functionIFvvEE
  4223: 0000000040396c10   145 FUNC    GLOBAL DEFAULT    4 _ZN15tracepoint_base10run_probesEv
  4224: 0000000040669234     4 OBJECT  GLOBAL DEFAULT    9 _ZNSt21__numeric_limits_base12min_exponentE
  4225: 0000000040343650    73 FUNC    GLOBAL DEFAULT    4 AcpiRsGetCrsMethodData
  4226: 00000000407fc7d0    88 OBJECT  WEAK   DEFAULT   21 _ZTVSt7codecvtIDsDu11__mbstate_tE
  4227: 000000004039b460    34 FUNC    WEAK   DEFAULT    4 _ZNSt17_Function_handlerIFbcENSt8__detail11_AnyMatcherINSt7__cxx1112regex_traitsIcEELb0ELb0ELb0EEEE10_M_managerERSt9_Any_dataRKS8_St18_Manager_operation
  4228: 000000004031a540    33 FUNC    GLOBAL DEFAULT    4 resolve_fpu_state_restore
  4229: 00000000405e93b1     4 OBJECT  UNIQUE DEFAULT    9 _ZN16signature_helperIJP5tcpcbiiEE3sigE
  4230: 0000000040393540   300 FUNC    GLOBAL DEFAULT    4 _ZN5sched6thread6reaperC2Ev
  4231: 00000000403e57a0    10 FUNC    WEAK   DEFAULT    4 _ZNK8pseudofs16pseudo_file_node4modeEv
  4232: 000000004041ce40   302 FUNC    WEAK   DEFAULT    4 nftw64
  4233: 00000000404f5b70    10 FUNC    WEAK   DEFAULT    4 _ZNKSt8time_getIwSt19istreambuf_iteratorIwSt11char_traitsIwEEE8get_dateES3_S3_RSt8ios_baseRSt12_Ios_IostateP2tm
  4234: 00000000405e9818    40 OBJECT  WEAK   DEFAULT    9 _ZTV12bsd_shrinker
  4235: 000000004050a9e0    42 FUNC    WEAK   DEFAULT    4 _ZNSt12__shared_ptrINSt10filesystem28recursive_directory_iterator10_Dir_stackELN9__gnu_cxx12_Lock_policyE2EEC2EOS5_
  4236: 00000000403705e0    99 FUNC    WEAK   DEFAULT    4 _ZNSt5dequeIPN9pagecache17cached_page_writeESaIS2_EED1Ev
  4237: 00000000407fbe40    40 OBJECT  WEAK   DEFAULT   21 _ZTVSt16invalid_argument
  4238: 00000000402d7730   461 FUNC    GLOBAL DEFAULT    4 _ZN3elf6object14run_init_funcsEiPPc
  4239: 0000000040256530    61 FUNC    GLOBAL DEFAULT    4 sbrelease_locked
  4240: 000000004092dca0     4 OBJECT  GLOBAL DEFAULT   52 tcp_keepidle
  4241: 0000000040507490     9 FUNC    WEAK   DEFAULT    4 _ZNKSt7__cxx1112basic_stringIwSt11char_traitsIwESaIwEE4sizeEv
  4242: 00000000404b2ef0   190 FUNC    WEAK   DEFAULT    4 _ZN9__gnu_cxx13stdio_filebufIwSt11char_traitsIwEEC1EiSt13_Ios_Openmodem
  4243: 00000000404851e0    98 FUNC    WEAK   DEFAULT    4 _ZNSsC2ERKSsRKSaIcE
  4244: 0000000040374560   197 FUNC    GLOBAL DEFAULT    4 _ZN6memory4pool18free_different_cpuEPNS_11free_objectEjj
  4245: 00000000404f3e50    80 FUNC    WEAK   DEFAULT    4 _ZSt9use_facetISt9money_putIwSt19ostreambuf_iteratorIwSt11char_traitsIwEEEERKT_RKSt6locale
  4246: 0000000040313bf0    80 FUNC    GLOBAL DEFAULT    4 _ZN3vmw6pvscsi9kick_descEh
  4247: 0000000040450250    12 FUNC    WEAK   DEFAULT    4 _ZN9__gnu_cxx8__detail13__mini_vectorISt4pairIPNS_16bitmap_allocatorIcE12_Alloc_blockES6_EE10deallocateEPS7_m
  4248: 00000000403fcf70    52 FUNC    GLOBAL DEFAULT    4 clock_nanosleep
  4249: 00000000404e84a0   440 FUNC    WEAK   DEFAULT    4 _ZNSt7__cxx1118basic_stringstreamIcSt11char_traitsIcESaIcEEC1Ev
  4250: 0000000040481900   214 FUNC    GLOBAL DEFAULT    4 _ZNSt12__cow_stringC1EPKcm
  4251: 00000000407ff2c0   128 OBJECT  WEAK   DEFAULT   21 _ZTVN9__gnu_cxx13stdio_filebufIwSt11char_traitsIwEEE
  4252: 00000000402635c0   110 FUNC    GLOBAL DEFAULT    4 sbuf_vprintf
  4253: 000000004080ac20    80 OBJECT  GLOBAL DEFAULT   22 AcpiGbl_BitRegisterInfo
  4254: 0000000040306b60   202 FUNC    GLOBAL DEFAULT    4 _ZN3vmw7vmxnet319allocate_interruptsEv
  4255: 0000000040668ea4     4 OBJECT  GLOBAL DEFAULT    9 _ZNSt14numeric_limitsIoE14max_exponent10E
  4256: 00000000404853e0     8 FUNC    WEAK   DEFAULT    4 _ZNSs12_Alloc_hiderC1EPcRKSaIcE
  4257: 00000000403793d0    33 FUNC    WEAK   DEFAULT    4 _ZN10c_shrinkerD1Ev
  4258: 00000000404790a0    61 FUNC    WEAK   DEFAULT    4 _ZNSt15basic_stringbufIcSt11char_traitsIcESaIcEE8_M_pbumpEPcS4_l
  4259: 0000000040288e10   183 FUNC    GLOBAL DEFAULT    4 _Z25ip_msource_tree_RB_INSERTP15ip_msource_treeP10ip_msource
  4260: 0000000040369c60    23 FUNC    GLOBAL DEFAULT    4 _ZN6rwlock6wownedEv
  4261: 000000004036c5e0     5 FUNC    WEAK   DEFAULT    4 _ZN5boost2io6detail13call_put_headIcSt11char_traitsIcEPKcEEvRSt13basic_ostreamIT_T0_EPKv
  4262: 00000000404afb50    62 FUNC    WEAK   DEFAULT    4 _ZNSt7__cxx117collateIwEC1EP15__locale_structm
  4263: 0000000040549e10    73 FUNC    WEAK   DEFAULT    4 _ZNKSt7__cxx1119basic_istringstreamIwSt11char_traitsIwESaIwEE4viewEv
  4264: 00000000404b3680   342 FUNC    WEAK   DEFAULT    4 _ZNSt13basic_filebufIwSt11char_traitsIwEE9pbackfailEj
  4265: 00000000404bd1f0    88 FUNC    WEAK   DEFAULT    4 _ZNSt13basic_filebufIwSt11char_traitsIwEED0Ev
  4266: 00000000402ebeb0    19 FUNC    GLOBAL DEFAULT    4 _Z19tsm_screen_get_optsP10tsm_screen
  4267: 000000004093d784     4 OBJECT  GLOBAL DEFAULT   52 _ZN3vmw6pvscsi9_instanceE
  4268: 000000004050bd10   200 FUNC    WEAK   DEFAULT    4 _ZNSsC2ISaIcEEEPKcRKS0_
  4269: 0000000040408ff0   131 FUNC    GLOBAL DEFAULT    4 wcsxfrm
  4270: 00000000403d65b0    97 FUNC    GLOBAL DEFAULT    4 vn_lock
  4271: 000000004031d770    11 FUNC    GLOBAL DEFAULT    4 _ZN3mmu29is_page_fault_write_exclusiveEj
  4272: 00000000404c25b0    27 FUNC    WEAK   DEFAULT    4 _ZNSirsEPFRSt8ios_baseS0_E
  4273: 0000000040322480     8 FUNC    GLOBAL DEFAULT    4 _ZN25inter_processor_interrupt10set_vectorEj
  4274: 0000000040268150   416 FUNC    GLOBAL DEFAULT    4 uma_zcreate
  4275: 0000000040985280    40 OBJECT  GLOBAL DEFAULT   52 _ZN3osv8dns_lockE
  4276: 00000000405e19e0    24 OBJECT  WEAK   DEFAULT    9 _ZTIN5boost6system12system_errorE
  4277: 00000000403705d0    10 FUNC    WEAK   DEFAULT    4 _ZNK5boost7bad_get4whatEv
  4278: 0000000040352c50    47 FUNC    GLOBAL DEFAULT    4 AcpiExEnterInterpreter
  4279: 0000000040917010     8 OBJECT  GLOBAL DEFAULT   52 bridge_linkstate_p
  4280: 00000000404e3073    80 FUNC    GLOBAL DEFAULT    4 _ZSt19__throw_regex_errorNSt15regex_constants10error_typeE
  4281: 00000000404cc420    10 FUNC    WEAK   DEFAULT    4 _ZNKSt8time_getIcSt19istreambuf_iteratorIcSt11char_traitsIcEEE8get_timeES3_S3_RSt8ios_baseRSt12_Ios_IostateP2tm
  4282: 00000000403cde10   516 FUNC    GLOBAL DEFAULT    4 fchdir
  4283: 00000000406691e8     1 OBJECT  GLOBAL DEFAULT    9 _ZNSt14numeric_limitsIbE17has_signaling_NaNE
  4284: 0000000040484060    30 FUNC    WEAK   DEFAULT    4 _ZNSs5frontEv
  4285: 00000000404cc3d0    30 FUNC    WEAK   DEFAULT    4 _ZNSt15time_put_bynameIcSt19ostreambuf_iteratorIcSt11char_traitsIcEEEC2ERKSsm
  4286: 0000000040387350     5 FUNC    WEAK   DEFAULT    4 _ZN5boost6detail17sp_counted_impl_pINS_6spirit2qi3tstIKcS5_EEED1Ev
  4287: 0000000040801820    24 OBJECT  WEAK   DEFAULT   21 _ZTISt14collate_bynameIwE
  4288: 000000004066912a     1 OBJECT  GLOBAL DEFAULT    9 _ZNSt14numeric_limitsIhE9is_moduloE
  4289: 00000000405399f0  5697 FUNC    WEAK   DEFAULT    4 _ZNSt5dequeINSt10filesystem7__cxx114pathESaIS2_EE13_M_insert_auxINS2_8iteratorEEEvSt15_Deque_iteratorIS2_RS2_PS2_ET_SB_m
  4290: 0000000040667f80    39 OBJECT  WEAK   DEFAULT    9 _ZTSSt13basic_filebufIwSt11char_traitsIwEE
  4291: 00000000403f2840    16 FUNC    GLOBAL DEFAULT    4 getchar
  4292: 00000000404c5c00   161 FUNC    WEAK   DEFAULT    4 _ZNSt13basic_istreamIwSt11char_traitsIwEEC2EOS2_
  4293: 00000000404ce9b0    80 FUNC    WEAK   DEFAULT    4 _ZSt9use_facetISt11__timepunctIcEERKT_RKSt6locale
  4294: 000000004039f050   762 FUNC    WEAK   DEFAULT    4 _ZNSt6vectorINSt8__detail6_StateIcEESaIS2_EE17_M_realloc_insertIJS2_EEEvN9__gnu_cxx17__normal_iteratorIPS2_S4_EEDpOT_
  4295: 0000000040343740    68 FUNC    GLOBAL DEFAULT    4 AcpiRsGetMethodData
  4296: 000000004026dd00   159 FUNC    GLOBAL DEFAULT    4 linux_recvfrom
  4297: 00000000403484c0    22 FUNC    GLOBAL DEFAULT    4 AcpiUtAcquireWriteLock
  4298: 00000000404bb580   280 FUNC    WEAK   DEFAULT    4 _ZNSt13basic_fstreamIwSt11char_traitsIwEEC2Ev
  4299: 00000000405430f0  2067 FUNC    GLOBAL DEFAULT    4 _ZNSt10filesystem7__cxx114pathpLERKS1_
  4300: 000000004034bee0    73 FUNC    GLOBAL DEFAULT    4 AcpiExPciConfigSpaceHandler
  4301: 000000004046c1e0     7 FUNC    GLOBAL DEFAULT    4 _ZNKSt7codecvtIDsDu11__mbstate_tE16do_always_noconvEv
  4302: 0000000040413a10  1186 FUNC    GLOBAL DEFAULT    4 jn
  4303: 00000000403ca3a0    73 FUNC    GLOBAL DEFAULT    4 _Z15fileref_from_fdi
  4304: 000000004026b190    18 FUNC    GLOBAL DEFAULT    4 vm_throttling_needed
  4305: 0000000040497050    10 FUNC    WEAK   DEFAULT    4 _ZNKSt7__cxx118time_getIcSt19istreambuf_iteratorIcSt11char_traitsIcEEE11get_weekdayES4_S4_RSt8ios_baseRSt12_Ios_IostateP2tm
  4306: 0000000040668110    17 OBJECT  WEAK   DEFAULT    9 _ZTSSt12future_error
  4307: 0000000040669076     1 OBJECT  GLOBAL DEFAULT    9 _ZNSt14numeric_limitsItE9is_moduloE
  4308: 0000000040302620     9 FUNC    GLOBAL DEFAULT    4 _ZN6virtio4scsi5probeEPN2hw9hw_deviceE
  4309: 00000000402f6460  1100 FUNC    GLOBAL DEFAULT    4 _ZN4nvme6driver24register_admin_interruptEv
  4310: 00000000402c9cf0   195 FUNC    GLOBAL DEFAULT    4 _ZN3mmu11vdepopulateEPvm
  4311: 00000000404a07f0    23 FUNC    WEAK   DEFAULT    4 _ZNSt7__cxx1115time_get_bynameIwSt19istreambuf_iteratorIwSt11char_traitsIwEEED1Ev
  4312: 00000000402f2d70   373 FUNC    GLOBAL DEFAULT    4 _ZN6virtio24virtio_modern_pci_device16parse_pci_configEv
  4313: 00000000403435b0    76 FUNC    GLOBAL DEFAULT    4 AcpiRsSetResourceSource
  4314: 00000000404c6470   351 FUNC    WEAK   DEFAULT    4 _ZNSt13basic_istreamIwSt11char_traitsIwEErsEPSt15basic_streambufIwS1_E
  4315: 000000004030d6d0    16 FUNC    WEAK   DEFAULT    4 _ZN16hpet_32bit_clockD2Ev
  4316: 000000004046c1e0     7 FUNC    GLOBAL DEFAULT    4 _ZNKSt20__codecvt_utf16_baseIwE16do_always_noconvEv
  4317: 000000004029e5c0  9692 FUNC    GLOBAL DEFAULT    4 tcp_output
  4318: 00000000407fffe0    56 OBJECT  WEAK   DEFAULT   21 _ZTTSt14basic_iostreamIwSt11char_traitsIwEE
  4319: 000000004051a480   145 FUNC    WEAK   DEFAULT    4 _ZNSt10filesystem4path5_CmptD1Ev
  4320: 00000000403ce930   224 FUNC    WEAK   DEFAULT    4 __fxstatat64
  4321: 00000000402ca500    35 FUNC    GLOBAL DEFAULT    4 _ZN3mmu15jvm_balloon_vmaD0Ev
  4322: 0000000040366670   239 FUNC    GLOBAL DEFAULT    4 AcpiDsEvaluateNamePath
  4323: 00000000402e34c0   165 FUNC    WEAK   DEFAULT    4 _ZNKSt10_HashtableINSt7__cxx1112basic_stringIcSt11char_traitsIcESaIcEEESt4pairIKS5_PvESaIS9_ENSt8__detail10_Select1stESt8equal_toIS5_ESt4hashIS5_ENSB_18_Mod_range_hashingENSB_20_Default_ranged_hashENSB_20_Prime_rehash_policyENSB_17_Hashtable_traitsILb1ELb0ELb1EEEE19_M_find_before_nodeEmRS7_m
  4324: 000000004039bed0    49 FUNC    WEAK   DEFAULT    4 _ZNSt17_Function_handlerIFbcENSt8__detail12_CharMatcherINSt7__cxx1112regex_traitsIcEELb1ELb1EEEE9_M_invokeERKSt9_Any_dataOc
  4325: 0000000040495f30    34 FUNC    WEAK   DEFAULT    4 _ZNKSt7__cxx1110moneypunctIcLb0EE13decimal_pointEv
  4326: 0000000040463130    46 FUNC    GLOBAL DEFAULT    4 _ZNSt10moneypunctIcLb0EED0Ev
  4327: 000000004060a840    31 OBJECT  GLOBAL DEFAULT    9 AcpiGbl_NsProperties
  4328: 000000004038cf20   346 FUNC    GLOBAL DEFAULT    4 _ZN5sched6thread8free_tcbEv
  4329: 000000004035a980   251 FUNC    GLOBAL DEFAULT    4 AcpiEvFixedEventDetect
  4330: 00000000403f8dd0    10 FUNC    GLOBAL DEFAULT    4 getppid
  4331: 00000000407ff4f0    80 OBJECT  WEAK   DEFAULT   21 _ZTVSt14basic_ifstreamIcSt11char_traitsIcEE
  4332: 0000000040941170     8 OBJECT  GLOBAL DEFAULT   52 AcpiGbl_PsNodeCache
  4333: 0000000040429b20   184 FUNC    GLOBAL DEFAULT    4 atoll
  4334: 0000000040668fd8     4 OBJECT  GLOBAL DEFAULT    9 _ZNSt14numeric_limitsIlE14min_exponent10E
  4335: 00000000404af7b0   190 FUNC    WEAK   DEFAULT    4 _ZNSt7__cxx118messagesIwEC2EP15__locale_structPKcm
  4336: 000000004044fcc0    16 FUNC    GLOBAL DEFAULT    4 _ZNSt12__basic_fileIcEC2EP15pthread_mutex_t
  4337: 0000000040429be0   134 FUNC    GLOBAL DEFAULT    4 bsearch
  4338: 000000004066a120    60 OBJECT  WEAK   DEFAULT    9 _ZTSSt9money_getIwSt19istreambuf_iteratorIwSt11char_traitsIwEEE
  4339: 000000004025de60   745 FUNC    GLOBAL DEFAULT    4 soopt_getm
  4340: 000000004066922c     4 OBJECT  GLOBAL DEFAULT    9 _ZNSt21__numeric_limits_base12max_exponentE
  4341: 00000000403de510   125 FUNC    WEAK   DEFAULT    4 _ZNSt13unordered_mapIN4rofs14rofs_cache_keyEPNS0_10file_cacheENS0_21rofs_cache_key_hasherESt8equal_toIS1_ESaISt4pairIKS1_S3_EEED1Ev
  4342: 0000000040486050    57 FUNC    WEAK   DEFAULT    4 _ZNSbIwSt11char_traitsIwESaIwEE13_S_copy_charsEPwN9__gnu_cxx17__normal_iteratorIS3_S2_EES6_
  4343: 0000000040379790    88 FUNC    WEAK   DEFAULT    4 _ZN6memory9reclaimerD2Ev
  4344: 00000000402e7c50    42 FUNC    GLOBAL DEFAULT    4 _ZN3pci6deviceD0Ev
  4345: 00000000403074a0   188 FUNC    GLOBAL DEFAULT    4 _ZN3vmw15vmxnet3_txqueue9xmit_prepEP4mbufRPv
  4346: 0000000040257bc0    10 FUNC    GLOBAL DEFAULT    4 pru_attach_notsupp
  4347: 00000000402e6870   159 FUNC    GLOBAL DEFAULT    4 _ZN9randomdev13random_deviceC1Ev
  4348: 000000004030bdb0    47 FUNC    WEAK   DEFAULT    4 _ZN8kvmclockD1Ev
  4349: 000000004038dd60    11 FUNC    GLOBAL DEFAULT    4 _ZN5sched3cpu4loadEv
  4350: 0000000040605328    24 OBJECT  WEAK   DEFAULT    9 _ZTIN4ahci3hbaE
  4351: 0000000040669014     4 OBJECT  GLOBAL DEFAULT    9 _ZNSt14numeric_limitsIjE14min_exponent10E
  4352: 00000000404f2840    12 FUNC    WEAK   DEFAULT    4 _ZNKSt10moneypunctIwLb1EE14do_frac_digitsEv
  4353: 000000004033ec90   174 FUNC    WEAK   DEFAULT    4 _Z14unaligned_copyILj7ELj5EEvPvPKvm
  4354: 00000000408018e8    24 OBJECT  WEAK   DEFAULT   21 _ZTISt11__timepunctIwE
  4355: 0000000040669140     4 OBJECT  GLOBAL DEFAULT    9 _ZNSt14numeric_limitsIhE14min_exponent10E
  4356: 00000000402d86a0   439 FUNC    GLOBAL DEFAULT    4 _ZN3elf6object12symbol_otherEj
  4357: 00000000402493a0   132 FUNC    GLOBAL DEFAULT    4 mkfifo
  4358: 000000004039f9c0   211 FUNC    WEAK   DEFAULT    4 _ZNSt8__detail15_BracketMatcherINSt7__cxx1112regex_traitsIcEELb0ELb1EED1Ev
  4359: 00000000402f1d60    20 FUNC    GLOBAL DEFAULT    4 _ZN6virtio24virtio_legacy_pci_device20set_enabled_featuresEm
  4360: 0000000040322e60    62 FUNC    GLOBAL DEFAULT    4 _ZN3pci21write_pci_config_byteEhhhhh
  4361: 000000004052ea40    14 FUNC    WEAK   DEFAULT    4 _ZNSt23_Sp_counted_ptr_inplaceINSt10filesystem7__cxx114_DirESaIS2_ELN9__gnu_cxx12_Lock_policyE2EED0Ev
  4362: 00000000405f8ff0    24 OBJECT  WEAK   DEFAULT    9 _ZTIN3mmu18map_file_page_mmapE
  4363: 00000000404f5650    24 FUNC    WEAK   DEFAULT    4 _ZNKSt11__timepunctIwE15_M_date_formatsEPPKw
  4364: 000000004034d730   122 FUNC    GLOBAL DEFAULT    4 AcpiExSystemWaitEvent
  4365: 00000000404e6f50   253 FUNC    WEAK   DEFAULT    4 _ZNSt7__cxx1119basic_istringstreamIcSt11char_traitsIcESaIcEEC2EOS4_
  4366: 0000000040289bc0    52 FUNC    GLOBAL DEFAULT    4 in_delmulti
  4367: 00000000404ef960   216 FUNC    WEAK   DEFAULT    4 _ZNSt7__cxx1112basic_stringIcSt11char_traitsIcESaIcEE6assignEOS4_
  4368: 00000000402afc20   112 FUNC    GLOBAL DEFAULT    4 _Z17xenbus_watch_pathP6devicePcP8xs_watchPFvS3_PPKcjEm
  4369: 0000000040360e90    45 FUNC    GLOBAL DEFAULT    4 AcpiNsCreateNode
  4370: 00000000404832f0    53 FUNC    WEAK   DEFAULT    4 _ZNKSs5rfindEcm
  4371: 000000004047e180     5 FUNC    WEAK   DEFAULT    4 _ZNSt15basic_stringbufIwSt11char_traitsIwESaIwEE14__xfer_bufptrsC2ERKS3_PS3_
  4372: 0000000040318d70    68 FUNC    WEAK   DEFAULT    4 _ZN8xenfront15xenplatform_pciD0Ev
  4373: 00000000404a0bb0    49 FUNC    WEAK   DEFAULT    4 _ZNSt7__cxx1114collate_bynameIwED0Ev
  4374: 0000000040264a30    82 FUNC    GLOBAL DEFAULT    4 _ZN11socket_file4pollEi
  4375: 000000004044c6c0     5 FUNC    GLOBAL DEFAULT    4 _ZN10__cxxabiv115__forced_unwindD1Ev
  4376: 00000000404f3cd0    78 FUNC    WEAK   DEFAULT    4 _ZSt9has_facetISt7num_getIwSt19istreambuf_iteratorIwSt11char_traitsIwEEEEbRKSt6locale
  4377: 0000000040425340    92 FUNC    GLOBAL DEFAULT    4 ftell
  4378: 0000000040486f90    25 FUNC    WEAK   DEFAULT    4 _ZNSbIwSt11char_traitsIwESaIwEEC2ERKS1_
  4379: 00000000403fac90    15 FUNC    GLOBAL DEFAULT    4 pthread_attr_setinheritsched
  4380: 000000004046f9a0   225 FUNC    WEAK   DEFAULT    4 _ZNSt14basic_ofstreamIcSt11char_traitsIcEEC2ERKSsSt13_Ios_Openmode
  4381: 0000000040366570   245 FUNC    GLOBAL DEFAULT    4 AcpiDsCreateOperands
  4382: 0000000040519cf0    13 FUNC    GLOBAL DEFAULT    4 _ZNKSt10filesystem16filesystem_error4whatEv
  4383: 00000000404eeb50    33 FUNC    WEAK   DEFAULT    4 _ZNSt7__cxx1112basic_stringIcSt11char_traitsIcESaIcEE10_M_disposeEv
  4384: 00000000404dda00   216 FUNC    WEAK   DEFAULT    4 _ZNSo5seekpESt4fposI11__mbstate_tE
  4385: 000000004027b330   144 FUNC    GLOBAL DEFAULT    4 _Z13ifc_name2unitPKcPi
  4386: 00000000406691fc     4 OBJECT  GLOBAL DEFAULT    9 _ZNSt14numeric_limitsIbE5radixE
  4387: 00000000407fde30    24 OBJECT  WEAK   DEFAULT   21 _ZTINSt7__cxx117collateIcEE
  4388: 000000004023d7f0   143 FUNC    WEAK   DEFAULT    4 _ZN5boost2io22basic_oaltstringstreamIcSt11char_traitsIcESaIcEED1Ev
  4389: 00000000403edc90    25 FUNC    GLOBAL DEFAULT    4 getmntent_r
  4390: 0000000040665c28    15 OBJECT  WEAK   DEFAULT    9 _ZTSSt10money_base
  4391: 0000000040307ea0   534 FUNC    GLOBAL DEFAULT    4 _ZN3vmw15vmxnet3_rxqueue12receive_workEv
  4392: 000000004051c790   156 FUNC    WEAK   DEFAULT    4 _ZNSt12__shared_ptrIKNSt10filesystem16filesystem_error5_ImplELN9__gnu_cxx12_Lock_policyE2EE5resetEv
  4393: 0000000040536260   497 FUNC    WEAK   DEFAULT    4 _ZNSt5dequeINSt10filesystem7__cxx114pathESaIS2_EED2Ev
  4394: 00000000407ff358    24 OBJECT  WEAK   DEFAULT   21 _ZTISt14basic_ifstreamIcSt11char_traitsIcEE
  4395: 000000004061acad     6 OBJECT  UNIQUE DEFAULT    9 _ZN16signature_helperIJiiiiP11epoll_eventEE3sigE
  4396: 000000004024ddf0    97 FUNC    GLOBAL DEFAULT    4 bsd_random
  4397: 0000000040387330     5 FUNC    WEAK   DEFAULT    4 _ZN5boost9function4IbRN9__gnu_cxx17__normal_iteratorIPKcNSt7__cxx1112basic_stringIcSt11char_traitsIcESaIcEEEEERKSB_RNS_6spirit7contextINS_6fusion4consIRSt6vectorISA_SaISA_EENSH_4nil_EEENSH_6vectorIJEEEEERKNSF_2qi10char_classINSF_3tag9char_codeINSV_5spaceENSF_13char_encoding5asciiEEEEEE5dummy7nonnullEv
  4398: 0000000040467460     5 FUNC    WEAK   DEFAULT    4 _ZN9__gnu_cxx12__pool_allocIwEC1Ev
  4399: 000000004033fbf0    19 FUNC    GLOBAL DEFAULT    4 _ZN9processor5xapic14nmi_allbutselfEv
  4400: 0000000040548cb0     8 FUNC    WEAK   DEFAULT    4 _ZNSt7__cxx1112basic_stringIcSt11char_traitsIcESaIcEE4dataEv
  4401: 0000000040488d90    27 FUNC    WEAK   DEFAULT    4 _ZNSbIwSt11char_traitsIwESaIwEEC2IPwEET_S5_RKS1_
  4402: 0000000040334d50    19 FUNC    WEAK   DEFAULT    4 _Z13do_short_copyILj10EEvPvPKv
  4403: 00000000404417d0    18 FUNC    GLOBAL DEFAULT    4 __cxa_thread_atexit
  4404: 00000000403d3220   104 FUNC    GLOBAL DEFAULT    4 _ZN4file10stop_pollsEv
  4405: 00000000404b8860   180 FUNC    WEAK   DEFAULT    4 _ZNSt14basic_ifstreamIcSt11char_traitsIcEEC2Ev
  4406: 000000004023ef30   331 FUNC    WEAK   DEFAULT    4 _ZNK5boost4asio5error6detail13misc_category7messageB5cxx11Ei
  4407: 00000000404b1190    48 FUNC    GLOBAL DEFAULT    4 _ZN11__gnu_debug19_Safe_sequence_base16_M_attach_singleEPNS_19_Safe_iterator_baseEb
  4408: 00000000404b5690   511 FUNC    WEAK   DEFAULT    4 _ZNSt13basic_filebufIcSt11char_traitsIcEE8overflowEi
  4409: 0000000040669200     1 OBJECT  GLOBAL DEFAULT    9 _ZNSt14numeric_limitsIbE8is_exactE
  4410: 00000000402fd960    94 FUNC    WEAK   DEFAULT    4 _ZN6virtio17interrupt_factoryD2Ev
  4411: 00000000403605a0    91 FUNC    GLOBAL DEFAULT    4 AcpiNsDetachData
  4412: 0000000040423f10   237 FUNC    GLOBAL DEFAULT    4 fclose
  4413: 00000000402e1400    62 FUNC    WEAK   DEFAULT    4 _ZNSt17_Function_handlerIFvvEN3osv19rcu_dispose_deleterIN3elf7program12modules_listEEEE9_M_invokeERKSt9_Any_data
  4414: 00000000404d0700   269 FUNC    WEAK   DEFAULT    4 _ZNKSt11__use_cacheISt16__numpunct_cacheIcEEclERKSt6locale
  4415: 0000000040489e80    17 FUNC    GLOBAL DEFAULT    4 _ZNKSt5ctypeIcE10do_toupperEc
  4416: 0000000040302a40   179 FUNC    WEAK   DEFAULT    4 _ZThn544_N6virtio4scsi14alloc_scsi_reqEP3biotth
  4417: 00000000402faed0   478 FUNC    GLOBAL DEFAULT    4 _ZN6virtio3netD1Ev
  4418: 000000004044c760    31 FUNC    GLOBAL DEFAULT    4 __cxa_get_globals_fast
  4419: 000000004030b920    63 FUNC    GLOBAL DEFAULT    4 _ZN8kvmclock17processor_to_nanoEm
  4420: 0000000040314c60    17 FUNC    GLOBAL DEFAULT    4 _ZN8xenclock15wall_clock_bootEv
  4421: 000000004098c7a8     8 OBJECT  UNIQUE DEFAULT   52 _ZNSt7__cxx119money_getIcSt19istreambuf_iteratorIcSt11char_traitsIcEEE2idE
  4422: 0000000040487600    50 FUNC    WEAK   DEFAULT    4 _ZNSbIwSt11char_traitsIwESaIwEE4backEv
  4423: 0000000040467d50    29 FUNC    GLOBAL DEFAULT    4 _ZNSt15underflow_errorC2ERKSs
  4424: 00000000403176c0   194 FUNC    GLOBAL DEFAULT    4 XENBUSB_LOCALEND_CHANGED
  4425: 00000000402bb590   962 FUNC    GLOBAL DEFAULT    4 ena_com_admin_init
  4426: 0000000040482de0    12 FUNC    WEAK   DEFAULT    4 _ZNSs12_S_empty_repEv
  4427: 0000000040254860   134 FUNC    GLOBAL DEFAULT    4 m_tag_delete_chain
  4428: 00000000403257e0    19 FUNC    WEAK   DEFAULT    4 _Z15do_small_memcpyILm5EEPvS0_PKv
  4429: 000000004061ab06     5 OBJECT  UNIQUE DEFAULT    9 _ZN16signature_helperIJiimiEE3sigE
  4430: 00000000403e1ab0   679 FUNC    GLOBAL DEFAULT    4 _ZN8pseudofs7readdirEP5vnodeP4fileP6dirent
  4431: 00000000403e1880   157 FUNC    GLOBAL DEFAULT    4 _ZN8pseudofs4openEP4file
  4432: 00000000403c5200    23 FUNC    GLOBAL DEFAULT    4 io_getevents
  4433: 0000000040488720   135 FUNC    WEAK   DEFAULT    4 _ZNSbIwSt11char_traitsIwESaIwEEC2ERKS2_
  4434: 000000004043d430   178 FUNC    GLOBAL DEFAULT    4 iconv_open
  4435: 0000000040355a40   106 FUNC    GLOBAL DEFAULT    4 AcpiPsDeleteParseTree
  4436: 000000004061ac3c     4 OBJECT  UNIQUE DEFAULT    9 _ZN16signature_helperIJiPKcP4statEE3sigE
  4437: 000000004092dc84     4 OBJECT  GLOBAL DEFAULT   52 tcp_finwait2_timeout
  4438: 0000000040425680   138 FUNC    GLOBAL DEFAULT    4 fwscanf
  4439: 000000004052c2f0    18 FUNC    GLOBAL DEFAULT    4 _ZSt8to_charsPcS_fSt12chars_format
  4440: 0000000040604140    44 OBJECT  WEAK   DEFAULT    9 _ZTSN5boost10wrapexceptINS_2io12too_few_argsEEE
  4441: 00000000404cb2a0    34 FUNC    WEAK   DEFAULT    4 _ZNKSt10moneypunctIcLb1EE11frac_digitsEv
  4442: 000000004023cf10    56 FUNC    WEAK   DEFAULT    4 _ZN5boost6system12system_errorD2Ev
  4443: 00000000402f4990    10 FUNC    WEAK   DEFAULT    4 _ZN6virtio11mmio_device9is_modernEv
  4444: 00000000403f05f0    16 FUNC    WEAK   DEFAULT    4 _ZN5boost4asio2ip16bad_address_castD2Ev
  4445: 000000004050a3a0   257 FUNC    WEAK   DEFAULT    4 _ZNSt23_Sp_counted_ptr_inplaceINSt10filesystem4_DirESaIS1_ELN9__gnu_cxx12_Lock_policyE2EE10_M_disposeEv
  4446: 00000000408001d0    24 OBJECT  WEAK   DEFAULT   21 _ZTISt8numpunctIcE
  4447: 0000000040335310    62 FUNC    WEAK   DEFAULT    4 _Z14unaligned_copyILj1ELj7EEvPvPKvm
  4448: 000000004098c810     8 OBJECT  UNIQUE DEFAULT   52 _ZNSt7__cxx1110moneypunctIwLb1EE2idE
  4449: 00000000403e5810     5 FUNC    WEAK   DEFAULT    4 _ZNSt23_Sp_counted_ptr_inplaceIN8pseudofs19pseudo_symlink_nodeESaIS1_ELN9__gnu_cxx12_Lock_policyE2EED2Ev
  4450: 0000000040483a50    32 FUNC    WEAK   DEFAULT    4 _ZNSs4_Rep26_M_set_length_and_sharableEm
  4451: 000000004028b3e0    49 FUNC    GLOBAL DEFAULT    4 _Z23ip_msource_tree_RB_FINDP15ip_msource_treeP10ip_msource
  4452: 00000000404c3130   329 FUNC    WEAK   DEFAULT    4 _ZNSi3getEv
  4453: 000000004035eb60   129 FUNC    GLOBAL DEFAULT    4 AcpiGetType
  4454: 00000000403912f0    47 FUNC    GLOBAL DEFAULT    4 _ZN5sched6thread6detachEv
  4455: 00000000408d8330     8 OBJECT  GLOBAL DEFAULT   36 _ZNSt10money_base8_S_atomsE
  4456: 0000000040414f10  2029 FUNC    WEAK   DEFAULT    4 lgammaf_r
  4457: 0000000040669060     4 OBJECT  GLOBAL DEFAULT    9 _ZNSt14numeric_limitsIiE12max_digits10E
  4458: 000000004052ec10    42 FUNC    WEAK   DEFAULT    4 _ZNSt12__shared_ptrINSt10filesystem7__cxx114_DirELN9__gnu_cxx12_Lock_policyE2EEC2EOS5_
  4459: 0000000040621280     3 OBJECT  UNIQUE DEFAULT    9 _ZN16signature_helperIJPN5async12async_workerEPNS0_13one_shot_taskEEE3sigE
  4460: 00000000404c0220    31 FUNC    WEAK   DEFAULT    4 _ZNKSt9basic_iosIwSt11char_traitsIwEE6narrowEwc
  4461: 00000000404c1270    70 FUNC    WEAK   DEFAULT    4 _ZNSt14basic_iostreamIwSt11char_traitsIwEED0Ev
  4462: 00000000404c1420   262 FUNC    WEAK   DEFAULT    4 _ZNSdC1EPSt15basic_streambufIcSt11char_traitsIcEE
  4463: 000000004051cc30  1070 FUNC    GLOBAL DEFAULT    4 _ZNSt10filesystem4path5_ListaSERKS1_
  4464: 00000000405112e0   649 FUNC    GLOBAL DEFAULT    4 _ZNSt10filesystem19temp_directory_pathERSt10error_code
  4465: 000000004030e730    87 FUNC    WEAK   DEFAULT    4 _ZN5boost10wrapexceptINS_9gregorian8bad_yearEED0Ev
  4466: 00000000404967b0   250 FUNC    WEAK   DEFAULT    4 _ZNSt7__cxx1117moneypunct_bynameIcLb0EEC1ERKNS_12basic_stringIcSt11char_traitsIcESaIcEEEm
  4467: 000000004029d8f0   135 FUNC    GLOBAL DEFAULT    4 tcp_lro_init
  4468: 0000000040383a00   125 FUNC    WEAK   DEFAULT    4 _ZNSt13unordered_mapIPv9waitqueueSt4hashIS0_ESt8equal_toIS0_ESaISt4pairIKS0_S1_EEED2Ev
  4469: 000000004038bca0   706 FUNC    WEAK   DEFAULT    4 _ZNSt6vectorINSt7__cxx1112basic_stringIcSt11char_traitsIcESaIcEEESaIS5_EE6insertEN9__gnu_cxx17__normal_iteratorIPKS5_S7_EERSA_
  4470: 0000000040488d30    84 FUNC    WEAK   DEFAULT    4 _ZNSbIwSt11char_traitsIwESaIwEEC1ERKS2_mmRKS1_
  4471: 0000000040421f50    55 FUNC    GLOBAL DEFAULT    4 getservbyport
  4472: 0000000040605a38    24 OBJECT  WEAK   DEFAULT    9 _ZTI8xenclock
  4473: 00000000404245f0   341 FUNC    GLOBAL DEFAULT    4 __fgetwc_unlocked
  4474: 000000004047d350   118 FUNC    WEAK   DEFAULT    4 _ZNSt15basic_stringbufIwSt11char_traitsIwESaIwEEC2Ev
  4475: 0000000040271940   401 FUNC    GLOBAL DEFAULT    4 lltable_free
  4476: 000000004048ae80    38 FUNC    GLOBAL DEFAULT    4 _ZNSt8ios_base7failureB5cxx11C2EPKcRKSt10error_code
  4477: 00000000402db040    23 FUNC    GLOBAL DEFAULT    4 _ZN3elf7program15set_search_pathESt16initializer_listINSt7__cxx1112basic_stringIcSt11char_traitsIcESaIcEEEE
  4478: 00000000402fbb90   445 FUNC    GLOBAL DEFAULT    4 _ZN6virtio3net3txq7offloadEP4mbufPNS0_7net_hdrE
  4479: 0000000040319820    80 FUNC    GLOBAL DEFAULT    4 _ZN9processor12init_syscallEv
  4480: 0000000040423340    19 FUNC    GLOBAL DEFAULT    4 wait
  4481: 000000004042f260    52 FUNC    GLOBAL DEFAULT    4 sleep
  4482: 0000000040322f40   116 FUNC    GLOBAL DEFAULT    4 _ZN11msix_vectorD1Ev
  4483: 0000000040348d80    31 FUNC    GLOBAL DEFAULT    4 AcpiUtCreateGenericState
  4484: 00000000404ed650    10 FUNC    WEAK   DEFAULT    4 _ZNSt15basic_streambufIwSt11char_traitsIwEE9pbackfailEj
  4485: 0000000040404e80   267 FUNC    GLOBAL DEFAULT    4 _ZN7timerfd18wakeup_thread_funcEv
  4486: 00000000408d90b8     8 OBJECT  GLOBAL DEFAULT   48 _ZN3xen7xen_irq7_threadE
  4487: 0000000040306fe0    45 FUNC    GLOBAL DEFAULT    4 _ZN3vmw15vmxnet3_txqueue12kick_pendingEv
  4488: 00000000402d2490   430 FUNC    WEAK   DEFAULT    4 _ZN3mmu9map_levelINS_8populateILNS_11account_optE0EEELi3EEclENS_7hw_ptepILi3EEEm
  4489: 000000004050bd10   200 FUNC    WEAK   DEFAULT    4 _ZNSsC1ISaIcEEEPKcRKS0_
  4490: 000000004048b890   217 FUNC    WEAK   DEFAULT    4 _ZNKSt7__cxx1110moneypunctIcLb0EE11do_groupingEv
  4491: 00000000402d1790   327 FUNC    WEAK   DEFAULT    4 _ZN3mmu12populate_vmaILNS_11account_optE1EEEmPNS_3vmaEPvmb
  4492: 00000000404efa40   120 FUNC    WEAK   DEFAULT    4 _ZNSt7__cxx1112basic_stringIcSt11char_traitsIcESaIcEE5eraseEmm
  4493: 00000000402c5560    34 FUNC    GLOBAL DEFAULT    4 _ZN3mmu3vma3setEmm
  4494: 0000000040278da0   885 FUNC    GLOBAL DEFAULT    4 _Z13sysctl_rtsockP10sysctl_oidPvlP10sysctl_req
  4495: 00000000405e1720    26 OBJECT  WEAK   DEFAULT    9 _ZTSN5boost2io12format_errorE
  4496: 0000000040358e50    44 FUNC    GLOBAL DEFAULT    4 AcpiReleaseGlobalLock
  4497: 000000004030be30    44 FUNC    GLOBAL DEFAULT    4 _ZN11hypervclock4timeEv
  4498: 0000000040668000    40 OBJECT  WEAK   DEFAULT    9 _ZTSSt14basic_ofstreamIwSt11char_traitsIwEE
  4499: 00000000404f4a00    34 FUNC    WEAK   DEFAULT    4 _ZNKSt10moneypunctIwLb1EE11frac_digitsEv
  4500: 00000000404677d0   153 FUNC    GLOBAL DEFAULT    4 _ZNSt11logic_errorD2Ev
  4501: 00000000404da5a0   549 FUNC    WEAK   DEFAULT    4 _ZNKSt8time_getIcSt19istreambuf_iteratorIcSt11char_traitsIcEEE3getES3_S3_RSt8ios_baseRSt12_Ios_IostateP2tmcc
  4502: 0000000040334ea0    79 FUNC    WEAK   DEFAULT    4 _Z14unaligned_copyILj5ELj0EEvPvPKvm
  4503: 00000000404866f0   108 FUNC    WEAK   DEFAULT    4 _ZNKSbIwSt11char_traitsIwESaIwEE13find_first_ofEPKwmm
  4504: 0000000040507700    12 FUNC    WEAK   DEFAULT    4 _ZNSt7__cxx1112basic_stringIwSt11char_traitsIwESaIwEEixEm
  4505: 00000000404231d0   363 FUNC    GLOBAL DEFAULT    4 execl
  4506: 0000000040939618     8 OBJECT  GLOBAL DEFAULT   52 _ZN3elf6object17_static_tls_allocE
  4507: 00000000404f1b70    71 FUNC    WEAK   DEFAULT    4 _ZNSt7__cxx1112basic_stringIcSt11char_traitsIcESaIcEEC1ERKS4_mm
  4508: 00000000404194d0    23 FUNC    GLOBAL DEFAULT    4 remainder
  4509: 00000000404968b0   250 FUNC    WEAK   DEFAULT    4 _ZNSt7__cxx1117moneypunct_bynameIcLb1EEC1EPKcm
  4510: 00000000402f0c60    35 FUNC    GLOBAL DEFAULT    4 _ZN7console10VGAConsole13update_offsetEi
  4511: 000000004028dc70  1624 FUNC    GLOBAL DEFAULT    4 _Z10ip_forwardP4mbufi
  4512: 00000000404c56b0   318 FUNC    WEAK   DEFAULT    4 _ZNSi10_M_extractIeEERSiRT_
  4513: 0000000040362ef0   188 FUNC    GLOBAL DEFAULT    4 AcpiDsExecBeginControlOp
  4514: 0000000040506390   328 FUNC    WEAK   DEFAULT    4 _ZNKSt9money_getIwSt19istreambuf_iteratorIwSt11char_traitsIwEEE6do_getES3_S3_bRSt8ios_baseRSt12_Ios_IostateRe
  4515: 0000000040669810     1 OBJECT  GLOBAL DEFAULT    9 _ZNSt12placeholders3_20E
  4516: 0000000040491e40    30 FUNC    WEAK   DEFAULT    4 _ZNSt7__cxx119money_getIcSt19istreambuf_iteratorIcSt11char_traitsIcEEEC2Em
  4517: 00000000404e87e0   439 FUNC    WEAK   DEFAULT    4 _ZNSt7__cxx1118basic_stringstreamIcSt11char_traitsIcESaIcEEC1ESt13_Ios_Openmode
  4518: 0000000040940f94     4 OBJECT  GLOBAL DEFAULT   52 AcpiGbl_TraceDbgLevel
  4519: 0000000040367370    26 FUNC    GLOBAL DEFAULT    4 _ZN3xen7xen_irq12register_irqEiPFvPvES1_
  4520: 00000000404419d0   130 FUNC    GLOBAL DEFAULT    4 _ZNK10__cxxabiv117__class_type_info11__do_upcastEPKS0_PPv
  4521: 0000000040668dc0     4 OBJECT  GLOBAL DEFAULT    9 _ZNSt14numeric_limitsIDuE12min_exponentE
  4522: 000000004046f570    67 FUNC    WEAK   DEFAULT    4 _ZNSt14basic_ofstreamIcSt11char_traitsIcEE4openERKSsSt13_Ios_Openmode
  4523: 0000000040451090  1240 FUNC    WEAK   DEFAULT    4 _ZN9__gnu_cxx16bitmap_allocatorIcE25_M_allocate_single_objectEv
  4524: 00000000402e80c0   160 FUNC    GLOBAL DEFAULT    4 _ZN3pci8functionD2Ev
  4525: 00000000404231c0    16 FUNC    GLOBAL DEFAULT    4 execv
  4526: 0000000040663960   368 OBJECT  UNIQUE DEFAULT    9 _ZN9__gnu_cxx4ropeIcSaIcEE10_S_min_lenE
  4527: 00000000404fa820   765 FUNC    WEAK   DEFAULT    4 _ZNKSt7num_putIwSt19ostreambuf_iteratorIwSt11char_traitsIwEEE13_M_insert_intIyEES3_S3_RSt8ios_basewT_
  4528: 00000000404c91f0    41 FUNC    WEAK   DEFAULT    4 _ZNKSt7collateIcE7do_hashEPKcS2_
  4529: 0000000040465730   246 FUNC    WEAK   DEFAULT    4 _ZN9__gnu_cxx10__mt_allocIcNS_20__common_pool_policyINS_6__poolELb1EEEE14_M_set_optionsENS_11__pool_base5_TuneE
  4530: 0000000040669b00    56 OBJECT  WEAK   DEFAULT    9 _ZTSNSt7__cxx1115basic_stringbufIwSt11char_traitsIwESaIwEEE
  4531: 000000004047b070   333 FUNC    WEAK   DEFAULT    4 _ZNSt19basic_ostringstreamIcSt11char_traitsIcESaIcEEC1ESt13_Ios_Openmode
  4532: 00000000402f1f80    42 FUNC    GLOBAL DEFAULT    4 _ZN6virtio24virtio_modern_pci_device11read_configEj
  4533: 00000000403709f0    99 FUNC    WEAK   DEFAULT    4 _ZNSt5stackIPN9pagecache17cached_page_writeESt5dequeIS2_SaIS2_EEED1Ev
  4534: 00000000404bf2c0   512 FUNC    GLOBAL DEFAULT    4 _ZNKSt8__detail20_Prime_rehash_policy14_M_need_rehashEmmm
  4535: 00000000402ffd00    70 FUNC    GLOBAL DEFAULT    4 _ZN6virtio3blkD0Ev
  4536: 000000004046e6c0   144 FUNC    GLOBAL DEFAULT    4 _ZNKSt20__codecvt_utf16_baseIDiE5do_inER11__mbstate_tPKcS4_RS4_PDiS6_RS6_
  4537: 00000000403016e0    16 FUNC    GLOBAL DEFAULT    4 _ZThn544_N6virtio4scsi12make_requestEP3bio
  4538: 00000000404e5f30   809 FUNC    WEAK   DEFAULT    4 _ZNSt7__cxx1115basic_stringbufIcSt11char_traitsIcESaIcEEaSEOS4_
  4539: 00000000402b0940    27 FUNC    GLOBAL DEFAULT    4 xenbusb_print_child
  4540: 000000004050a940    33 FUNC    WEAK   DEFAULT    4 _ZNSt12__shared_ptrINSt10filesystem4_DirELN9__gnu_cxx12_Lock_policyE2EE4swapERS4_
  4541: 00000000404aadd0    87 FUNC    WEAK   DEFAULT    4 _ZNSt7__cxx1110moneypunctIwLb1EEC2Em
  4542: 0000000040425250    14 FUNC    WEAK   DEFAULT    4 fsetpos64
  4543: 0000000040486830    16 FUNC    WEAK   DEFAULT    4 _ZNKSbIwSt11char_traitsIwESaIwEE12find_last_ofERKS2_m
  4544: 0000000040394bc0    48 FUNC    WEAK   DEFAULT    4 _ZN4arch10tls_switchD1Ev
  4545: 000000004034cbe0   507 FUNC    GLOBAL DEFAULT    4 AcpiExLoadTableOp
  4546: 000000004066454c     4 OBJECT  GLOBAL DEFAULT    9 _ZNSt6locale8monetaryE
  4547: 000000004027dd10    16 FUNC    GLOBAL DEFAULT    4 if_addr_runlock
  4548: 00000000403fb5b0   128 FUNC    GLOBAL DEFAULT    4 sched_setaffinity
  4549: 000000004045fe60    65 FUNC    WEAK   DEFAULT    4 _ZNSt7__cxx1112basic_stringIwSt11char_traitsIwESaIwEE6insertIN9__gnu_cxx17__normal_iteratorIPwS4_EEEEvS9_T_SA_
  4550: 00000000402abd10   727 FUNC    GLOBAL DEFAULT    4 _Z22bind_ipi_to_irqhandlerjjPKcPvmPj
  4551: 00000000404a0ce0   230 FUNC    WEAK   DEFAULT    4 _ZNKSt7__cxx1110moneypunctIwLb0EE11do_groupingEv
  4552: 0000000040414690     9 FUNC    GLOBAL DEFAULT    4 ldexpf
  4553: 000000004053e470    13 FUNC    GLOBAL DEFAULT    4 _ZNKSt10filesystem7__cxx1116filesystem_error4whatEv
  4554: 00000000404b2ed0    29 FUNC    WEAK   DEFAULT    4 _ZN9__gnu_cxx13stdio_filebufIwSt11char_traitsIwEEC1Ev
  4555: 00000000402afd70   112 FUNC    GLOBAL DEFAULT    4 _Z17xenbus_grant_ringP6devicemPj
  4556: 00000000404c0e40   438 FUNC    GLOBAL DEFAULT    4 _ZNSt8ios_base7_M_swapERS_
  4557: 0000000040473900   614 FUNC    WEAK   DEFAULT    4 _ZNSt13__facet_shims21__numpunct_fill_cacheIcEEvSt17integral_constantIbLb0EEPKNSt6locale5facetEPSt16__numpunct_cacheIT_E
  4558: 000000004098ab1c     4 OBJECT  GLOBAL DEFAULT   52 _ZNSt6locale5facet7_S_onceE
  4559: 00000000405082f0    32 FUNC    WEAK   DEFAULT    4 _ZNSt7__cxx1112basic_stringIwSt11char_traitsIwESaIwEEaSESt16initializer_listIwE
  4560: 00000000403d2c70   163 FUNC    WEAK   DEFAULT    4 _ZNSt6vectorIN3osv10mount_descESaIS1_EED1Ev
  4561: 0000000040404660   213 FUNC    GLOBAL DEFAULT    4 eventfd_write
  4562: 00000000404f18f0   208 FUNC    WEAK   DEFAULT    4 _ZNSt7__cxx1112basic_stringIcSt11char_traitsIcESaIcEE12_M_constructIPcEEvT_S7_St20forward_iterator_tag
  4563: 000000004043d0f0   112 FUNC    GLOBAL DEFAULT    4 setkey
  4564: 00000000404146a0     9 FUNC    GLOBAL DEFAULT    4 ldexpl
  4565: 0000000040457ff0   147 FUNC    GLOBAL DEFAULT    4 _ZNSt8ios_base4InitD1Ev
  4566: 0000000040547c80    93 FUNC    GLOBAL DEFAULT    4 _ZNSt3pmr26synchronized_pool_resource22_M_alloc_shared_tpoolsERSt10lock_guardISt12shared_mutexE
  4567: 000000004098c700    32 OBJECT  UNIQUE DEFAULT   52 _ZNSbIwSt11char_traitsIwESaIwEE4_Rep20_S_empty_rep_storageE
  4568: 0000000040467130     5 FUNC    WEAK   DEFAULT    4 _ZN9__gnu_cxx12__pool_allocIcEC2ERKS1_
  4569: 00000000404b5d80   109 FUNC    WEAK   DEFAULT    4 _ZNSt13basic_filebufIcSt11char_traitsIcEE13_M_set_bufferEl
  4570: 00000000404645f0   426 FUNC    GLOBAL DEFAULT    4 _ZN9__gnu_cxx6__poolILb1EE16_M_reserve_blockEmm
  4571: 0000000040951640   128 OBJECT  GLOBAL DEFAULT   52 _ZN6memory9page_pool9global_l2E
  4572: 0000000040260160   158 FUNC    GLOBAL DEFAULT    4 sys_shutdown
  4573: 00000000405fae78    24 OBJECT  WEAK   DEFAULT    9 _ZTISt16_Sp_counted_baseILN9__gnu_cxx12_Lock_policyE2EE
  4574: 0000000040486dc0    11 FUNC    WEAK   DEFAULT    4 _ZNKSbIwSt11char_traitsIwESaIwEE4_Rep12_M_is_leakedEv
  4575: 0000000040506ba0    38 FUNC    WEAK   DEFAULT    4 _ZNKSt7__cxx1112basic_stringIwSt11char_traitsIwESaIwEE8_M_checkEmPKc
  4576: 0000000040483bb0    25 FUNC    WEAK   DEFAULT    4 _ZNSsC2ERKSaIcE
  4577: 000000004048c230   225 FUNC    WEAK   DEFAULT    4 _ZSt16__convert_from_vRKP15__locale_structPciPKcz
  4578: 0000000040456410     5 FUNC    WEAK   DEFAULT    4 _ZN9__gnu_cxx19__function_requiresINS_28_RandomAccessIteratorConceptINS_17__normal_iteratorIPKwSbIwSt11char_traitsIwESaIwEEEEEEEEvv
  4579: 00000000404f4640    83 FUNC    WEAK   DEFAULT    4 _ZNSt10moneypunctIwLb1EEC2EPSt18__moneypunct_cacheIwLb1EEm
  4580: 000000004066980f     1 OBJECT  GLOBAL DEFAULT    9 _ZNSt12placeholders3_21E
  4581: 000000004039ba20    56 FUNC    WEAK   DEFAULT    4 _ZNSt17_Function_handlerIFbcENSt8__detail11_AnyMatcherINSt7__cxx1112regex_traitsIcEELb0ELb1ELb1EEEE10_M_managerERSt9_Any_dataRKS8_St18_Manager_operation
  4582: 00000000402e1900   125 FUNC    WEAK   DEFAULT    4 _ZNSt10_HashtableIPN3elf6objectES2_SaIS2_ENSt8__detail9_IdentityESt8equal_toIS2_ESt4hashIS2_ENS4_18_Mod_range_hashingENS4_20_Default_ranged_hashENS4_20_Prime_rehash_policyENS4_17_Hashtable_traitsILb0ELb1ELb1EEEED2Ev
  4583: 000000004098a580   280 OBJECT  GLOBAL DEFAULT   52 _ZSt4wcin
  4584: 00000000402aace0    13 FUNC    WEAK   DEFAULT    4 _ZN9arp_cacheD2Ev
  4585: 0000000040488210   256 FUNC    WEAK   DEFAULT    4 _ZNSbIwSt11char_traitsIwESaIwEE6appendEPKwm
  4586: 000000004049eb00   156 FUNC    WEAK   DEFAULT    4 _ZNSt13__facet_shims15__messages_openIcEEiSt17integral_constantIbLb1EEPKNSt6locale5facetEPKcmRKS3_
  4587: 00000000403601d0    88 FUNC    GLOBAL DEFAULT    4 AcpiNsWrapWithPackage
  4588: 0000000040664e60    46 OBJECT  WEAK   DEFAULT    9 _ZTSSt23__codecvt_abstract_baseIDsc11__mbstate_tE
  4589: 00000000404aaa40    83 FUNC    WEAK   DEFAULT    4 _ZNSt7__cxx1110moneypunctIwLb0EEC1EP15__locale_structPKcm
  4590: 0000000040407990    70 FUNC    WEAK   DEFAULT    4 wctrans_l
  4591: 00000000405f22f0    24 OBJECT  WEAK   DEFAULT    9 _ZTISt24_Weak_result_type_memfunIPFvRN5async17serial_timer_taskEP5tcpcbELb0EE
  4592: 00000000406668c4     1 OBJECT  UNIQUE DEFAULT    9 _ZNSt7__cxx1110moneypunctIwLb0EE4intlE
  4593: 00000000403ca490    41 FUNC    GLOBAL DEFAULT    4 _ZN5fdescC2EP4file
  4594: 00000000404b2fb0   190 FUNC    WEAK   DEFAULT    4 _ZN9__gnu_cxx13stdio_filebufIwSt11char_traitsIwEEC1EP8_IO_FILESt13_Ios_Openmodem
  4595: 00000000407fbd48    24 OBJECT  WEAK   DEFAULT   21 _ZTISt16invalid_argument
  4596: 0000000040629fd0    48 OBJECT  WEAK   DEFAULT    9 _ZTVN8pseudofs19pseudo_symlink_nodeE
  4597: 0000000040367860    84 FUNC    GLOBAL DEFAULT    4 intr_add_handler
  4598: 0000000040668d38     1 OBJECT  GLOBAL DEFAULT    9 _ZNSt14numeric_limitsIDiE17has_signaling_NaNE
  4599: 00000000402d36f0    25 FUNC    GLOBAL DEFAULT    4 _ZN7console19console_multiplexer4readEP3uioi
  4600: 0000000040325f60    47 FUNC    WEAK   DEFAULT    4 _Z15do_small_memcpyILm54EEPvS0_PKv
  4601: 0000000040668d8e     1 OBJECT  GLOBAL DEFAULT    9 _ZNSt14numeric_limitsIDsE9is_signedE
  4602: 000000004040d7b0   230 FUNC    GLOBAL DEFAULT    4 cos
  4603: 00000000404f1060    16 FUNC    WEAK   DEFAULT    4 _ZNKSt7__cxx1112basic_stringIcSt11char_traitsIcESaIcEE12find_last_ofERKS4_m
  4604: 0000000040345f10   127 FUNC    GLOBAL DEFAULT    4 AcpiUtDeleteCaches
  4605: 0000000040669238     4 OBJECT  GLOBAL DEFAULT    9 _ZNSt21__numeric_limits_base5radixE
  4606: 00000000403706d0   125 FUNC    WEAK   DEFAULT    4 _ZNSt13unordered_mapIN9pagecache7hashkeyEPNS0_15cached_page_arcESt4hashIS1_ESt8equal_toIS1_ESaISt4pairIKS1_S3_EEED1Ev
  4607: 00000000405f8dd8    16 OBJECT  WEAK   DEFAULT    9 _ZTIN3mmu3vmaE
  4608: 000000004080b1c0   184 OBJECT  GLOBAL DEFAULT   22 virtiofs_vnops
  4609: 00000000407fa988    24 OBJECT  WEAK   DEFAULT   21 _ZTIN10__cxxabiv117__class_type_infoE
  4610: 0000000040330c60   621 FUNC    WEAK   DEFAULT    4 _Z13do_sse_memcpyILj42E14load_unaligned15store_unalignedEvPvPKv
  4611: 00000000403ecef0   213 FUNC    WEAK   DEFAULT    4 lockf64
  4612: 00000000404d69c0  2793 FUNC    WEAK   DEFAULT    4 _ZNKSt7num_getIcSt19istreambuf_iteratorIcSt11char_traitsIcEEE14_M_extract_intIxEES3_S3_S3_RSt8ios_baseRSt12_Ios_IostateRT_
  4613: 0000000040940f84     1 OBJECT  GLOBAL DEFAULT   52 AcpiGbl_MethodExecuting
  4614: 0000000040664870    21 OBJECT  WEAK   DEFAULT    9 _ZTSSt16invalid_argument
  4615: 0000000040518120  1623 FUNC    GLOBAL DEFAULT    4 _ZNSt10filesystem16weakly_canonicalERKNS_4pathE
  4616: 0000000040497ca0  1732 FUNC    WEAK   DEFAULT    4 _ZNKSt7__cxx118time_getIcSt19istreambuf_iteratorIcSt11char_traitsIcEEE24_M_extract_wday_or_monthES4_S4_RiPPKcmRSt8ios_baseRSt12_Ios_Iostate
  4617: 0000000040346140   134 FUNC    GLOBAL DEFAULT    4 AcpiUtAllocateZeroed
  4618: 00000000403d56d0    46 FUNC    GLOBAL DEFAULT    4 vfs_unbusy
  4619: 00000000404f1d30    16 FUNC    WEAK   DEFAULT    4 _ZStlsIcSt11char_traitsIcESaIcEERSt13basic_ostreamIT_T0_ES7_RKNSt7__cxx1112basic_stringIS4_S5_T1_EE
  4620: 0000000040668db8     4 OBJECT  GLOBAL DEFAULT    9 _ZNSt14numeric_limitsIDuE12max_exponentE
  4621: 000000004039be30   155 FUNC    WEAK   DEFAULT    4 _ZNSt13unordered_mapIlSt8functionIFvRKS0_IFvRKN5trace6symbolEEEEESt4hashIlESt8equal_toIlESaISt4pairIKlSA_EEED1Ev
  4622: 000000004039fdd0   540 FUNC    WEAK   DEFAULT    4 _ZNSt8__detail4_NFAINSt7__cxx1112regex_traitsIcEEE17_M_insert_matcherESt8functionIFbcEE
  4623: 00000000402645c0   218 FUNC    GLOBAL DEFAULT    4 taskqueue_cancel
  4624: 000000004031eeb0   373 FUNC    GLOBAL DEFAULT    4 _ZN26interrupt_descriptor_table16invoke_interruptEj
  4625: 00000000402491f0   132 FUNC    GLOBAL DEFAULT    4 getresuid
  4626: 0000000040469960    83 FUNC    GLOBAL DEFAULT    4 _ZNSt10ostrstreamD2Ev
  4627: 00000000405087d0    83 FUNC    WEAK   DEFAULT    4 _ZNSt7__cxx1112basic_stringIwSt11char_traitsIwESaIwEE7replaceEN9__gnu_cxx17__normal_iteratorIPKwS4_EES9_NS6_IPwS4_EESB_
  4628: 00000000403f9330   150 FUNC    GLOBAL DEFAULT    4 _ZN15pthread_private7pthread14allocate_stackENS_11thread_attrE
  4629: 00000000403264f0    75 FUNC    WEAK   DEFAULT    4 _Z13do_sse_memcpyILj8E12load_aligned13store_alignedEvPvPKv
  4630: 0000000040325cc0    32 FUNC    WEAK   DEFAULT    4 _Z15do_small_memcpyILm40EEPvS0_PKv
  4631: 0000000040533260   139 FUNC    GLOBAL DEFAULT    4 _ZNSt10filesystem15hard_link_countERKNS_7__cxx114pathERSt10error_code
  4632: 00000000402af120   235 FUNC    GLOBAL DEFAULT    4 _Z8xs_scanf14xs_transactionPKcS1_PiS1_z
  4633: 0000000040335c40    96 FUNC    WEAK   DEFAULT    4 _Z14unaligned_copyILj3ELj7EEvPvPKvm
  4634: 000000004066980e     1 OBJECT  GLOBAL DEFAULT    9 _ZNSt12placeholders3_22E
  4635: 00000000402c56e0   223 FUNC    GLOBAL DEFAULT    4 _ZN3mmu15jvm_balloon_vmaC2EPhmmSt10shared_ptrI7balloonEjj
  4636: 000000004044d520    22 FUNC    GLOBAL DEFAULT    4 _ZNKSt15__exception_ptr13exception_ptrcvMS0_FvvEEv
  4637: 00000000406697b0    29 OBJECT  WEAK   DEFAULT    9 _ZTSSt21__ctype_abstract_baseIcE
  4638: 00000000404f3ea0    80 FUNC    WEAK   DEFAULT    4 _ZSt9use_facetISt9money_getIwSt19istreambuf_iteratorIwSt11char_traitsIwEEEERKT_RKSt6locale
  4639: 0000000040403cf0    48 FUNC    GLOBAL DEFAULT    4 getgrgid_r
  4640: 000000004041cf70    38 FUNC    GLOBAL DEFAULT    4 killpg
  4641: 00000000404abb50    30 FUNC    WEAK   DEFAULT    4 _ZNSt15time_put_bynameIwSt19ostreambuf_iteratorIwSt11char_traitsIwEEEC1ERKNSt7__cxx1112basic_stringIcS1_IcESaIcEEEm
  4642: 0000000040358000    10 FUNC    GLOBAL DEFAULT    4 AcpiPsGetOpcodeName
  4643: 00000000403cfb20    94 FUNC    GLOBAL DEFAULT    4 readlinkat
  4644: 00000000402c09e0    92 FUNC    GLOBAL DEFAULT    4 _Z13ena_dma_allocP6devicemP16ena_mem_handle_timi
  4645: 0000000040664978    13 OBJECT  WEAK   DEFAULT    9 _ZTSSt9strstream
  4646: 000000004038ef20   612 FUNC    GLOBAL DEFAULT    4 _ZN5sched10timer_base5resetENSt6chrono10time_pointIN3osv5clock6uptimeENS1_8durationIlSt5ratioILl1ELl1000000000EEEEEE
  4647: 000000004030d710    47 FUNC    WEAK   DEFAULT    4 _ZN16hpet_64bit_clock4timeEv
  4648: 00000000406691dc     1 OBJECT  GLOBAL DEFAULT    9 _ZNSt14numeric_limitsIbE15tinyness_beforeE
  4649: 00000000402f1e50    82 FUNC    GLOBAL DEFAULT    4 _ZN6virtio17virtio_pci_device4initEv
  4650: 0000000040286b60   144 FUNC    GLOBAL DEFAULT    4 in_pcblookup
  4651: 00000000402f9a00    53 FUNC    GLOBAL DEFAULT    4 _ZN4nvme16admin_queue_pairC2EiiiRN3pci6deviceEPjS4_RSt3mapIjP8_nvme_nsSt4lessIjESaISt4pairIKjS7_EEE
  4652: 0000000040916ff0     4 OBJECT  GLOBAL DEFAULT   52 if_index
  4653: 00000000404ea580   294 FUNC    WEAK   DEFAULT    4 _ZNSt7__cxx1115basic_stringbufIwSt11char_traitsIwESaIwEE14__xfer_bufptrsC1ERKS4_PS4_
  4654: 000000004045bfe0  4262 FUNC    GLOBAL DEFAULT    4 _ZNSt6locale5_ImplC2Em
  4655: 0000000040352fc0    15 FUNC    GLOBAL DEFAULT    4 AcpiIsValidSpaceId
  4656: 000000004052ee00    20 FUNC    WEAK   DEFAULT    4 _ZNKSt12__shared_ptrINSt10filesystem7__cxx114_DirELN9__gnu_cxx12_Lock_policyE2EE9use_countEv
  4657: 000000004034d810   137 FUNC    GLOBAL DEFAULT    4 AcpiExCreateAlias
  4658: 000000004052ea00    26 FUNC    GLOBAL DEFAULT    4 _ZSt8to_charsPcS_eSt12chars_format
  4659: 000000004054bce0   403 FUNC    WEAK   DEFAULT    4 _ZNSt7__cxx1119basic_ostringstreamIcSt11char_traitsIcESaIcEEC2EONS_12basic_stringIcS2_S3_EESt13_Ios_Openmode
  4660: 000000004033e660   174 FUNC    WEAK   DEFAULT    4 _Z14unaligned_copyILj7ELj14EEvPvPKvm
  4661: 000000004028bae0   153 FUNC    GLOBAL DEFAULT    4 in_rtqdrain
  4662: 000000004039b580    37 FUNC    WEAK   DEFAULT    4 _ZNSt17_Function_handlerIFbcENSt8__detail15_BracketMatcherINSt7__cxx1112regex_traitsIcEELb1ELb0EEEE9_M_invokeERKSt9_Any_dataOc
  4663: 00000000406694f8    15 OBJECT  WEAK   DEFAULT    9 _ZTSSt8messagesIcE
  4664: 0000000040361e40  1088 FUNC    GLOBAL DEFAULT    4 AcpiDsLoad2EndOp
  4665: 000000004039fc20   420 FUNC    WEAK   DEFAULT    4 _ZNSt8__detail4_NFAINSt7__cxx1112regex_traitsIcEEE16_M_insert_repeatEllb
  4666: 0000000040491f00  5015 FUNC    WEAK   DEFAULT    4 _ZNKSt7__cxx119money_getIcSt19istreambuf_iteratorIcSt11char_traitsIcEEE10_M_extractILb1EEES4_S4_S4_RSt8ios_baseRSt12_Ios_IostateRNS_12basic_stringIcS3_SaIcEEE
  4667: 00000000408003a0    24 OBJECT  WEAK   DEFAULT   21 _ZTISt9money_putIcSt19ostreambuf_iteratorIcSt11char_traitsIcEEE
  4668: 0000000040484460    19 FUNC    WEAK   DEFAULT    4 _ZNSs7replaceEN9__gnu_cxx17__normal_iteratorIPcSsEES2_mc
  4669: 0000000040356cb0    19 FUNC    GLOBAL DEFAULT    4 AcpiPsGetOpcodeSize
  4670: 000000004062128f     4 OBJECT  UNIQUE DEFAULT    9 _ZN16signature_helperIJPN5async10timer_taskEPNS0_12async_workerEmEE3sigE
  4671: 0000000040344bc0    59 FUNC    GLOBAL DEFAULT    4 AcpiFormatException
  4672: 00000000402510c0   204 FUNC    GLOBAL DEFAULT    4 m_cat
  4673: 00000000407ffd30    32 OBJECT  WEAK   DEFAULT   21 _ZTVSt9basic_iosIwSt11char_traitsIwEE
  4674: 00000000403f6ac0    19 FUNC    WEAK   DEFAULT    4 __strtol_internal
  4675: 00000000402e3c70   384 FUNC    WEAK   DEFAULT    4 _ZNSt8_Rb_treeINSt7__cxx1112basic_stringIcSt11char_traitsIcESaIcEEESt4pairIKS5_St8weak_ptrIN3elf6objectEEESt10_Select1stISC_ESt4lessIS5_ESaISC_EE24_M_get_insert_unique_posERS7_
  4676: 0000000040265700    44 FUNC    GLOBAL DEFAULT    4 bioq_insert_tail
  4677: 000000004044c490    57 FUNC    GLOBAL DEFAULT    4 __cxa_call_terminate
  4678: 000000004046c1c0    13 FUNC    GLOBAL DEFAULT    4 _ZNKSt25__codecvt_utf8_utf16_baseIwE10do_unshiftER11__mbstate_tPcS3_RS3_
  4679: 000000004080a5a8     8 OBJECT  GLOBAL DEFAULT   22 hvm_xen_start_info
  4680: 0000000040334f50    97 FUNC    WEAK   DEFAULT    4 _Z14unaligned_copyILj7ELj0EEvPvPKvm
  4681: 0000000040296360    90 FUNC    GLOBAL DEFAULT    4 vnet_igmp_uninit
  4682: 00000000404861d0    25 FUNC    WEAK   DEFAULT    4 _ZNSbIwSt11char_traitsIwESaIwEEC2EOS2_RKS1_
  4683: 00000000403bd1c0    49 FUNC    GLOBAL DEFAULT    4 _ZN3osv9demanglerclEPKc
  4684: 0000000040669150     4 OBJECT  GLOBAL DEFAULT    9 _ZNSt14numeric_limitsIhE12max_digits10E
  4685: 00000000404e3020    22 FUNC    GLOBAL DEFAULT    4 _ZNSt11regex_errorD0Ev
  4686: 00000000403bc340    56 FUNC    WEAK   DEFAULT    4 _ZNSt17_Function_handlerIFvvEN3osv19rcu_dispose_deleterISt6vectorINS1_13rcu_hashtableI9epoll_ptrSt4hashIS5_EE8next_ptrESaIS9_EEEEE10_M_managerERSt9_Any_dataRKSE_St18_Manager_operation
  4687: 0000000040466140   526 FUNC    GLOBAL DEFAULT    4 _ZNSt7__cxx118numpunctIwE22_M_initialize_numpunctEP15__locale_struct
  4688: 000000004066980d     1 OBJECT  GLOBAL DEFAULT    9 _ZNSt12placeholders3_23E
  4689: 000000004036af60   100 FUNC    GLOBAL DEFAULT    4 _ZN6loggerD1Ev
  4690: 000000004080adc8     8 OBJECT  GLOBAL DEFAULT   22 gdb_trace_function_entry
  4691: 00000000404c2430    71 FUNC    WEAK   DEFAULT    4 _ZTv0_n24_NSt13basic_istreamIwSt11char_traitsIwEED0Ev
  4692: 000000004041a0b0   235 FUNC    GLOBAL DEFAULT    4 scalbf
  4693: 00000000403a6690   153 FUNC    WEAK   DEFAULT    4 _ZNSt8_Rb_treeIlSt4pairIKllESt10_Select1stIS2_ESt4lessIlESaIS2_EE24_M_get_insert_unique_posERS1_
  4694: 00000000404ed6b0    41 FUNC    WEAK   DEFAULT    4 _ZNSt15basic_streambufIcSt11char_traitsIcEED0Ev
  4695: 00000000403ceb90   366 FUNC    WEAK   DEFAULT    4 statfs
  4696: 0000000040509160    48 FUNC    WEAK   DEFAULT    4 _ZNKSt7__cxx1112basic_stringIwSt11char_traitsIwESaIwEE13find_first_ofEPKwm
  4697: 00000000402515c0   589 FUNC    GLOBAL DEFAULT    4 m_copyup
  4698: 000000004022fcf0    13 FUNC    GLOBAL DEFAULT    4 _ZN5sched6thread4mainEv
  4699: 0000000040438807     0 FUNC    GLOBAL DEFAULT    4 fegetenv
  4700: 0000000040317870    53 FUNC    GLOBAL DEFAULT    4 device_probe_and_attach
  4701: 00000000402c55f0     8 FUNC    GLOBAL DEFAULT    4 _ZNK3mmu3vma5flagsEv
  4702: 000000004048a780    69 FUNC    GLOBAL DEFAULT    4 _ZNKSt3tr14hashINSt7__cxx1112basic_stringIwSt11char_traitsIwESaIwEEEEclES6_
  4703: 00000000404e06e0   113 FUNC    WEAK   DEFAULT    4 _ZNSt13basic_ostreamIwSt11char_traitsIwEEC1ERSt14basic_iostreamIwS1_E
  4704: 0000000040503730   323 FUNC    WEAK   DEFAULT    4 _ZNKSt8time_getIwSt19istreambuf_iteratorIwSt11char_traitsIwEEE11do_get_dateES3_S3_RSt8ios_baseRSt12_Ios_IostateP2tm
  4705: 00000000403fac80    14 FUNC    GLOBAL DEFAULT    4 pthread_attr_setstack
  4706: 000000004023cf50   231 FUNC    WEAK   DEFAULT    4 _ZN5boost2io18basic_altstringbufIcSt11char_traitsIcESaIcEE7seekposESt4fposI11__mbstate_tESt13_Ios_Openmode
  4707: 00000000404e4220   147 FUNC    WEAK   DEFAULT    4 _ZTv0_n24_NSt7__cxx1119basic_istringstreamIwSt11char_traitsIwESaIwEED0Ev
  4708: 000000004041a230   180 FUNC    GLOBAL DEFAULT    4 scalbn
  4709: 0000000040319330    37 FUNC    GLOBAL DEFAULT    4 _Z14truncate_above7e820entm
  4710: 00000000402f4940     5 FUNC    WEAK   DEFAULT    4 _ZN6virtio11mmio_device4initEv
  4711: 00000000404e7360     9 FUNC    WEAK   DEFAULT    4 _ZNKSt7__cxx1119basic_istringstreamIcSt11char_traitsIcESaIcEE5rdbufEv
  4712: 000000004053e4c0    41 FUNC    WEAK   DEFAULT    4 _ZZNSt10filesystem7__cxx114path10_S_convertIwEEDaPKT_S5_EN5_UCvtD0Ev
  4713: 0000000040483a80   154 FUNC    WEAK   DEFAULT    4 _ZNSs4_Rep9_S_createEmmRKSaIcE
  4714: 0000000040329b90   399 FUNC    WEAK   DEFAULT    4 _Z13do_sse_memcpyILj28E12load_aligned13store_alignedEvPvPKv
  4715: 000000004034b5a0   196 FUNC    GLOBAL DEFAULT    4 AcpiEnterSleepStatePrep
  4716: 00000000404ef7f0     8 FUNC    WEAK   DEFAULT    4 _ZNKSt7__cxx1112basic_stringIcSt11char_traitsIcESaIcEE5frontEv
  4717: 0000000040318300   155 FUNC    WEAK   DEFAULT    4 _ZN8xenfront6xenbusD1Ev
  4718: 00000000404884b0    11 FUNC    WEAK   DEFAULT    4 _ZNSbIwSt11char_traitsIwESaIwEE6resizeEm
  4719: 000000004033d7a0   225 FUNC    WEAK   DEFAULT    4 _Z14unaligned_copyILj9ELj15EEvPvPKvm
  4720: 00000000402a31f0   125 FUNC    GLOBAL DEFAULT    4 tcp_drain
  4721: 00000000403b1ed0   582 FUNC    GLOBAL DEFAULT    4 _ZN4file9poll_manyEP6pollfdmN5boost8optionalINSt6chrono10time_pointIN3osv5clock6uptimeENS4_8durationIlSt5ratioILl1ELl1000000000EEEEEEEE
  4722: 000000004030e400    76 FUNC    WEAK   DEFAULT    4 _ZThn8_N5boost10wrapexceptINS_9gregorian9bad_monthEED1Ev
  4723: 0000000040256700    66 FUNC    GLOBAL DEFAULT    4 sbappendstream
  4724: 000000004098cd68     8 OBJECT  UNIQUE DEFAULT   52 _ZGVNSt8numpunctIwE2idE
  4725: 0000000040334b10     5 FUNC    GLOBAL DEFAULT    4 _Z13do_short_copyILj0EEvPvPKv
  4726: 00000000409503c0     8 OBJECT  GLOBAL DEFAULT   52 _ZN6logger9_instanceE
  4727: 00000000402cb1f0    12 FUNC    WEAK   DEFAULT    4 _ZN5boost2io6detail13call_put_lastIcSt11char_traitsIcEKPvEEvRSt13basic_ostreamIT_T0_EPKv
  4728: 0000000040489f70   154 FUNC    GLOBAL DEFAULT    4 _ZNSt12ctype_bynameIcEC1EPKcm
  4729: 00000000404f18d0    29 FUNC    WEAK   DEFAULT    4 _ZNSt7__cxx1112basic_stringIcSt11char_traitsIcESaIcEEC2ERKS4_RKS3_
  4730: 00000000402f35c0    13 FUNC    GLOBAL DEFAULT    4 _ZN6virtio5vring9get_paddrEv
  4731: 0000000040535590   530 FUNC    GLOBAL DEFAULT    4 _ZNSt10filesystem8absoluteERKNS_7__cxx114pathERSt10error_code
  4732: 00000000402e9380    17 FUNC    GLOBAL DEFAULT    4 _ZN3pci8function20msix_get_num_entriesEv
  4733: 00000000405225c0    12 FUNC    WEAK   DEFAULT    4 _ZNKSbIwSt11char_traitsIwESaIwEEcvSt17basic_string_viewIwS0_EEv
  4734: 00000000402ea5c0    44 FUNC    GLOBAL DEFAULT    4 _ZN3pci6bridgeC2Ehhh
  4735: 00000000403e2610   740 FUNC    GLOBAL DEFAULT    4 _ZN8pseudofs6cpumapB5cxx11Ev
  4736: 0000000040801660    16 OBJECT  WEAK   DEFAULT   21 _ZTINSt3_V214error_categoryE
  4737: 0000000040288ac0    62 FUNC    GLOBAL DEFAULT    4 inm_release_locked
  4738: 00000000404e3c40    72 FUNC    WEAK   DEFAULT    4 _ZNSt7__cxx1115basic_stringbufIwSt11char_traitsIwESaIwEE9showmanycEv
  4739: 00000000407feb20    24 OBJECT  WEAK   DEFAULT   21 _ZTINSt7__cxx118numpunctIwEE
  4740: 00000000403fc160    21 FUNC    GLOBAL DEFAULT    4 tcdrain
  4741: 000000004066980c     1 OBJECT  GLOBAL DEFAULT    9 _ZNSt12placeholders3_24E
  4742: 00000000402d4ba0   269 FUNC    WEAK   DEFAULT    4 _ZNSt11_Deque_baseIcSaIcEEC2Ev
  4743: 000000004023cb00    10 FUNC    WEAK   DEFAULT    4 _ZNK5boost6system6detail21system_error_category4nameEv
  4744: 00000000402d70b0    72 FUNC    GLOBAL DEFAULT    4 _ZN3elf6object6lookupIvEEPT_PKc
  4745: 0000000040918540  1664 OBJECT  GLOBAL DEFAULT   52 inetsw
  4746: 0000000040664720    30 OBJECT  WEAK   DEFAULT    9 _ZTSSt18__moneypunct_cacheIcLb1EE
  4747: 0000000040423750   135 FUNC    GLOBAL DEFAULT    4 __overflow
  4748: 000000004030de90    16 FUNC    WEAK   DEFAULT    4 _ZN5boost7numeric17positive_overflowD2Ev
  4749: 0000000040482530   142 FUNC    GLOBAL DEFAULT    4 _ZGTtNSt13runtime_errorC1EPKc
  4750: 00000000404969b0   250 FUNC    WEAK   DEFAULT    4 _ZNSt7__cxx1117moneypunct_bynameIcLb1EEC1ERKNS_12basic_stringIcSt11char_traitsIcESaIcEEEm
  4751: 0000000040429810    22 FUNC    GLOBAL DEFAULT    4 vwprintf
  4752: 000000004037a1b0   546 FUNC    WEAK   DEFAULT    4 _ZNSt6vectorIN6memory5stats10pool_statsESaIS2_EE17_M_default_appendEm
  4753: 00000000402f2fb0    10 FUNC    WEAK   DEFAULT    4 _ZN6virtio24virtio_modern_pci_device9is_modernEv
  4754: 0000000040487930    23 FUNC    WEAK   DEFAULT    4 _ZNSbIwSt11char_traitsIwESaIwEE7replaceEN9__gnu_cxx17__normal_iteratorIPwS2_EES6_mw
  4755: 0000000040506da0    57 FUNC    WEAK   DEFAULT    4 _ZNSt7__cxx1112basic_stringIwSt11char_traitsIwESaIwEE13_S_copy_charsEPwPKwS7_
  4756: 0000000040485dc0    27 FUNC    WEAK   DEFAULT    4 _ZNSsC2IPKcEET_S2_RKSaIcE
  4757: 0000000040461f00    93 FUNC    WEAK   DEFAULT    4 _ZNSt18__moneypunct_cacheIcLb1EED1Ev
  4758: 00000000402af640   462 FUNC    GLOBAL DEFAULT    4 _Z19xs_unregister_watchP8xs_watch
  4759: 00000000403fffe0     8 FUNC    GLOBAL DEFAULT    4 _Z9from_libcP5sem_t
  4760: 0000000040362a70    87 FUNC    GLOBAL DEFAULT    4 AcpiDsObjStackPush
  4761: 0000000040530790    13 FUNC    WEAK   DEFAULT    4 _ZNSt23_Sp_counted_ptr_inplaceINSt10filesystem7__cxx1128recursive_directory_iterator10_Dir_stackESaIS3_ELN9__gnu_cxx12_Lock_policyE2EE10_M_disposeEv
  4762: 00000000408d8340   112 OBJECT  GLOBAL DEFAULT   37 _ZNSt17__timepunct_cacheIwE12_S_timezonesE
  4763: 0000000040506c40    41 FUNC    WEAK   DEFAULT    4 _ZNSt7__cxx1112basic_stringIwSt11char_traitsIwESaIwEE7_S_copyEPwPKwm
  4764: 000000004047a9d0   550 FUNC    WEAK   DEFAULT    4 _ZNSt19basic_istringstreamIcSt11char_traitsIcESaIcEE4swapERS3_
  4765: 00000000403ebd60    89 FUNC    WEAK   DEFAULT    4 __posix_getopt
  4766: 00000000404f5d20    54 FUNC    WEAK   DEFAULT    4 _ZNKSt8messagesIwE4openERKSsRKSt6localePKc
  4767: 00000000404e0430   216 FUNC    WEAK   DEFAULT    4 _ZNSt13basic_ostreamIwSt11char_traitsIwEE5seekpESt4fposI11__mbstate_tE
  4768: 000000004044c5f0    26 FUNC    GLOBAL DEFAULT    4 _ZSt18uncaught_exceptionv
  4769: 000000004066921a     1 OBJECT  GLOBAL DEFAULT    9 _ZNSt21__numeric_limits_base9is_moduloE
  4770: 0000000040491da0    78 FUNC    WEAK   DEFAULT    4 _ZSt9has_facetINSt7__cxx119money_putIcSt19ostreambuf_iteratorIcSt11char_traitsIcEEEEEbRKSt6locale
  4771: 0000000040989810     8 OBJECT  UNIQUE DEFAULT   52 _ZGVN9__gnu_cxx16bitmap_allocatorIcE15_S_last_requestE
  4772: 00000000403ccbf0   344 FUNC    WEAK   DEFAULT    4 __fxstat64
  4773: 00000000402af2a0   124 FUNC    GLOBAL DEFAULT    4 _Z9xs_printf14xs_transactionPKcS1_S1_z
  4774: 00000000403351d0    62 FUNC    WEAK   DEFAULT    4 _Z14unaligned_copyILj1ELj2EEvPvPKvm
  4775: 0000000040349ad0   156 FUNC    GLOBAL DEFAULT    4 AcpiOsAcquireObject
  4776: 00000000402f3560    81 FUNC    GLOBAL DEFAULT    4 _ZN6virtio5vringD0Ev
  4777: 0000000040547fb0    45 FUNC    GLOBAL DEFAULT    4 _ZNSt3pmr28unsynchronized_pool_resourceD2Ev
  4778: 0000000040668f18     1 OBJECT  GLOBAL DEFAULT    9 _ZNSt14numeric_limitsIyE17has_signaling_NaNE
  4779: 00000000405449e0   110 FUNC    GLOBAL DEFAULT    4 _ZNKSt10filesystem7__cxx114path19lexically_proximateERKS1_
  4780: 00000000404d7fe0  1057 FUNC    WEAK   DEFAULT    4 _ZNKSt8time_getIcSt19istreambuf_iteratorIcSt11char_traitsIcEEE15_M_extract_nameES3_S3_RiPPKcmRSt8ios_baseRSt12_Ios_Iostate
  4781: 0000000040468000    50 FUNC    GLOBAL DEFAULT    4 _ZNSt12strstreambuf9underflowEv
  4782: 000000004051c9a0    13 FUNC    GLOBAL DEFAULT    4 _ZNKSt10filesystem16filesystem_error5path2Ev
  4783: 0000000040508920    91 FUNC    WEAK   DEFAULT    4 _ZNSt7__cxx1112basic_stringIwSt11char_traitsIwESaIwEE6insertEN9__gnu_cxx17__normal_iteratorIPKwS4_EESt16initializer_listIwE
